
USB Typewriter P2S.elf:     file format elf32-avr

Sections:
Idx Name          Size      VMA       LMA       File off  Algn
  0 .data         00000054  00800100  00001956  000019ea  2**0
                  CONTENTS, ALLOC, LOAD, DATA
  1 .text         00001956  00000000  00000000  00000094  2**1
                  CONTENTS, ALLOC, LOAD, READONLY, CODE
  2 .bss          000000fd  00800154  00800154  00001a3e  2**0
                  ALLOC
  3 .comment      00000030  00000000  00000000  00001a3e  2**0
                  CONTENTS, READONLY

Disassembly of section .text:

00000000 <__vectors>:
       0:	b2 c0       	rjmp	.+356    	; 0x166 <__ctors_end>
       2:	00 00       	nop
       4:	cc c0       	rjmp	.+408    	; 0x19e <__bad_interrupt>
       6:	00 00       	nop
       8:	ca c0       	rjmp	.+404    	; 0x19e <__bad_interrupt>
       a:	00 00       	nop
       c:	c8 c0       	rjmp	.+400    	; 0x19e <__bad_interrupt>
       e:	00 00       	nop
      10:	c6 c0       	rjmp	.+396    	; 0x19e <__bad_interrupt>
      12:	00 00       	nop
      14:	c4 c0       	rjmp	.+392    	; 0x19e <__bad_interrupt>
      16:	00 00       	nop
      18:	c2 c0       	rjmp	.+388    	; 0x19e <__bad_interrupt>
      1a:	00 00       	nop
      1c:	c0 c0       	rjmp	.+384    	; 0x19e <__bad_interrupt>
      1e:	00 00       	nop
      20:	be c0       	rjmp	.+380    	; 0x19e <__bad_interrupt>
      22:	00 00       	nop
      24:	bc c0       	rjmp	.+376    	; 0x19e <__bad_interrupt>
      26:	00 00       	nop
      28:	0c 94 c8 09 	jmp	0x1390	; 0x1390 <__vector_10>
      2c:	b8 c0       	rjmp	.+368    	; 0x19e <__bad_interrupt>
      2e:	00 00       	nop
      30:	b6 c0       	rjmp	.+364    	; 0x19e <__bad_interrupt>
      32:	00 00       	nop
      34:	b4 c0       	rjmp	.+360    	; 0x19e <__bad_interrupt>
      36:	00 00       	nop
      38:	b2 c0       	rjmp	.+356    	; 0x19e <__bad_interrupt>
      3a:	00 00       	nop
      3c:	b0 c0       	rjmp	.+352    	; 0x19e <__bad_interrupt>
      3e:	00 00       	nop
      40:	ae c0       	rjmp	.+348    	; 0x19e <__bad_interrupt>
      42:	00 00       	nop
      44:	9c c2       	rjmp	.+1336   	; 0x57e <__vector_17>
      46:	00 00       	nop
      48:	aa c0       	rjmp	.+340    	; 0x19e <__bad_interrupt>
      4a:	00 00       	nop
      4c:	a8 c0       	rjmp	.+336    	; 0x19e <__bad_interrupt>
      4e:	00 00       	nop
      50:	a6 c0       	rjmp	.+332    	; 0x19e <__bad_interrupt>
      52:	00 00       	nop
      54:	a4 c0       	rjmp	.+328    	; 0x19e <__bad_interrupt>
      56:	00 00       	nop
      58:	a2 c0       	rjmp	.+324    	; 0x19e <__bad_interrupt>
      5a:	00 00       	nop
      5c:	a0 c0       	rjmp	.+320    	; 0x19e <__bad_interrupt>
      5e:	00 00       	nop
      60:	9e c0       	rjmp	.+316    	; 0x19e <__bad_interrupt>
      62:	00 00       	nop
      64:	06 c2       	rjmp	.+1036   	; 0x472 <__vector_25>
      66:	00 00       	nop
      68:	32 c2       	rjmp	.+1124   	; 0x4ce <__vector_26>
      6a:	00 00       	nop
      6c:	98 c0       	rjmp	.+304    	; 0x19e <__bad_interrupt>
      6e:	00 00       	nop
      70:	96 c0       	rjmp	.+300    	; 0x19e <__bad_interrupt>
      72:	00 00       	nop
      74:	94 c0       	rjmp	.+296    	; 0x19e <__bad_interrupt>
      76:	00 00       	nop
      78:	92 c0       	rjmp	.+292    	; 0x19e <__bad_interrupt>
      7a:	00 00       	nop
      7c:	90 c0       	rjmp	.+288    	; 0x19e <__bad_interrupt>
      7e:	00 00       	nop
      80:	8e c0       	rjmp	.+284    	; 0x19e <__bad_interrupt>
      82:	00 00       	nop
      84:	8c c0       	rjmp	.+280    	; 0x19e <__bad_interrupt>
      86:	00 00       	nop
      88:	8a c0       	rjmp	.+276    	; 0x19e <__bad_interrupt>
      8a:	00 00       	nop
      8c:	88 c0       	rjmp	.+272    	; 0x19e <__bad_interrupt>
      8e:	00 00       	nop
      90:	86 c0       	rjmp	.+268    	; 0x19e <__bad_interrupt>
      92:	00 00       	nop
      94:	84 c0       	rjmp	.+264    	; 0x19e <__bad_interrupt>
      96:	00 00       	nop
      98:	82 c0       	rjmp	.+260    	; 0x19e <__bad_interrupt>
      9a:	00 00       	nop
      9c:	80 c0       	rjmp	.+256    	; 0x19e <__bad_interrupt>
      9e:	00 00       	nop
      a0:	7e c0       	rjmp	.+252    	; 0x19e <__bad_interrupt>
      a2:	00 00       	nop
      a4:	7c c0       	rjmp	.+248    	; 0x19e <__bad_interrupt>
      a6:	00 00       	nop
      a8:	7a c0       	rjmp	.+244    	; 0x19e <__bad_interrupt>
	...

000000ac <ProductString>:
      ac:	26 03 4c 00 55 00 46 00 41 00 20 00 4b 00 65 00     &.L.U.F.A. .K.e.
      bc:	79 00 62 00 6f 00 61 00 72 00 64 00 20 00 44 00     y.b.o.a.r.d. .D.
      cc:	65 00 6d 00 6f 00 00 00                             e.m.o...

000000d4 <ManufacturerString>:
      d4:	18 03 44 00 65 00 61 00 6e 00 20 00 43 00 61 00     ..D.e.a.n. .C.a.
      e4:	6d 00 65 00 72 00 61 00 00 00                       m.e.r.a...

000000ee <LanguageString>:
      ee:	04 03 09 04                                         ....

000000f2 <ConfigurationDescriptor>:
      f2:	09 02 22 00 01 01 00 c0 32 09 04 00 00 01 03 01     ..".....2.......
     102:	01 00 09 21 11 01 00 01 22 3f 00 07 05 81 03 08     ...!...."?......
     112:	00 05                                               ..

00000114 <DeviceDescriptor>:
     114:	12 01 10 01 00 00 00 08 eb 03 42 20 01 00 01 02     ..........B ....
     124:	00 01                                               ..

00000126 <KeyboardReport>:
     126:	05 01 09 06 a1 01 05 07 19 e0 29 e7 15 00 25 01     ..........)...%.
     136:	75 01 95 08 81 02 95 01 75 08 81 01 05 08 19 01     u.......u.......
     146:	29 05 95 05 75 01 91 02 95 01 75 03 91 01 15 00     )...u.....u.....
     156:	25 ff 05 07 19 00 29 ff 95 06 75 08 81 00 c0 00     %.....)...u.....

00000166 <__ctors_end>:
     166:	11 24       	eor	r1, r1
     168:	1f be       	out	0x3f, r1	; 63
     16a:	cf ef       	ldi	r28, 0xFF	; 255
     16c:	da e0       	ldi	r29, 0x0A	; 10
     16e:	de bf       	out	0x3e, r29	; 62
     170:	cd bf       	out	0x3d, r28	; 61

00000172 <__do_copy_data>:
     172:	11 e0       	ldi	r17, 0x01	; 1
     174:	a0 e0       	ldi	r26, 0x00	; 0
     176:	b1 e0       	ldi	r27, 0x01	; 1
     178:	e6 e5       	ldi	r30, 0x56	; 86
     17a:	f9 e1       	ldi	r31, 0x19	; 25
     17c:	02 c0       	rjmp	.+4      	; 0x182 <__do_copy_data+0x10>
     17e:	05 90       	lpm	r0, Z+
     180:	0d 92       	st	X+, r0
     182:	a4 35       	cpi	r26, 0x54	; 84
     184:	b1 07       	cpc	r27, r17
     186:	d9 f7       	brne	.-10     	; 0x17e <__do_copy_data+0xc>

00000188 <__do_clear_bss>:
     188:	22 e0       	ldi	r18, 0x02	; 2
     18a:	a4 e5       	ldi	r26, 0x54	; 84
     18c:	b1 e0       	ldi	r27, 0x01	; 1
     18e:	01 c0       	rjmp	.+2      	; 0x192 <.do_clear_bss_start>

00000190 <.do_clear_bss_loop>:
     190:	1d 92       	st	X+, r1

00000192 <.do_clear_bss_start>:
     192:	a1 35       	cpi	r26, 0x51	; 81
     194:	b2 07       	cpc	r27, r18
     196:	e1 f7       	brne	.-8      	; 0x190 <.do_clear_bss_loop>
     198:	50 d2       	rcall	.+1184   	; 0x63a <main>
     19a:	0c 94 a9 0c 	jmp	0x1952	; 0x1952 <_exit>

0000019e <__bad_interrupt>:
     19e:	30 cf       	rjmp	.-416    	; 0x0 <__vectors>

000001a0 <Bluetooth_Send>:
     1a0:	cf 93       	push	r28
     1a2:	c8 2f       	mov	r28, r24
     1a4:	8c e0       	ldi	r24, 0x0C	; 12
     1a6:	d6 d1       	rcall	.+940    	; 0x554 <uart_putc>
     1a8:	80 e0       	ldi	r24, 0x00	; 0
     1aa:	d4 d1       	rcall	.+936    	; 0x554 <uart_putc>
     1ac:	81 ea       	ldi	r24, 0xA1	; 161
     1ae:	d2 d1       	rcall	.+932    	; 0x554 <uart_putc>
     1b0:	81 e0       	ldi	r24, 0x01	; 1
     1b2:	d0 d1       	rcall	.+928    	; 0x554 <uart_putc>
     1b4:	80 e0       	ldi	r24, 0x00	; 0
     1b6:	ce d1       	rcall	.+924    	; 0x554 <uart_putc>
     1b8:	80 e0       	ldi	r24, 0x00	; 0
     1ba:	cc d1       	rcall	.+920    	; 0x554 <uart_putc>
     1bc:	8c 2f       	mov	r24, r28
     1be:	ca d1       	rcall	.+916    	; 0x554 <uart_putc>
     1c0:	80 e0       	ldi	r24, 0x00	; 0
     1c2:	c8 d1       	rcall	.+912    	; 0x554 <uart_putc>
     1c4:	80 e0       	ldi	r24, 0x00	; 0
     1c6:	c6 d1       	rcall	.+908    	; 0x554 <uart_putc>
     1c8:	80 e0       	ldi	r24, 0x00	; 0
     1ca:	c4 d1       	rcall	.+904    	; 0x554 <uart_putc>
     1cc:	80 e0       	ldi	r24, 0x00	; 0
     1ce:	c2 d1       	rcall	.+900    	; 0x554 <uart_putc>
     1d0:	80 e0       	ldi	r24, 0x00	; 0
     1d2:	c0 d1       	rcall	.+896    	; 0x554 <uart_putc>
     1d4:	8c e0       	ldi	r24, 0x0C	; 12
     1d6:	be d1       	rcall	.+892    	; 0x554 <uart_putc>
     1d8:	80 e0       	ldi	r24, 0x00	; 0
     1da:	bc d1       	rcall	.+888    	; 0x554 <uart_putc>
     1dc:	81 ea       	ldi	r24, 0xA1	; 161
     1de:	ba d1       	rcall	.+884    	; 0x554 <uart_putc>
     1e0:	81 e0       	ldi	r24, 0x01	; 1
     1e2:	b8 d1       	rcall	.+880    	; 0x554 <uart_putc>
     1e4:	80 e0       	ldi	r24, 0x00	; 0
     1e6:	b6 d1       	rcall	.+876    	; 0x554 <uart_putc>
     1e8:	80 e0       	ldi	r24, 0x00	; 0
     1ea:	b4 d1       	rcall	.+872    	; 0x554 <uart_putc>
     1ec:	80 e0       	ldi	r24, 0x00	; 0
     1ee:	b2 d1       	rcall	.+868    	; 0x554 <uart_putc>
     1f0:	80 e0       	ldi	r24, 0x00	; 0
     1f2:	b0 d1       	rcall	.+864    	; 0x554 <uart_putc>
     1f4:	80 e0       	ldi	r24, 0x00	; 0
     1f6:	ae d1       	rcall	.+860    	; 0x554 <uart_putc>
     1f8:	80 e0       	ldi	r24, 0x00	; 0
     1fa:	ac d1       	rcall	.+856    	; 0x554 <uart_putc>
     1fc:	80 e0       	ldi	r24, 0x00	; 0
     1fe:	aa d1       	rcall	.+852    	; 0x554 <uart_putc>
     200:	80 e0       	ldi	r24, 0x00	; 0
     202:	cf 91       	pop	r28
     204:	a7 c1       	rjmp	.+846    	; 0x554 <uart_putc>

00000206 <GetTeachKey>:
     206:	cf 93       	push	r28
     208:	df 93       	push	r29
     20a:	d8 2f       	mov	r29, r24
     20c:	f5 d3       	rcall	.+2026   	; 0x9f8 <GetKeySimple>
     20e:	c8 2f       	mov	r28, r24
     210:	28 2f       	mov	r18, r24
     212:	30 e0       	ldi	r19, 0x00	; 0
     214:	21 15       	cp	r18, r1
     216:	31 05       	cpc	r19, r1
     218:	c9 f3       	breq	.-14     	; 0x20c <GetTeachKey+0x6>
     21a:	f9 01       	movw	r30, r18
     21c:	7f 99       	sbic	0x0f, 7	; 15
     21e:	06 c0       	rjmp	.+12     	; 0x22c <GetTeachKey+0x26>
     220:	ee 53       	subi	r30, 0x3E	; 62
     222:	fe 4f       	sbci	r31, 0xFE	; 254
     224:	d0 83       	st	Z, r29
     226:	80 e1       	ldi	r24, 0x10	; 16
     228:	91 e0       	ldi	r25, 0x01	; 1
     22a:	07 c0       	rjmp	.+14     	; 0x23a <GetTeachKey+0x34>
     22c:	7e 99       	sbic	0x0f, 6	; 15
     22e:	0a c0       	rjmp	.+20     	; 0x244 <GetTeachKey+0x3e>
     230:	ec 5f       	subi	r30, 0xFC	; 252
     232:	fd 4f       	sbci	r31, 0xFD	; 253
     234:	d0 83       	st	Z, r29
     236:	86 e1       	ldi	r24, 0x16	; 22
     238:	91 e0       	ldi	r25, 0x01	; 1
     23a:	e6 d2       	rcall	.+1484   	; 0x808 <USBSendString>
     23c:	62 e0       	ldi	r22, 0x02	; 2
     23e:	8e e2       	ldi	r24, 0x2E	; 46
     240:	c3 d2       	rcall	.+1414   	; 0x7c8 <USBSend>
     242:	03 c0       	rjmp	.+6      	; 0x24a <GetTeachKey+0x44>
     244:	e6 58       	subi	r30, 0x86	; 134
     246:	fe 4f       	sbci	r31, 0xFE	; 254
     248:	d0 83       	st	Z, r29
     24a:	8c 2f       	mov	r24, r28
     24c:	08 d3       	rcall	.+1552   	; 0x85e <USBSendNumber>
     24e:	60 e0       	ldi	r22, 0x00	; 0
     250:	88 e2       	ldi	r24, 0x28	; 40
     252:	ba d2       	rcall	.+1396   	; 0x7c8 <USBSend>
     254:	2f ef       	ldi	r18, 0xFF	; 255
     256:	84 e3       	ldi	r24, 0x34	; 52
     258:	9c e0       	ldi	r25, 0x0C	; 12
     25a:	21 50       	subi	r18, 0x01	; 1
     25c:	80 40       	sbci	r24, 0x00	; 0
     25e:	90 40       	sbci	r25, 0x00	; 0
     260:	e1 f7       	brne	.-8      	; 0x25a <GetTeachKey+0x54>
     262:	00 c0       	rjmp	.+0      	; 0x264 <GetTeachKey+0x5e>
     264:	00 00       	nop
     266:	df 91       	pop	r29
     268:	cf 91       	pop	r28
     26a:	08 95       	ret

0000026c <Calibrate>:
     26c:	cf 93       	push	r28
     26e:	80 91 48 02 	lds	r24, 0x0248
     272:	84 30       	cpi	r24, 0x04	; 4
     274:	e1 f7       	brne	.-8      	; 0x26e <Calibrate+0x2>
     276:	2f ef       	ldi	r18, 0xFF	; 255
     278:	89 e6       	ldi	r24, 0x69	; 105
     27a:	98 e1       	ldi	r25, 0x18	; 24
     27c:	21 50       	subi	r18, 0x01	; 1
     27e:	80 40       	sbci	r24, 0x00	; 0
     280:	90 40       	sbci	r25, 0x00	; 0
     282:	e1 f7       	brne	.-8      	; 0x27c <Calibrate+0x10>
     284:	00 c0       	rjmp	.+0      	; 0x286 <Calibrate+0x1a>
     286:	00 00       	nop
     288:	89 e1       	ldi	r24, 0x19	; 25
     28a:	91 e0       	ldi	r25, 0x01	; 1
     28c:	bd d2       	rcall	.+1402   	; 0x808 <USBSendString>
     28e:	62 e0       	ldi	r22, 0x02	; 2
     290:	86 e2       	ldi	r24, 0x26	; 38
     292:	9a d2       	rcall	.+1332   	; 0x7c8 <USBSend>
     294:	62 e0       	ldi	r22, 0x02	; 2
     296:	87 e1       	ldi	r24, 0x17	; 23
     298:	97 d2       	rcall	.+1326   	; 0x7c8 <USBSend>
     29a:	62 e0       	ldi	r22, 0x02	; 2
     29c:	80 e1       	ldi	r24, 0x10	; 16
     29e:	94 d2       	rcall	.+1320   	; 0x7c8 <USBSend>
     2a0:	62 e0       	ldi	r22, 0x02	; 2
     2a2:	87 e2       	ldi	r24, 0x27	; 39
     2a4:	91 d2       	rcall	.+1314   	; 0x7c8 <USBSend>
     2a6:	60 e0       	ldi	r22, 0x00	; 0
     2a8:	88 e2       	ldi	r24, 0x28	; 40
     2aa:	8e d2       	rcall	.+1308   	; 0x7c8 <USBSend>
     2ac:	88 e2       	ldi	r24, 0x28	; 40
     2ae:	91 e0       	ldi	r25, 0x01	; 1
     2b0:	ab d2       	rcall	.+1366   	; 0x808 <USBSendString>
     2b2:	62 e0       	ldi	r22, 0x02	; 2
     2b4:	8c e2       	ldi	r24, 0x2C	; 44
     2b6:	88 d2       	rcall	.+1296   	; 0x7c8 <USBSend>
     2b8:	60 e0       	ldi	r22, 0x00	; 0
     2ba:	81 e2       	ldi	r24, 0x21	; 33
     2bc:	85 d2       	rcall	.+1290   	; 0x7c8 <USBSend>
     2be:	60 e0       	ldi	r22, 0x00	; 0
     2c0:	87 e3       	ldi	r24, 0x37	; 55
     2c2:	82 d2       	rcall	.+1284   	; 0x7c8 <USBSend>
     2c4:	60 e0       	ldi	r22, 0x00	; 0
     2c6:	8f e1       	ldi	r24, 0x1F	; 31
     2c8:	7f d2       	rcall	.+1278   	; 0x7c8 <USBSend>
     2ca:	60 e0       	ldi	r22, 0x00	; 0
     2cc:	88 e2       	ldi	r24, 0x28	; 40
     2ce:	7c d2       	rcall	.+1272   	; 0x7c8 <USBSend>
     2d0:	8c e2       	ldi	r24, 0x2C	; 44
     2d2:	91 e0       	ldi	r25, 0x01	; 1
     2d4:	99 d2       	rcall	.+1330   	; 0x808 <USBSendString>
     2d6:	60 e0       	ldi	r22, 0x00	; 0
     2d8:	87 e3       	ldi	r24, 0x37	; 55
     2da:	76 d2       	rcall	.+1260   	; 0x7c8 <USBSend>
     2dc:	60 e0       	ldi	r22, 0x00	; 0
     2de:	87 e3       	ldi	r24, 0x37	; 55
     2e0:	73 d2       	rcall	.+1254   	; 0x7c8 <USBSend>
     2e2:	60 e0       	ldi	r22, 0x00	; 0
     2e4:	87 e3       	ldi	r24, 0x37	; 55
     2e6:	70 d2       	rcall	.+1248   	; 0x7c8 <USBSend>
     2e8:	60 e0       	ldi	r22, 0x00	; 0
     2ea:	88 e2       	ldi	r24, 0x28	; 40
     2ec:	6d d2       	rcall	.+1242   	; 0x7c8 <USBSend>
     2ee:	88 e3       	ldi	r24, 0x38	; 56
     2f0:	91 e0       	ldi	r25, 0x01	; 1
     2f2:	8a d2       	rcall	.+1300   	; 0x808 <USBSendString>
     2f4:	60 e0       	ldi	r22, 0x00	; 0
     2f6:	87 e3       	ldi	r24, 0x37	; 55
     2f8:	67 d2       	rcall	.+1230   	; 0x7c8 <USBSend>
     2fa:	60 e0       	ldi	r22, 0x00	; 0
     2fc:	87 e3       	ldi	r24, 0x37	; 55
     2fe:	64 d2       	rcall	.+1224   	; 0x7c8 <USBSend>
     300:	60 e0       	ldi	r22, 0x00	; 0
     302:	87 e3       	ldi	r24, 0x37	; 55
     304:	61 d2       	rcall	.+1218   	; 0x7c8 <USBSend>
     306:	60 e0       	ldi	r22, 0x00	; 0
     308:	88 e2       	ldi	r24, 0x28	; 40
     30a:	5e d2       	rcall	.+1212   	; 0x7c8 <USBSend>
     30c:	c4 e0       	ldi	r28, 0x04	; 4
     30e:	62 e0       	ldi	r22, 0x02	; 2
     310:	8c 2f       	mov	r24, r28
     312:	5a d2       	rcall	.+1204   	; 0x7c8 <USBSend>
     314:	60 e0       	ldi	r22, 0x00	; 0
     316:	8c e2       	ldi	r24, 0x2C	; 44
     318:	57 d2       	rcall	.+1198   	; 0x7c8 <USBSend>
     31a:	8c 2f       	mov	r24, r28
     31c:	74 df       	rcall	.-280    	; 0x206 <GetTeachKey>
     31e:	60 e0       	ldi	r22, 0x00	; 0
     320:	88 e2       	ldi	r24, 0x28	; 40
     322:	52 d2       	rcall	.+1188   	; 0x7c8 <USBSend>
     324:	cf 5f       	subi	r28, 0xFF	; 255
     326:	ce 31       	cpi	r28, 0x1E	; 30
     328:	91 f7       	brne	.-28     	; 0x30e <Calibrate+0xa2>
     32a:	cf 91       	pop	r28
     32c:	46 c0       	rjmp	.+140    	; 0x3ba <Init_Mode>

0000032e <Config_Interrupts>:
     32e:	e4 e6       	ldi	r30, 0x64	; 100
     330:	f0 e0       	ldi	r31, 0x00	; 0
     332:	80 81       	ld	r24, Z
     334:	87 7f       	andi	r24, 0xF7	; 247
     336:	80 83       	st	Z, r24
     338:	8a e0       	ldi	r24, 0x0A	; 10
     33a:	80 93 81 00 	sts	0x0081, r24
     33e:	87 e2       	ldi	r24, 0x27	; 39
     340:	80 93 89 00 	sts	0x0089, r24
     344:	80 e1       	ldi	r24, 0x10	; 16
     346:	80 93 88 00 	sts	0x0088, r24
     34a:	ef e6       	ldi	r30, 0x6F	; 111
     34c:	f0 e0       	ldi	r31, 0x00	; 0
     34e:	80 81       	ld	r24, Z
     350:	82 60       	ori	r24, 0x02	; 2
     352:	80 83       	st	Z, r24
     354:	08 95       	ret

00000356 <Config_IO>:
     356:	27 98       	cbi	0x04, 7	; 4
     358:	2f 9a       	sbi	0x05, 7	; 5
     35a:	56 98       	cbi	0x0a, 6	; 10
     35c:	5e 9a       	sbi	0x0b, 6	; 11
     35e:	57 98       	cbi	0x0a, 7	; 10
     360:	5f 9a       	sbi	0x0b, 7	; 11
     362:	24 98       	cbi	0x04, 4	; 4
     364:	2c 9a       	sbi	0x05, 4	; 5
     366:	25 98       	cbi	0x04, 5	; 4
     368:	2d 9a       	sbi	0x05, 5	; 5
     36a:	23 98       	cbi	0x04, 3	; 4
     36c:	2b 9a       	sbi	0x05, 3	; 5
     36e:	22 98       	cbi	0x04, 2	; 4
     370:	2a 9a       	sbi	0x05, 2	; 5
     372:	26 9a       	sbi	0x04, 6	; 4
     374:	3e 98       	cbi	0x07, 6	; 7
     376:	46 9a       	sbi	0x08, 6	; 8
     378:	21 98       	cbi	0x04, 1	; 4
     37a:	29 9a       	sbi	0x05, 1	; 5
     37c:	28 98       	cbi	0x05, 0	; 5
     37e:	20 9a       	sbi	0x04, 0	; 4
     380:	6e 98       	cbi	0x0d, 6	; 13
     382:	76 9a       	sbi	0x0e, 6	; 14
     384:	5d 98       	cbi	0x0b, 5	; 11
     386:	55 9a       	sbi	0x0a, 5	; 10
     388:	54 98       	cbi	0x0a, 4	; 10
     38a:	5c 9a       	sbi	0x0b, 4	; 11
     38c:	53 98       	cbi	0x0a, 3	; 10
     38e:	5b 9a       	sbi	0x0b, 3	; 11
     390:	52 98       	cbi	0x0a, 2	; 10
     392:	5a 9a       	sbi	0x0b, 2	; 11
     394:	59 9a       	sbi	0x0b, 1	; 11
     396:	51 9a       	sbi	0x0a, 1	; 10
     398:	58 9a       	sbi	0x0b, 0	; 11
     39a:	50 9a       	sbi	0x0a, 0	; 10
     39c:	72 9a       	sbi	0x0e, 2	; 14
     39e:	6a 9a       	sbi	0x0d, 2	; 13
     3a0:	85 98       	cbi	0x10, 5	; 16
     3a2:	8d 9a       	sbi	0x11, 5	; 17
     3a4:	86 98       	cbi	0x10, 6	; 16
     3a6:	8e 9a       	sbi	0x11, 6	; 17
     3a8:	87 98       	cbi	0x10, 7	; 16
     3aa:	8f 9a       	sbi	0x11, 7	; 17
     3ac:	8c 9a       	sbi	0x11, 4	; 17
     3ae:	84 9a       	sbi	0x10, 4	; 16
     3b0:	89 9a       	sbi	0x11, 1	; 17
     3b2:	81 9a       	sbi	0x10, 1	; 16
     3b4:	88 9a       	sbi	0x11, 0	; 17
     3b6:	80 9a       	sbi	0x10, 0	; 16
     3b8:	08 95       	ret

000003ba <Init_Mode>:
     3ba:	7d 99       	sbic	0x0f, 5	; 15
     3bc:	07 c0       	rjmp	.+14     	; 0x3cc <Init_Mode+0x12>
     3be:	7e 9b       	sbis	0x0f, 6	; 15
     3c0:	05 c0       	rjmp	.+10     	; 0x3cc <Init_Mode+0x12>
     3c2:	7f 9b       	sbis	0x0f, 7	; 15
     3c4:	03 c0       	rjmp	.+6      	; 0x3cc <Init_Mode+0x12>
     3c6:	85 e0       	ldi	r24, 0x05	; 5
     3c8:	90 e0       	ldi	r25, 0x00	; 0
     3ca:	0b c0       	rjmp	.+22     	; 0x3e2 <Init_Mode+0x28>
     3cc:	7d 9b       	sbis	0x0f, 5	; 15
     3ce:	07 c0       	rjmp	.+14     	; 0x3de <Init_Mode+0x24>
     3d0:	7e 9b       	sbis	0x0f, 6	; 15
     3d2:	05 c0       	rjmp	.+10     	; 0x3de <Init_Mode+0x24>
     3d4:	7f 99       	sbic	0x0f, 7	; 15
     3d6:	03 c0       	rjmp	.+6      	; 0x3de <Init_Mode+0x24>
     3d8:	84 e0       	ldi	r24, 0x04	; 4
     3da:	90 e0       	ldi	r25, 0x00	; 0
     3dc:	02 c0       	rjmp	.+4      	; 0x3e2 <Init_Mode+0x28>
     3de:	89 e0       	ldi	r24, 0x09	; 9
     3e0:	90 e0       	ldi	r25, 0x00	; 0
     3e2:	90 93 03 02 	sts	0x0203, r25
     3e6:	80 93 02 02 	sts	0x0202, r24
     3ea:	08 95       	ret

000003ec <CALLBACK_USB_GetDescriptor>:
     3ec:	29 2f       	mov	r18, r25
     3ee:	33 27       	eor	r19, r19
     3f0:	23 30       	cpi	r18, 0x03	; 3
     3f2:	31 05       	cpc	r19, r1
     3f4:	b9 f0       	breq	.+46     	; 0x424 <CALLBACK_USB_GetDescriptor+0x38>
     3f6:	5c f4       	brge	.+22     	; 0x40e <CALLBACK_USB_GetDescriptor+0x22>
     3f8:	21 30       	cpi	r18, 0x01	; 1
     3fa:	31 05       	cpc	r19, r1
     3fc:	69 f1       	breq	.+90     	; 0x458 <CALLBACK_USB_GetDescriptor+0x6c>
     3fe:	22 30       	cpi	r18, 0x02	; 2
     400:	31 05       	cpc	r19, r1
     402:	79 f5       	brne	.+94     	; 0x462 <CALLBACK_USB_GetDescriptor+0x76>
     404:	82 e2       	ldi	r24, 0x22	; 34
     406:	90 e0       	ldi	r25, 0x00	; 0
     408:	22 ef       	ldi	r18, 0xF2	; 242
     40a:	30 e0       	ldi	r19, 0x00	; 0
     40c:	2e c0       	rjmp	.+92     	; 0x46a <CALLBACK_USB_GetDescriptor+0x7e>
     40e:	21 32       	cpi	r18, 0x21	; 33
     410:	31 05       	cpc	r19, r1
     412:	e9 f0       	breq	.+58     	; 0x44e <CALLBACK_USB_GetDescriptor+0x62>
     414:	22 32       	cpi	r18, 0x22	; 34
     416:	31 05       	cpc	r19, r1
     418:	21 f5       	brne	.+72     	; 0x462 <CALLBACK_USB_GetDescriptor+0x76>
     41a:	8f e3       	ldi	r24, 0x3F	; 63
     41c:	90 e0       	ldi	r25, 0x00	; 0
     41e:	26 e2       	ldi	r18, 0x26	; 38
     420:	31 e0       	ldi	r19, 0x01	; 1
     422:	23 c0       	rjmp	.+70     	; 0x46a <CALLBACK_USB_GetDescriptor+0x7e>
     424:	99 27       	eor	r25, r25
     426:	81 30       	cpi	r24, 0x01	; 1
     428:	91 05       	cpc	r25, r1
     42a:	41 f0       	breq	.+16     	; 0x43c <CALLBACK_USB_GetDescriptor+0x50>
     42c:	82 30       	cpi	r24, 0x02	; 2
     42e:	91 05       	cpc	r25, r1
     430:	41 f0       	breq	.+16     	; 0x442 <CALLBACK_USB_GetDescriptor+0x56>
     432:	89 2b       	or	r24, r25
     434:	b1 f4       	brne	.+44     	; 0x462 <CALLBACK_USB_GetDescriptor+0x76>
     436:	ee ee       	ldi	r30, 0xEE	; 238
     438:	f0 e0       	ldi	r31, 0x00	; 0
     43a:	05 c0       	rjmp	.+10     	; 0x446 <CALLBACK_USB_GetDescriptor+0x5a>
     43c:	e4 ed       	ldi	r30, 0xD4	; 212
     43e:	f0 e0       	ldi	r31, 0x00	; 0
     440:	02 c0       	rjmp	.+4      	; 0x446 <CALLBACK_USB_GetDescriptor+0x5a>
     442:	ec ea       	ldi	r30, 0xAC	; 172
     444:	f0 e0       	ldi	r31, 0x00	; 0
     446:	84 91       	lpm	r24, Z
     448:	90 e0       	ldi	r25, 0x00	; 0
     44a:	9f 01       	movw	r18, r30
     44c:	0e c0       	rjmp	.+28     	; 0x46a <CALLBACK_USB_GetDescriptor+0x7e>
     44e:	89 e0       	ldi	r24, 0x09	; 9
     450:	90 e0       	ldi	r25, 0x00	; 0
     452:	24 e0       	ldi	r18, 0x04	; 4
     454:	31 e0       	ldi	r19, 0x01	; 1
     456:	09 c0       	rjmp	.+18     	; 0x46a <CALLBACK_USB_GetDescriptor+0x7e>
     458:	82 e1       	ldi	r24, 0x12	; 18
     45a:	90 e0       	ldi	r25, 0x00	; 0
     45c:	24 e1       	ldi	r18, 0x14	; 20
     45e:	31 e0       	ldi	r19, 0x01	; 1
     460:	04 c0       	rjmp	.+8      	; 0x46a <CALLBACK_USB_GetDescriptor+0x7e>
     462:	80 e0       	ldi	r24, 0x00	; 0
     464:	90 e0       	ldi	r25, 0x00	; 0
     466:	20 e0       	ldi	r18, 0x00	; 0
     468:	30 e0       	ldi	r19, 0x00	; 0
     46a:	fa 01       	movw	r30, r20
     46c:	31 83       	std	Z+1, r19	; 0x01
     46e:	20 83       	st	Z, r18
     470:	08 95       	ret

00000472 <__vector_25>:
     472:	1f 92       	push	r1
     474:	0f 92       	push	r0
     476:	0f b6       	in	r0, 0x3f	; 63
     478:	0f 92       	push	r0
     47a:	11 24       	eor	r1, r1
     47c:	2f 93       	push	r18
     47e:	8f 93       	push	r24
     480:	9f 93       	push	r25
     482:	ef 93       	push	r30
     484:	ff 93       	push	r31
     486:	80 91 c8 00 	lds	r24, 0x00C8
     48a:	90 91 ce 00 	lds	r25, 0x00CE
     48e:	88 71       	andi	r24, 0x18	; 24
     490:	e0 91 56 01 	lds	r30, 0x0156
     494:	ef 5f       	subi	r30, 0xFF	; 255
     496:	e7 70       	andi	r30, 0x07	; 7
     498:	20 91 55 01 	lds	r18, 0x0155
     49c:	e2 17       	cp	r30, r18
     49e:	39 f0       	breq	.+14     	; 0x4ae <__vector_25+0x3c>
     4a0:	e0 93 56 01 	sts	0x0156, r30
     4a4:	f0 e0       	ldi	r31, 0x00	; 0
     4a6:	e7 5a       	subi	r30, 0xA7	; 167
     4a8:	fe 4f       	sbci	r31, 0xFE	; 254
     4aa:	90 83       	st	Z, r25
     4ac:	01 c0       	rjmp	.+2      	; 0x4b0 <__vector_25+0x3e>
     4ae:	82 e0       	ldi	r24, 0x02	; 2
     4b0:	90 91 54 01 	lds	r25, 0x0154
     4b4:	98 2b       	or	r25, r24
     4b6:	90 93 54 01 	sts	0x0154, r25
     4ba:	ff 91       	pop	r31
     4bc:	ef 91       	pop	r30
     4be:	9f 91       	pop	r25
     4c0:	8f 91       	pop	r24
     4c2:	2f 91       	pop	r18
     4c4:	0f 90       	pop	r0
     4c6:	0f be       	out	0x3f, r0	; 63
     4c8:	0f 90       	pop	r0
     4ca:	1f 90       	pop	r1
     4cc:	18 95       	reti

000004ce <__vector_26>:
     4ce:	1f 92       	push	r1
     4d0:	0f 92       	push	r0
     4d2:	0f b6       	in	r0, 0x3f	; 63
     4d4:	0f 92       	push	r0
     4d6:	11 24       	eor	r1, r1
     4d8:	8f 93       	push	r24
     4da:	9f 93       	push	r25
     4dc:	ef 93       	push	r30
     4de:	ff 93       	push	r31
     4e0:	90 91 58 01 	lds	r25, 0x0158
     4e4:	80 91 57 01 	lds	r24, 0x0157
     4e8:	98 17       	cp	r25, r24
     4ea:	69 f0       	breq	.+26     	; 0x506 <__vector_26+0x38>
     4ec:	e0 91 57 01 	lds	r30, 0x0157
     4f0:	ef 5f       	subi	r30, 0xFF	; 255
     4f2:	ef 70       	andi	r30, 0x0F	; 15
     4f4:	e0 93 57 01 	sts	0x0157, r30
     4f8:	f0 e0       	ldi	r31, 0x00	; 0
     4fa:	ef 59       	subi	r30, 0x9F	; 159
     4fc:	fe 4f       	sbci	r31, 0xFE	; 254
     4fe:	80 81       	ld	r24, Z
     500:	80 93 ce 00 	sts	0x00CE, r24
     504:	05 c0       	rjmp	.+10     	; 0x510 <__vector_26+0x42>
     506:	80 91 c9 00 	lds	r24, 0x00C9
     50a:	8f 7d       	andi	r24, 0xDF	; 223
     50c:	80 93 c9 00 	sts	0x00C9, r24
     510:	ff 91       	pop	r31
     512:	ef 91       	pop	r30
     514:	9f 91       	pop	r25
     516:	8f 91       	pop	r24
     518:	0f 90       	pop	r0
     51a:	0f be       	out	0x3f, r0	; 63
     51c:	0f 90       	pop	r0
     51e:	1f 90       	pop	r1
     520:	18 95       	reti

00000522 <uart_init>:
     522:	10 92 58 01 	sts	0x0158, r1
     526:	10 92 57 01 	sts	0x0157, r1
     52a:	10 92 56 01 	sts	0x0156, r1
     52e:	10 92 55 01 	sts	0x0155, r1
     532:	97 ff       	sbrs	r25, 7
     534:	04 c0       	rjmp	.+8      	; 0x53e <uart_init+0x1c>
     536:	22 e0       	ldi	r18, 0x02	; 2
     538:	20 93 c8 00 	sts	0x00C8, r18
     53c:	9f 77       	andi	r25, 0x7F	; 127
     53e:	90 93 cd 00 	sts	0x00CD, r25
     542:	80 93 cc 00 	sts	0x00CC, r24
     546:	88 e9       	ldi	r24, 0x98	; 152
     548:	80 93 c9 00 	sts	0x00C9, r24
     54c:	86 e0       	ldi	r24, 0x06	; 6
     54e:	80 93 ca 00 	sts	0x00CA, r24
     552:	08 95       	ret

00000554 <uart_putc>:
     554:	90 91 58 01 	lds	r25, 0x0158
     558:	9f 5f       	subi	r25, 0xFF	; 255
     55a:	9f 70       	andi	r25, 0x0F	; 15
     55c:	20 91 57 01 	lds	r18, 0x0157
     560:	92 17       	cp	r25, r18
     562:	e1 f3       	breq	.-8      	; 0x55c <uart_putc+0x8>
     564:	e9 2f       	mov	r30, r25
     566:	f0 e0       	ldi	r31, 0x00	; 0
     568:	ef 59       	subi	r30, 0x9F	; 159
     56a:	fe 4f       	sbci	r31, 0xFE	; 254
     56c:	80 83       	st	Z, r24
     56e:	90 93 58 01 	sts	0x0158, r25
     572:	80 91 c9 00 	lds	r24, 0x00C9
     576:	80 62       	ori	r24, 0x20	; 32
     578:	80 93 c9 00 	sts	0x00C9, r24
     57c:	08 95       	ret

0000057e <__vector_17>:
     57e:	1f 92       	push	r1
     580:	0f 92       	push	r0
     582:	0f b6       	in	r0, 0x3f	; 63
     584:	0f 92       	push	r0
     586:	11 24       	eor	r1, r1
     588:	2f 93       	push	r18
     58a:	3f 93       	push	r19
     58c:	4f 93       	push	r20
     58e:	5f 93       	push	r21
     590:	6f 93       	push	r22
     592:	7f 93       	push	r23
     594:	8f 93       	push	r24
     596:	9f 93       	push	r25
     598:	af 93       	push	r26
     59a:	bf 93       	push	r27
     59c:	ef 93       	push	r30
     59e:	ff 93       	push	r31
     5a0:	80 91 be 01 	lds	r24, 0x01BE
     5a4:	90 91 bf 01 	lds	r25, 0x01BF
     5a8:	01 96       	adiw	r24, 0x01	; 1
     5aa:	90 93 bf 01 	sts	0x01BF, r25
     5ae:	80 93 be 01 	sts	0x01BE, r24
     5b2:	80 e0       	ldi	r24, 0x00	; 0
     5b4:	91 e0       	ldi	r25, 0x01	; 1
     5b6:	c4 d3       	rcall	.+1928   	; 0xd40 <HID_Device_USBTask>
     5b8:	0e 94 df 0b 	call	0x17be	; 0x17be <USB_USBTask>
     5bc:	ff 91       	pop	r31
     5be:	ef 91       	pop	r30
     5c0:	bf 91       	pop	r27
     5c2:	af 91       	pop	r26
     5c4:	9f 91       	pop	r25
     5c6:	8f 91       	pop	r24
     5c8:	7f 91       	pop	r23
     5ca:	6f 91       	pop	r22
     5cc:	5f 91       	pop	r21
     5ce:	4f 91       	pop	r20
     5d0:	3f 91       	pop	r19
     5d2:	2f 91       	pop	r18
     5d4:	0f 90       	pop	r0
     5d6:	0f be       	out	0x3f, r0	; 63
     5d8:	0f 90       	pop	r0
     5da:	1f 90       	pop	r1
     5dc:	18 95       	reti

000005de <SetupHardware>:
     5de:	84 b7       	in	r24, 0x34	; 52
     5e0:	87 7f       	andi	r24, 0xF7	; 247
     5e2:	84 bf       	out	0x34, r24	; 52
     5e4:	88 e1       	ldi	r24, 0x18	; 24
     5e6:	0f b6       	in	r0, 0x3f	; 63
     5e8:	f8 94       	cli
     5ea:	80 93 60 00 	sts	0x0060, r24
     5ee:	10 92 60 00 	sts	0x0060, r1
     5f2:	0f be       	out	0x3f, r0	; 63
     5f4:	90 e0       	ldi	r25, 0x00	; 0
     5f6:	80 e8       	ldi	r24, 0x80	; 128
     5f8:	0f b6       	in	r0, 0x3f	; 63
     5fa:	f8 94       	cli
     5fc:	80 93 61 00 	sts	0x0061, r24
     600:	90 93 61 00 	sts	0x0061, r25
     604:	0f be       	out	0x3f, r0	; 63
     606:	93 de       	rcall	.-730    	; 0x32e <Config_Interrupts>
     608:	a6 de       	rcall	.-692    	; 0x356 <Config_IO>
     60a:	2f e7       	ldi	r18, 0x7F	; 127
     60c:	88 e3       	ldi	r24, 0x38	; 56
     60e:	91 e0       	ldi	r25, 0x01	; 1
     610:	21 50       	subi	r18, 0x01	; 1
     612:	80 40       	sbci	r24, 0x00	; 0
     614:	90 40       	sbci	r25, 0x00	; 0
     616:	e1 f7       	brne	.-8      	; 0x610 <SetupHardware+0x32>
     618:	00 c0       	rjmp	.+0      	; 0x61a <SetupHardware+0x3c>
     61a:	00 00       	nop
     61c:	ce de       	rcall	.-612    	; 0x3ba <Init_Mode>
     61e:	80 91 02 02 	lds	r24, 0x0202
     622:	90 91 03 02 	lds	r25, 0x0203
     626:	02 97       	sbiw	r24, 0x02	; 2
     628:	39 f0       	breq	.+14     	; 0x638 <SetupHardware+0x5a>
     62a:	80 91 02 02 	lds	r24, 0x0202
     62e:	90 91 03 02 	lds	r25, 0x0203
     632:	03 97       	sbiw	r24, 0x03	; 3
     634:	09 f0       	breq	.+2      	; 0x638 <SetupHardware+0x5a>
     636:	8f c6       	rjmp	.+3358   	; 0x1356 <USB_Init>
     638:	08 95       	ret

0000063a <main>:
     63a:	10 92 03 02 	sts	0x0203, r1
     63e:	10 92 02 02 	sts	0x0202, r1
     642:	cd df       	rcall	.-102    	; 0x5de <SetupHardware>
     644:	78 94       	sei
     646:	2f ef       	ldi	r18, 0xFF	; 255
     648:	83 ed       	ldi	r24, 0xD3	; 211
     64a:	90 e3       	ldi	r25, 0x30	; 48
     64c:	21 50       	subi	r18, 0x01	; 1
     64e:	80 40       	sbci	r24, 0x00	; 0
     650:	90 40       	sbci	r25, 0x00	; 0
     652:	e1 f7       	brne	.-8      	; 0x64c <main+0x12>
     654:	00 c0       	rjmp	.+0      	; 0x656 <main+0x1c>
     656:	00 00       	nop
     658:	11 e0       	ldi	r17, 0x01	; 1
     65a:	c4 e0       	ldi	r28, 0x04	; 4
     65c:	d0 e0       	ldi	r29, 0x00	; 0
     65e:	80 91 48 02 	lds	r24, 0x0248
     662:	84 30       	cpi	r24, 0x04	; 4
     664:	11 f4       	brne	.+4      	; 0x66a <main+0x30>
     666:	89 98       	cbi	0x11, 1	; 17
     668:	01 c0       	rjmp	.+2      	; 0x66c <main+0x32>
     66a:	89 9a       	sbi	0x11, 1	; 17
     66c:	80 91 02 02 	lds	r24, 0x0202
     670:	90 91 03 02 	lds	r25, 0x0203
     674:	84 30       	cpi	r24, 0x04	; 4
     676:	91 05       	cpc	r25, r1
     678:	09 f1       	breq	.+66     	; 0x6bc <main+0x82>
     67a:	2c f4       	brge	.+10     	; 0x686 <main+0x4c>
     67c:	01 97       	sbiw	r24, 0x01	; 1
     67e:	09 f0       	breq	.+2      	; 0x682 <main+0x48>
     680:	60 c0       	rjmp	.+192    	; 0x742 <main+0x108>
     682:	cc d1       	rcall	.+920    	; 0xa1c <LoadKeyCodeTables>
     684:	0a c0       	rjmp	.+20     	; 0x69a <main+0x60>
     686:	85 30       	cpi	r24, 0x05	; 5
     688:	91 05       	cpc	r25, r1
     68a:	b1 f1       	breq	.+108    	; 0x6f8 <main+0xbe>
     68c:	09 97       	sbiw	r24, 0x09	; 9
     68e:	09 f0       	breq	.+2      	; 0x692 <main+0x58>
     690:	58 c0       	rjmp	.+176    	; 0x742 <main+0x108>
     692:	8c e0       	ldi	r24, 0x0C	; 12
     694:	90 e0       	ldi	r25, 0x00	; 0
     696:	45 df       	rcall	.-374    	; 0x522 <uart_init>
     698:	51 c0       	rjmp	.+162    	; 0x73c <main+0x102>
     69a:	7e 99       	sbic	0x0f, 6	; 15
     69c:	fe cf       	rjmp	.-4      	; 0x69a <main+0x60>
     69e:	e0 91 c0 01 	lds	r30, 0x01C0
     6a2:	f0 91 c1 01 	lds	r31, 0x01C1
     6a6:	82 81       	ldd	r24, Z+2	; 0x02
     6a8:	81 11       	cpse	r24, r1
     6aa:	fd cf       	rjmp	.-6      	; 0x6a6 <main+0x6c>
     6ac:	a5 d1       	rcall	.+842    	; 0x9f8 <GetKeySimple>
     6ae:	c8 2f       	mov	r28, r24
     6b0:	80 e5       	ldi	r24, 0x50	; 80
     6b2:	91 e0       	ldi	r25, 0x01	; 1
     6b4:	a9 d0       	rcall	.+338    	; 0x808 <USBSendString>
     6b6:	8c 2f       	mov	r24, r28
     6b8:	d2 d0       	rcall	.+420    	; 0x85e <USBSendNumber>
     6ba:	f1 cf       	rjmp	.-30     	; 0x69e <main+0x64>
     6bc:	39 b1       	in	r19, 0x09	; 9
     6be:	89 b1       	in	r24, 0x09	; 9
     6c0:	23 b1       	in	r18, 0x03	; 3
     6c2:	93 b1       	in	r25, 0x03	; 3
     6c4:	80 95       	com	r24
     6c6:	88 1f       	adc	r24, r24
     6c8:	88 27       	eor	r24, r24
     6ca:	88 1f       	adc	r24, r24
     6cc:	36 fb       	bst	r19, 6
     6ce:	33 27       	eor	r19, r19
     6d0:	30 f9       	bld	r19, 0
     6d2:	31 27       	eor	r19, r17
     6d4:	83 0f       	add	r24, r19
     6d6:	22 95       	swap	r18
     6d8:	21 70       	andi	r18, 0x01	; 1
     6da:	21 27       	eor	r18, r17
     6dc:	82 0f       	add	r24, r18
     6de:	95 fb       	bst	r25, 5
     6e0:	99 27       	eor	r25, r25
     6e2:	90 f9       	bld	r25, 0
     6e4:	91 27       	eor	r25, r17
     6e6:	89 0f       	add	r24, r25
     6e8:	80 ff       	sbrs	r24, 0
     6ea:	03 c0       	rjmp	.+6      	; 0x6f2 <main+0xb8>
     6ec:	89 9a       	sbi	0x11, 1	; 17
     6ee:	88 98       	cbi	0x11, 0	; 17
     6f0:	b6 cf       	rjmp	.-148    	; 0x65e <main+0x24>
     6f2:	89 98       	cbi	0x11, 1	; 17
     6f4:	88 9a       	sbi	0x11, 0	; 17
     6f6:	b3 cf       	rjmp	.-154    	; 0x65e <main+0x24>
     6f8:	b9 dd       	rcall	.-1166   	; 0x26c <Calibrate>
     6fa:	b1 cf       	rjmp	.-158    	; 0x65e <main+0x24>
     6fc:	66 99       	sbic	0x0c, 6	; 12
     6fe:	fe cf       	rjmp	.-4      	; 0x6fc <main+0xc2>
     700:	66 9b       	sbis	0x0c, 6	; 12
     702:	fe cf       	rjmp	.-4      	; 0x700 <main+0xc6>
     704:	60 e0       	ldi	r22, 0x00	; 0
     706:	84 e0       	ldi	r24, 0x04	; 4
     708:	4b dd       	rcall	.-1386   	; 0x1a0 <Bluetooth_Send>
     70a:	2f ef       	ldi	r18, 0xFF	; 255
     70c:	84 e3       	ldi	r24, 0x34	; 52
     70e:	9c e0       	ldi	r25, 0x0C	; 12
     710:	21 50       	subi	r18, 0x01	; 1
     712:	80 40       	sbci	r24, 0x00	; 0
     714:	90 40       	sbci	r25, 0x00	; 0
     716:	e1 f7       	brne	.-8      	; 0x710 <main+0xd6>
     718:	00 c0       	rjmp	.+0      	; 0x71a <main+0xe0>
     71a:	00 00       	nop
     71c:	66 99       	sbic	0x0c, 6	; 12
     71e:	fe cf       	rjmp	.-4      	; 0x71c <main+0xe2>
     720:	66 9b       	sbis	0x0c, 6	; 12
     722:	fe cf       	rjmp	.-4      	; 0x720 <main+0xe6>
     724:	60 e0       	ldi	r22, 0x00	; 0
     726:	8d e1       	ldi	r24, 0x1D	; 29
     728:	3b dd       	rcall	.-1418   	; 0x1a0 <Bluetooth_Send>
     72a:	2f ef       	ldi	r18, 0xFF	; 255
     72c:	84 e3       	ldi	r24, 0x34	; 52
     72e:	9c e0       	ldi	r25, 0x0C	; 12
     730:	21 50       	subi	r18, 0x01	; 1
     732:	80 40       	sbci	r24, 0x00	; 0
     734:	90 40       	sbci	r25, 0x00	; 0
     736:	e1 f7       	brne	.-8      	; 0x730 <main+0xf6>
     738:	00 c0       	rjmp	.+0      	; 0x73a <main+0x100>
     73a:	00 00       	nop
     73c:	7e 99       	sbic	0x0f, 6	; 15
     73e:	fe cf       	rjmp	.-4      	; 0x73c <main+0x102>
     740:	dd cf       	rjmp	.-70     	; 0x6fc <main+0xc2>
     742:	d0 93 03 02 	sts	0x0203, r29
     746:	c0 93 02 02 	sts	0x0202, r28
     74a:	89 cf       	rjmp	.-238    	; 0x65e <main+0x24>

0000074c <EVENT_USB_Device_Connect>:
     74c:	08 95       	ret

0000074e <EVENT_USB_Device_Disconnect>:
     74e:	08 95       	ret

00000750 <EVENT_USB_Device_Suspend>:
     750:	08 95       	ret

00000752 <EVENT_USB_Device_WakeUp>:
     752:	08 95       	ret

00000754 <EVENT_USB_Device_ConfigurationChanged>:
     754:	80 e0       	ldi	r24, 0x00	; 0
     756:	91 e0       	ldi	r25, 0x01	; 1
     758:	e0 d2       	rcall	.+1472   	; 0xd1a <HID_Device_ConfigureEndpoints>
     75a:	e2 ee       	ldi	r30, 0xE2	; 226
     75c:	f0 e0       	ldi	r31, 0x00	; 0
     75e:	80 81       	ld	r24, Z
     760:	84 60       	ori	r24, 0x04	; 4
     762:	80 83       	st	Z, r24
     764:	08 95       	ret

00000766 <EVENT_USB_Device_ControlRequest>:
     766:	80 e0       	ldi	r24, 0x00	; 0
     768:	91 e0       	ldi	r25, 0x01	; 1
     76a:	a5 c1       	rjmp	.+842    	; 0xab6 <HID_Device_ProcessControlRequest>

0000076c <EVENT_USB_Device_StartOfFrame>:
     76c:	80 91 0e 01 	lds	r24, 0x010E
     770:	90 91 0f 01 	lds	r25, 0x010F
     774:	00 97       	sbiw	r24, 0x00	; 0
     776:	29 f0       	breq	.+10     	; 0x782 <EVENT_USB_Device_StartOfFrame+0x16>
     778:	01 97       	sbiw	r24, 0x01	; 1
     77a:	90 93 0f 01 	sts	0x010F, r25
     77e:	80 93 0e 01 	sts	0x010E, r24
     782:	08 95       	ret

00000784 <CALLBACK_HID_Device_CreateHIDReport>:
     784:	0f 93       	push	r16
     786:	1f 93       	push	r17
     788:	f9 01       	movw	r30, r18
     78a:	a0 91 c0 01 	lds	r26, 0x01C0
     78e:	b0 91 c1 01 	lds	r27, 0x01C1
     792:	12 96       	adiw	r26, 0x02	; 2
     794:	8c 91       	ld	r24, X
     796:	82 83       	std	Z+2, r24	; 0x02
     798:	88 23       	and	r24, r24
     79a:	21 f0       	breq	.+8      	; 0x7a4 <CALLBACK_HID_Device_CreateHIDReport+0x20>
     79c:	80 91 79 01 	lds	r24, 0x0179
     7a0:	80 83       	st	Z, r24
     7a2:	01 c0       	rjmp	.+2      	; 0x7a6 <CALLBACK_HID_Device_CreateHIDReport+0x22>
     7a4:	10 82       	st	Z, r1
     7a6:	e0 91 c0 01 	lds	r30, 0x01C0
     7aa:	f0 91 c1 01 	lds	r31, 0x01C1
     7ae:	12 82       	std	Z+2, r1	; 0x02
     7b0:	10 92 79 01 	sts	0x0179, r1
     7b4:	88 e0       	ldi	r24, 0x08	; 8
     7b6:	90 e0       	ldi	r25, 0x00	; 0
     7b8:	f8 01       	movw	r30, r16
     7ba:	91 83       	std	Z+1, r25	; 0x01
     7bc:	80 83       	st	Z, r24
     7be:	80 e0       	ldi	r24, 0x00	; 0
     7c0:	1f 91       	pop	r17
     7c2:	0f 91       	pop	r16
     7c4:	08 95       	ret

000007c6 <CALLBACK_HID_Device_ProcessHIDReport>:
     7c6:	08 95       	ret

000007c8 <USBSend>:
     7c8:	10 92 bf 01 	sts	0x01BF, r1
     7cc:	10 92 be 01 	sts	0x01BE, r1
     7d0:	e0 91 c0 01 	lds	r30, 0x01C0
     7d4:	f0 91 c1 01 	lds	r31, 0x01C1
     7d8:	92 81       	ldd	r25, Z+2	; 0x02
     7da:	91 11       	cpse	r25, r1
     7dc:	0d c0       	rjmp	.+26     	; 0x7f8 <USBSend+0x30>
     7de:	82 83       	std	Z+2, r24	; 0x02
     7e0:	60 93 79 01 	sts	0x0179, r22
     7e4:	2f ef       	ldi	r18, 0xFF	; 255
     7e6:	80 e7       	ldi	r24, 0x70	; 112
     7e8:	92 e0       	ldi	r25, 0x02	; 2
     7ea:	21 50       	subi	r18, 0x01	; 1
     7ec:	80 40       	sbci	r24, 0x00	; 0
     7ee:	90 40       	sbci	r25, 0x00	; 0
     7f0:	e1 f7       	brne	.-8      	; 0x7ea <USBSend+0x22>
     7f2:	00 c0       	rjmp	.+0      	; 0x7f4 <USBSend+0x2c>
     7f4:	00 00       	nop
     7f6:	08 95       	ret
     7f8:	20 91 be 01 	lds	r18, 0x01BE
     7fc:	30 91 bf 01 	lds	r19, 0x01BF
     800:	24 31       	cpi	r18, 0x14	; 20
     802:	31 05       	cpc	r19, r1
     804:	4c f3       	brlt	.-46     	; 0x7d8 <USBSend+0x10>
     806:	eb cf       	rjmp	.-42     	; 0x7de <USBSend+0x16>

00000808 <USBSendString>:
     808:	ef 92       	push	r14
     80a:	ff 92       	push	r15
     80c:	0f 93       	push	r16
     80e:	1f 93       	push	r17
     810:	cf 93       	push	r28
     812:	df 93       	push	r29
     814:	8c 01       	movw	r16, r24
     816:	ec 01       	movw	r28, r24
     818:	09 90       	ld	r0, Y+
     81a:	00 20       	and	r0, r0
     81c:	e9 f7       	brne	.-6      	; 0x818 <USBSendString+0x10>
     81e:	21 97       	sbiw	r28, 0x01	; 1
     820:	c8 1b       	sub	r28, r24
     822:	d9 0b       	sbc	r29, r25
     824:	7c 01       	movw	r14, r24
     826:	c7 01       	movw	r24, r14
     828:	80 1b       	sub	r24, r16
     82a:	91 0b       	sbc	r25, r17
     82c:	8c 17       	cp	r24, r28
     82e:	9d 07       	cpc	r25, r29
     830:	7c f4       	brge	.+30     	; 0x850 <USBSendString+0x48>
     832:	f7 01       	movw	r30, r14
     834:	81 91       	ld	r24, Z+
     836:	7f 01       	movw	r14, r30
     838:	80 32       	cpi	r24, 0x20	; 32
     83a:	29 f0       	breq	.+10     	; 0x846 <USBSendString+0x3e>
     83c:	90 e0       	ldi	r25, 0x00	; 0
     83e:	0e 94 74 0c 	call	0x18e8	; 0x18e8 <toupper>
     842:	cd 97       	sbiw	r24, 0x3d	; 61
     844:	02 c0       	rjmp	.+4      	; 0x84a <USBSendString+0x42>
     846:	8c e2       	ldi	r24, 0x2C	; 44
     848:	90 e0       	ldi	r25, 0x00	; 0
     84a:	62 e0       	ldi	r22, 0x02	; 2
     84c:	bd df       	rcall	.-134    	; 0x7c8 <USBSend>
     84e:	eb cf       	rjmp	.-42     	; 0x826 <USBSendString+0x1e>
     850:	df 91       	pop	r29
     852:	cf 91       	pop	r28
     854:	1f 91       	pop	r17
     856:	0f 91       	pop	r16
     858:	ff 90       	pop	r15
     85a:	ef 90       	pop	r14
     85c:	08 95       	ret

0000085e <USBSendNumber>:
     85e:	cf 93       	push	r28
     860:	28 2f       	mov	r18, r24
     862:	6a e0       	ldi	r22, 0x0A	; 10
     864:	c8 d7       	rcall	.+3984   	; 0x17f6 <__udivmodqi4>
     866:	c9 2f       	mov	r28, r25
     868:	82 2f       	mov	r24, r18
     86a:	90 e0       	ldi	r25, 0x00	; 0
     86c:	8c 1b       	sub	r24, r28
     86e:	91 09       	sbc	r25, r1
     870:	64 e6       	ldi	r22, 0x64	; 100
     872:	70 e0       	ldi	r23, 0x00	; 0
     874:	cc d7       	rcall	.+3992   	; 0x180e <__divmodhi4>
     876:	6a e0       	ldi	r22, 0x0A	; 10
     878:	70 e0       	ldi	r23, 0x00	; 0
     87a:	c9 d7       	rcall	.+3986   	; 0x180e <__divmodhi4>
     87c:	86 2f       	mov	r24, r22
     87e:	60 e0       	ldi	r22, 0x00	; 0
     880:	88 23       	and	r24, r24
     882:	11 f0       	breq	.+4      	; 0x888 <USBSendNumber+0x2a>
     884:	83 5e       	subi	r24, 0xE3	; 227
     886:	01 c0       	rjmp	.+2      	; 0x88a <USBSendNumber+0x2c>
     888:	87 e2       	ldi	r24, 0x27	; 39
     88a:	9e df       	rcall	.-196    	; 0x7c8 <USBSend>
     88c:	2f ef       	ldi	r18, 0xFF	; 255
     88e:	80 e7       	ldi	r24, 0x70	; 112
     890:	92 e0       	ldi	r25, 0x02	; 2
     892:	21 50       	subi	r18, 0x01	; 1
     894:	80 40       	sbci	r24, 0x00	; 0
     896:	90 40       	sbci	r25, 0x00	; 0
     898:	e1 f7       	brne	.-8      	; 0x892 <USBSendNumber+0x34>
     89a:	00 c0       	rjmp	.+0      	; 0x89c <USBSendNumber+0x3e>
     89c:	00 00       	nop
     89e:	60 e0       	ldi	r22, 0x00	; 0
     8a0:	cc 23       	and	r28, r28
     8a2:	19 f0       	breq	.+6      	; 0x8aa <USBSendNumber+0x4c>
     8a4:	8d e1       	ldi	r24, 0x1D	; 29
     8a6:	8c 0f       	add	r24, r28
     8a8:	01 c0       	rjmp	.+2      	; 0x8ac <USBSendNumber+0x4e>
     8aa:	87 e2       	ldi	r24, 0x27	; 39
     8ac:	8d df       	rcall	.-230    	; 0x7c8 <USBSend>
     8ae:	2f ef       	ldi	r18, 0xFF	; 255
     8b0:	80 e7       	ldi	r24, 0x70	; 112
     8b2:	92 e0       	ldi	r25, 0x02	; 2
     8b4:	21 50       	subi	r18, 0x01	; 1
     8b6:	80 40       	sbci	r24, 0x00	; 0
     8b8:	90 40       	sbci	r25, 0x00	; 0
     8ba:	e1 f7       	brne	.-8      	; 0x8b4 <USBSendNumber+0x56>
     8bc:	00 c0       	rjmp	.+0      	; 0x8be <USBSendNumber+0x60>
     8be:	00 00       	nop
     8c0:	cf 91       	pop	r28
     8c2:	08 95       	ret

000008c4 <ReadSensor>:
     8c4:	df 92       	push	r13
     8c6:	ef 92       	push	r14
     8c8:	ff 92       	push	r15
     8ca:	0f 93       	push	r16
     8cc:	1f 93       	push	r17
     8ce:	cf 93       	push	r28
     8d0:	df 93       	push	r29
     8d2:	2e 98       	cbi	0x05, 6	; 5
     8d4:	47 9a       	sbi	0x08, 7	; 8
     8d6:	72 98       	cbi	0x0e, 2	; 14
     8d8:	2f ef       	ldi	r18, 0xFF	; 255
     8da:	80 e7       	ldi	r24, 0x70	; 112
     8dc:	92 e0       	ldi	r25, 0x02	; 2
     8de:	21 50       	subi	r18, 0x01	; 1
     8e0:	80 40       	sbci	r24, 0x00	; 0
     8e2:	90 40       	sbci	r25, 0x00	; 0
     8e4:	e1 f7       	brne	.-8      	; 0x8de <ReadSensor+0x1a>
     8e6:	00 c0       	rjmp	.+0      	; 0x8e8 <ReadSensor+0x24>
     8e8:	00 00       	nop
     8ea:	e0 e0       	ldi	r30, 0x00	; 0
     8ec:	f0 e0       	ldi	r31, 0x00	; 0
     8ee:	d1 2c       	mov	r13, r1
     8f0:	e1 2c       	mov	r14, r1
     8f2:	f1 2c       	mov	r15, r1
     8f4:	10 e0       	ldi	r17, 0x00	; 0
     8f6:	d0 e0       	ldi	r29, 0x00	; 0
     8f8:	c0 e0       	ldi	r28, 0x00	; 0
     8fa:	b0 e0       	ldi	r27, 0x00	; 0
     8fc:	a0 e0       	ldi	r26, 0x00	; 0
     8fe:	36 99       	sbic	0x06, 6	; 6
     900:	12 c0       	rjmp	.+36     	; 0x926 <ReadSensor+0x62>
     902:	21 e0       	ldi	r18, 0x01	; 1
     904:	30 e0       	ldi	r19, 0x00	; 0
     906:	40 e0       	ldi	r20, 0x00	; 0
     908:	50 e0       	ldi	r21, 0x00	; 0
     90a:	60 e0       	ldi	r22, 0x00	; 0
     90c:	70 e0       	ldi	r23, 0x00	; 0
     90e:	80 e0       	ldi	r24, 0x00	; 0
     910:	90 e0       	ldi	r25, 0x00	; 0
     912:	0e 2f       	mov	r16, r30
     914:	97 d7       	rcall	.+3886   	; 0x1844 <__ashldi3>
     916:	d2 2a       	or	r13, r18
     918:	e3 2a       	or	r14, r19
     91a:	f4 2a       	or	r15, r20
     91c:	15 2b       	or	r17, r21
     91e:	d6 2b       	or	r29, r22
     920:	c7 2b       	or	r28, r23
     922:	b8 2b       	or	r27, r24
     924:	a9 2b       	or	r26, r25
     926:	2e 9a       	sbi	0x05, 6	; 5
	...
     964:	2e 98       	cbi	0x05, 6	; 5
	...
     9a2:	31 96       	adiw	r30, 0x01	; 1
     9a4:	e0 33       	cpi	r30, 0x30	; 48
     9a6:	f1 05       	cpc	r31, r1
     9a8:	09 f0       	breq	.+2      	; 0x9ac <ReadSensor+0xe8>
     9aa:	a9 cf       	rjmp	.-174    	; 0x8fe <ReadSensor+0x3a>
     9ac:	72 9a       	sbi	0x0e, 2	; 14
	...
     9d6:	47 98       	cbi	0x08, 7	; 8
     9d8:	2d 2d       	mov	r18, r13
     9da:	3e 2d       	mov	r19, r14
     9dc:	4f 2d       	mov	r20, r15
     9de:	51 2f       	mov	r21, r17
     9e0:	6d 2f       	mov	r22, r29
     9e2:	7c 2f       	mov	r23, r28
     9e4:	8b 2f       	mov	r24, r27
     9e6:	9a 2f       	mov	r25, r26
     9e8:	df 91       	pop	r29
     9ea:	cf 91       	pop	r28
     9ec:	1f 91       	pop	r17
     9ee:	0f 91       	pop	r16
     9f0:	ff 90       	pop	r15
     9f2:	ef 90       	pop	r14
     9f4:	df 90       	pop	r13
     9f6:	08 95       	ret

000009f8 <GetKeySimple>:
     9f8:	ff 92       	push	r15
     9fa:	0f 93       	push	r16
     9fc:	1f 93       	push	r17
     9fe:	cf 93       	push	r28
     a00:	df 93       	push	r29
     a02:	60 df       	rcall	.-320    	; 0x8c4 <ReadSensor>
     a04:	a0 e0       	ldi	r26, 0x00	; 0
     a06:	37 d7       	rcall	.+3694   	; 0x1876 <__cmpdi2_s8>
     a08:	11 f0       	breq	.+4      	; 0xa0e <GetKeySimple+0x16>
     a0a:	14 d7       	rcall	.+3624   	; 0x1834 <__clzdi2>
     a0c:	01 c0       	rjmp	.+2      	; 0xa10 <GetKeySimple+0x18>
     a0e:	80 e0       	ldi	r24, 0x00	; 0
     a10:	df 91       	pop	r29
     a12:	cf 91       	pop	r28
     a14:	1f 91       	pop	r17
     a16:	0f 91       	pop	r16
     a18:	ff 90       	pop	r15
     a1a:	08 95       	ret

00000a1c <LoadKeyCodeTables>:
     a1c:	40 e4       	ldi	r20, 0x40	; 64
     a1e:	50 e0       	ldi	r21, 0x00	; 0
     a20:	60 e0       	ldi	r22, 0x00	; 0
     a22:	70 e0       	ldi	r23, 0x00	; 0
     a24:	8a e7       	ldi	r24, 0x7A	; 122
     a26:	91 e0       	ldi	r25, 0x01	; 1
     a28:	84 d7       	rcall	.+3848   	; 0x1932 <__eerd_block_m32u4>
     a2a:	40 e4       	ldi	r20, 0x40	; 64
     a2c:	50 e0       	ldi	r21, 0x00	; 0
     a2e:	60 e4       	ldi	r22, 0x40	; 64
     a30:	70 e0       	ldi	r23, 0x00	; 0
     a32:	84 e0       	ldi	r24, 0x04	; 4
     a34:	92 e0       	ldi	r25, 0x02	; 2
     a36:	7d d7       	rcall	.+3834   	; 0x1932 <__eerd_block_m32u4>
     a38:	40 e4       	ldi	r20, 0x40	; 64
     a3a:	50 e0       	ldi	r21, 0x00	; 0
     a3c:	60 e8       	ldi	r22, 0x80	; 128
     a3e:	70 e0       	ldi	r23, 0x00	; 0
     a40:	82 ec       	ldi	r24, 0xC2	; 194
     a42:	91 e0       	ldi	r25, 0x01	; 1
     a44:	76 d7       	rcall	.+3820   	; 0x1932 <__eerd_block_m32u4>
     a46:	44 e0       	ldi	r20, 0x04	; 4
     a48:	50 e0       	ldi	r21, 0x00	; 0
     a4a:	60 ec       	ldi	r22, 0xC0	; 192
     a4c:	70 e0       	ldi	r23, 0x00	; 0
     a4e:	8a eb       	ldi	r24, 0xBA	; 186
     a50:	91 e0       	ldi	r25, 0x01	; 1
     a52:	6f d7       	rcall	.+3806   	; 0x1932 <__eerd_block_m32u4>
     a54:	ea e7       	ldi	r30, 0x7A	; 122
     a56:	f1 e0       	ldi	r31, 0x01	; 1
     a58:	81 e0       	ldi	r24, 0x01	; 1
     a5a:	ea 3b       	cpi	r30, 0xBA	; 186
     a5c:	f8 07       	cpc	r31, r24
     a5e:	31 f0       	breq	.+12     	; 0xa6c <LoadKeyCodeTables+0x50>
     a60:	80 81       	ld	r24, Z
     a62:	8f 3f       	cpi	r24, 0xFF	; 255
     a64:	09 f4       	brne	.+2      	; 0xa68 <LoadKeyCodeTables+0x4c>
     a66:	10 82       	st	Z, r1
     a68:	31 96       	adiw	r30, 0x01	; 1
     a6a:	f6 cf       	rjmp	.-20     	; 0xa58 <LoadKeyCodeTables+0x3c>
     a6c:	e4 e0       	ldi	r30, 0x04	; 4
     a6e:	f2 e0       	ldi	r31, 0x02	; 2
     a70:	82 e0       	ldi	r24, 0x02	; 2
     a72:	e4 34       	cpi	r30, 0x44	; 68
     a74:	f8 07       	cpc	r31, r24
     a76:	31 f0       	breq	.+12     	; 0xa84 <LoadKeyCodeTables+0x68>
     a78:	80 81       	ld	r24, Z
     a7a:	8f 3f       	cpi	r24, 0xFF	; 255
     a7c:	09 f4       	brne	.+2      	; 0xa80 <LoadKeyCodeTables+0x64>
     a7e:	10 82       	st	Z, r1
     a80:	31 96       	adiw	r30, 0x01	; 1
     a82:	f6 cf       	rjmp	.-20     	; 0xa70 <LoadKeyCodeTables+0x54>
     a84:	e2 ec       	ldi	r30, 0xC2	; 194
     a86:	f1 e0       	ldi	r31, 0x01	; 1
     a88:	82 e0       	ldi	r24, 0x02	; 2
     a8a:	e2 30       	cpi	r30, 0x02	; 2
     a8c:	f8 07       	cpc	r31, r24
     a8e:	31 f0       	breq	.+12     	; 0xa9c <LoadKeyCodeTables+0x80>
     a90:	80 81       	ld	r24, Z
     a92:	8f 3f       	cpi	r24, 0xFF	; 255
     a94:	09 f4       	brne	.+2      	; 0xa98 <LoadKeyCodeTables+0x7c>
     a96:	10 82       	st	Z, r1
     a98:	31 96       	adiw	r30, 0x01	; 1
     a9a:	f6 cf       	rjmp	.-20     	; 0xa88 <LoadKeyCodeTables+0x6c>
     a9c:	ea eb       	ldi	r30, 0xBA	; 186
     a9e:	f1 e0       	ldi	r31, 0x01	; 1
     aa0:	81 e0       	ldi	r24, 0x01	; 1
     aa2:	ee 3b       	cpi	r30, 0xBE	; 190
     aa4:	f8 07       	cpc	r31, r24
     aa6:	31 f0       	breq	.+12     	; 0xab4 <LoadKeyCodeTables+0x98>
     aa8:	80 81       	ld	r24, Z
     aaa:	8f 3f       	cpi	r24, 0xFF	; 255
     aac:	09 f4       	brne	.+2      	; 0xab0 <LoadKeyCodeTables+0x94>
     aae:	10 82       	st	Z, r1
     ab0:	31 96       	adiw	r30, 0x01	; 1
     ab2:	f6 cf       	rjmp	.-20     	; 0xaa0 <LoadKeyCodeTables+0x84>
     ab4:	08 95       	ret

00000ab6 <HID_Device_ProcessControlRequest>:
     ab6:	6f 92       	push	r6
     ab8:	7f 92       	push	r7
     aba:	8f 92       	push	r8
     abc:	9f 92       	push	r9
     abe:	af 92       	push	r10
     ac0:	bf 92       	push	r11
     ac2:	cf 92       	push	r12
     ac4:	df 92       	push	r13
     ac6:	ef 92       	push	r14
     ac8:	ff 92       	push	r15
     aca:	0f 93       	push	r16
     acc:	1f 93       	push	r17
     ace:	cf 93       	push	r28
     ad0:	df 93       	push	r29
     ad2:	00 d0       	rcall	.+0      	; 0xad4 <HID_Device_ProcessControlRequest+0x1e>
     ad4:	1f 92       	push	r1
     ad6:	cd b7       	in	r28, 0x3d	; 61
     ad8:	de b7       	in	r29, 0x3e	; 62
     ada:	7c 01       	movw	r14, r24
     adc:	ad b6       	in	r10, 0x3d	; 61
     ade:	be b6       	in	r11, 0x3e	; 62
     ae0:	80 91 e8 00 	lds	r24, 0x00E8
     ae4:	83 ff       	sbrs	r24, 3
     ae6:	02 c1       	rjmp	.+516    	; 0xcec <__stack+0x1ed>
     ae8:	f7 01       	movw	r30, r14
     aea:	80 81       	ld	r24, Z
     aec:	90 e0       	ldi	r25, 0x00	; 0
     aee:	20 91 4d 02 	lds	r18, 0x024D
     af2:	30 91 4e 02 	lds	r19, 0x024E
     af6:	28 17       	cp	r18, r24
     af8:	39 07       	cpc	r19, r25
     afa:	09 f0       	breq	.+2      	; 0xafe <HID_Device_ProcessControlRequest+0x48>
     afc:	f7 c0       	rjmp	.+494    	; 0xcec <__stack+0x1ed>
     afe:	80 91 4a 02 	lds	r24, 0x024A
     b02:	83 30       	cpi	r24, 0x03	; 3
     b04:	09 f4       	brne	.+2      	; 0xb08 <__stack+0x9>
     b06:	99 c0       	rjmp	.+306    	; 0xc3a <__stack+0x13b>
     b08:	30 f4       	brcc	.+12     	; 0xb16 <__stack+0x17>
     b0a:	81 30       	cpi	r24, 0x01	; 1
     b0c:	71 f0       	breq	.+28     	; 0xb2a <__stack+0x2b>
     b0e:	82 30       	cpi	r24, 0x02	; 2
     b10:	09 f4       	brne	.+2      	; 0xb14 <__stack+0x15>
     b12:	d0 c0       	rjmp	.+416    	; 0xcb4 <__stack+0x1b5>
     b14:	eb c0       	rjmp	.+470    	; 0xcec <__stack+0x1ed>
     b16:	8a 30       	cpi	r24, 0x0A	; 10
     b18:	09 f4       	brne	.+2      	; 0xb1c <__stack+0x1d>
     b1a:	b4 c0       	rjmp	.+360    	; 0xc84 <__stack+0x185>
     b1c:	8b 30       	cpi	r24, 0x0B	; 11
     b1e:	09 f4       	brne	.+2      	; 0xb22 <__stack+0x23>
     b20:	9d c0       	rjmp	.+314    	; 0xc5c <__stack+0x15d>
     b22:	89 30       	cpi	r24, 0x09	; 9
     b24:	09 f0       	breq	.+2      	; 0xb28 <__stack+0x29>
     b26:	e2 c0       	rjmp	.+452    	; 0xcec <__stack+0x1ed>
     b28:	4b c0       	rjmp	.+150    	; 0xbc0 <__stack+0xc1>
     b2a:	80 91 49 02 	lds	r24, 0x0249
     b2e:	81 3a       	cpi	r24, 0xA1	; 161
     b30:	09 f0       	breq	.+2      	; 0xb34 <__stack+0x35>
     b32:	dc c0       	rjmp	.+440    	; 0xcec <__stack+0x1ed>
     b34:	8d b6       	in	r8, 0x3d	; 61
     b36:	9e b6       	in	r9, 0x3e	; 62
     b38:	1a 82       	std	Y+2, r1	; 0x02
     b3a:	19 82       	std	Y+1, r1	; 0x01
     b3c:	80 91 4b 02 	lds	r24, 0x024B
     b40:	10 91 4c 02 	lds	r17, 0x024C
     b44:	8b 83       	std	Y+3, r24	; 0x03
     b46:	f7 01       	movw	r30, r14
     b48:	40 85       	ldd	r20, Z+8	; 0x08
     b4a:	50 e0       	ldi	r21, 0x00	; 0
     b4c:	8d b7       	in	r24, 0x3d	; 61
     b4e:	9e b7       	in	r25, 0x3e	; 62
     b50:	84 1b       	sub	r24, r20
     b52:	95 0b       	sbc	r25, r21
     b54:	0f b6       	in	r0, 0x3f	; 63
     b56:	f8 94       	cli
     b58:	9e bf       	out	0x3e, r25	; 62
     b5a:	0f be       	out	0x3f, r0	; 63
     b5c:	8d bf       	out	0x3d, r24	; 61
     b5e:	ed b7       	in	r30, 0x3d	; 61
     b60:	fe b7       	in	r31, 0x3e	; 62
     b62:	31 96       	adiw	r30, 0x01	; 1
     b64:	6f 01       	movw	r12, r30
     b66:	60 e0       	ldi	r22, 0x00	; 0
     b68:	70 e0       	ldi	r23, 0x00	; 0
     b6a:	cf 01       	movw	r24, r30
     b6c:	db d6       	rcall	.+3510   	; 0x1924 <memset>
     b6e:	4f ef       	ldi	r20, 0xFF	; 255
     b70:	41 0f       	add	r20, r17
     b72:	8e 01       	movw	r16, r28
     b74:	0f 5f       	subi	r16, 0xFF	; 255
     b76:	1f 4f       	sbci	r17, 0xFF	; 255
     b78:	96 01       	movw	r18, r12
     b7a:	be 01       	movw	r22, r28
     b7c:	6d 5f       	subi	r22, 0xFD	; 253
     b7e:	7f 4f       	sbci	r23, 0xFF	; 255
     b80:	c7 01       	movw	r24, r14
     b82:	00 de       	rcall	.-1024   	; 0x784 <CALLBACK_HID_Device_CreateHIDReport>
     b84:	f7 01       	movw	r30, r14
     b86:	86 81       	ldd	r24, Z+6	; 0x06
     b88:	97 81       	ldd	r25, Z+7	; 0x07
     b8a:	00 97       	sbiw	r24, 0x00	; 0
     b8c:	21 f0       	breq	.+8      	; 0xb96 <__stack+0x97>
     b8e:	40 85       	ldd	r20, Z+8	; 0x08
     b90:	50 e0       	ldi	r21, 0x00	; 0
     b92:	b6 01       	movw	r22, r12
     b94:	be d6       	rcall	.+3452   	; 0x1912 <memcpy>
     b96:	10 92 e9 00 	sts	0x00E9, r1
     b9a:	80 91 e8 00 	lds	r24, 0x00E8
     b9e:	87 7f       	andi	r24, 0xF7	; 247
     ba0:	80 93 e8 00 	sts	0x00E8, r24
     ba4:	8b 81       	ldd	r24, Y+3	; 0x03
     ba6:	81 11       	cpse	r24, r1
     ba8:	80 93 f1 00 	sts	0x00F1, r24
     bac:	69 81       	ldd	r22, Y+1	; 0x01
     bae:	7a 81       	ldd	r23, Y+2	; 0x02
     bb0:	c6 01       	movw	r24, r12
     bb2:	cb d1       	rcall	.+918    	; 0xf4a <Endpoint_Write_Control_Stream_LE>
     bb4:	80 91 e8 00 	lds	r24, 0x00E8
     bb8:	8b 77       	andi	r24, 0x7B	; 123
     bba:	80 93 e8 00 	sts	0x00E8, r24
     bbe:	37 c0       	rjmp	.+110    	; 0xc2e <__stack+0x12f>
     bc0:	80 91 49 02 	lds	r24, 0x0249
     bc4:	81 32       	cpi	r24, 0x21	; 33
     bc6:	09 f0       	breq	.+2      	; 0xbca <__stack+0xcb>
     bc8:	91 c0       	rjmp	.+290    	; 0xcec <__stack+0x1ed>
     bca:	8d b6       	in	r8, 0x3d	; 61
     bcc:	9e b6       	in	r9, 0x3e	; 62
     bce:	00 91 4f 02 	lds	r16, 0x024F
     bd2:	10 91 50 02 	lds	r17, 0x0250
     bd6:	70 90 4b 02 	lds	r7, 0x024B
     bda:	60 90 4c 02 	lds	r6, 0x024C
     bde:	8d b7       	in	r24, 0x3d	; 61
     be0:	9e b7       	in	r25, 0x3e	; 62
     be2:	80 1b       	sub	r24, r16
     be4:	91 0b       	sbc	r25, r17
     be6:	0f b6       	in	r0, 0x3f	; 63
     be8:	f8 94       	cli
     bea:	9e bf       	out	0x3e, r25	; 62
     bec:	0f be       	out	0x3f, r0	; 63
     bee:	8d bf       	out	0x3d, r24	; 61
     bf0:	ed b7       	in	r30, 0x3d	; 61
     bf2:	fe b7       	in	r31, 0x3e	; 62
     bf4:	31 96       	adiw	r30, 0x01	; 1
     bf6:	6f 01       	movw	r12, r30
     bf8:	80 91 e8 00 	lds	r24, 0x00E8
     bfc:	87 7f       	andi	r24, 0xF7	; 247
     bfe:	80 93 e8 00 	sts	0x00E8, r24
     c02:	b8 01       	movw	r22, r16
     c04:	cf 01       	movw	r24, r30
     c06:	02 d2       	rcall	.+1028   	; 0x100c <Endpoint_Read_Control_Stream_LE>
     c08:	80 91 e8 00 	lds	r24, 0x00E8
     c0c:	8e 77       	andi	r24, 0x7E	; 126
     c0e:	80 93 e8 00 	sts	0x00E8, r24
     c12:	21 e0       	ldi	r18, 0x01	; 1
     c14:	71 10       	cpse	r7, r1
     c16:	01 c0       	rjmp	.+2      	; 0xc1a <__stack+0x11b>
     c18:	20 e0       	ldi	r18, 0x00	; 0
     c1a:	30 e0       	ldi	r19, 0x00	; 0
     c1c:	02 1b       	sub	r16, r18
     c1e:	13 0b       	sbc	r17, r19
     c20:	2c 0d       	add	r18, r12
     c22:	3d 1d       	adc	r19, r13
     c24:	4f ef       	ldi	r20, 0xFF	; 255
     c26:	46 0d       	add	r20, r6
     c28:	67 2d       	mov	r22, r7
     c2a:	c7 01       	movw	r24, r14
     c2c:	cc dd       	rcall	.-1128   	; 0x7c6 <CALLBACK_HID_Device_ProcessHIDReport>
     c2e:	0f b6       	in	r0, 0x3f	; 63
     c30:	f8 94       	cli
     c32:	9e be       	out	0x3e, r9	; 62
     c34:	0f be       	out	0x3f, r0	; 63
     c36:	8d be       	out	0x3d, r8	; 61
     c38:	59 c0       	rjmp	.+178    	; 0xcec <__stack+0x1ed>
     c3a:	80 91 49 02 	lds	r24, 0x0249
     c3e:	81 3a       	cpi	r24, 0xA1	; 161
     c40:	09 f0       	breq	.+2      	; 0xc44 <__stack+0x145>
     c42:	54 c0       	rjmp	.+168    	; 0xcec <__stack+0x1ed>
     c44:	80 91 e8 00 	lds	r24, 0x00E8
     c48:	87 7f       	andi	r24, 0xF7	; 247
     c4a:	80 93 e8 00 	sts	0x00E8, r24
     c4e:	80 91 e8 00 	lds	r24, 0x00E8
     c52:	80 ff       	sbrs	r24, 0
     c54:	fc cf       	rjmp	.-8      	; 0xc4e <__stack+0x14f>
     c56:	f7 01       	movw	r30, r14
     c58:	81 85       	ldd	r24, Z+9	; 0x09
     c5a:	40 c0       	rjmp	.+128    	; 0xcdc <__stack+0x1dd>
     c5c:	80 91 49 02 	lds	r24, 0x0249
     c60:	81 32       	cpi	r24, 0x21	; 33
     c62:	09 f0       	breq	.+2      	; 0xc66 <__stack+0x167>
     c64:	43 c0       	rjmp	.+134    	; 0xcec <__stack+0x1ed>
     c66:	80 91 e8 00 	lds	r24, 0x00E8
     c6a:	87 7f       	andi	r24, 0xF7	; 247
     c6c:	80 93 e8 00 	sts	0x00E8, r24
     c70:	e1 d2       	rcall	.+1474   	; 0x1234 <Endpoint_ClearStatusStage>
     c72:	90 91 4b 02 	lds	r25, 0x024B
     c76:	81 e0       	ldi	r24, 0x01	; 1
     c78:	91 11       	cpse	r25, r1
     c7a:	01 c0       	rjmp	.+2      	; 0xc7e <__stack+0x17f>
     c7c:	80 e0       	ldi	r24, 0x00	; 0
     c7e:	f7 01       	movw	r30, r14
     c80:	81 87       	std	Z+9, r24	; 0x09
     c82:	34 c0       	rjmp	.+104    	; 0xcec <__stack+0x1ed>
     c84:	80 91 49 02 	lds	r24, 0x0249
     c88:	81 32       	cpi	r24, 0x21	; 33
     c8a:	81 f5       	brne	.+96     	; 0xcec <__stack+0x1ed>
     c8c:	80 91 e8 00 	lds	r24, 0x00E8
     c90:	87 7f       	andi	r24, 0xF7	; 247
     c92:	80 93 e8 00 	sts	0x00E8, r24
     c96:	ce d2       	rcall	.+1436   	; 0x1234 <Endpoint_ClearStatusStage>
     c98:	80 91 4b 02 	lds	r24, 0x024B
     c9c:	90 91 4c 02 	lds	r25, 0x024C
     ca0:	88 27       	eor	r24, r24
     ca2:	36 e0       	ldi	r19, 0x06	; 6
     ca4:	96 95       	lsr	r25
     ca6:	87 95       	ror	r24
     ca8:	3a 95       	dec	r19
     caa:	e1 f7       	brne	.-8      	; 0xca4 <__stack+0x1a5>
     cac:	f7 01       	movw	r30, r14
     cae:	95 87       	std	Z+13, r25	; 0x0d
     cb0:	84 87       	std	Z+12, r24	; 0x0c
     cb2:	1c c0       	rjmp	.+56     	; 0xcec <__stack+0x1ed>
     cb4:	80 91 49 02 	lds	r24, 0x0249
     cb8:	81 3a       	cpi	r24, 0xA1	; 161
     cba:	c1 f4       	brne	.+48     	; 0xcec <__stack+0x1ed>
     cbc:	80 91 e8 00 	lds	r24, 0x00E8
     cc0:	87 7f       	andi	r24, 0xF7	; 247
     cc2:	80 93 e8 00 	sts	0x00E8, r24
     cc6:	80 91 e8 00 	lds	r24, 0x00E8
     cca:	80 ff       	sbrs	r24, 0
     ccc:	fc cf       	rjmp	.-8      	; 0xcc6 <__stack+0x1c7>
     cce:	f7 01       	movw	r30, r14
     cd0:	84 85       	ldd	r24, Z+12	; 0x0c
     cd2:	95 85       	ldd	r25, Z+13	; 0x0d
     cd4:	96 95       	lsr	r25
     cd6:	87 95       	ror	r24
     cd8:	96 95       	lsr	r25
     cda:	87 95       	ror	r24
     cdc:	80 93 f1 00 	sts	0x00F1, r24
     ce0:	80 91 e8 00 	lds	r24, 0x00E8
     ce4:	8e 77       	andi	r24, 0x7E	; 126
     ce6:	80 93 e8 00 	sts	0x00E8, r24
     cea:	a4 d2       	rcall	.+1352   	; 0x1234 <Endpoint_ClearStatusStage>
     cec:	0f b6       	in	r0, 0x3f	; 63
     cee:	f8 94       	cli
     cf0:	be be       	out	0x3e, r11	; 62
     cf2:	0f be       	out	0x3f, r0	; 63
     cf4:	ad be       	out	0x3d, r10	; 61
     cf6:	0f 90       	pop	r0
     cf8:	0f 90       	pop	r0
     cfa:	0f 90       	pop	r0
     cfc:	df 91       	pop	r29
     cfe:	cf 91       	pop	r28
     d00:	1f 91       	pop	r17
     d02:	0f 91       	pop	r16
     d04:	ff 90       	pop	r15
     d06:	ef 90       	pop	r14
     d08:	df 90       	pop	r13
     d0a:	cf 90       	pop	r12
     d0c:	bf 90       	pop	r11
     d0e:	af 90       	pop	r10
     d10:	9f 90       	pop	r9
     d12:	8f 90       	pop	r8
     d14:	7f 90       	pop	r7
     d16:	6f 90       	pop	r6
     d18:	08 95       	ret

00000d1a <HID_Device_ConfigureEndpoints>:
     d1a:	fc 01       	movw	r30, r24
     d1c:	39 96       	adiw	r30, 0x09	; 9
     d1e:	27 e0       	ldi	r18, 0x07	; 7
     d20:	df 01       	movw	r26, r30
     d22:	1d 92       	st	X+, r1
     d24:	2a 95       	dec	r18
     d26:	e9 f7       	brne	.-6      	; 0xd22 <HID_Device_ConfigureEndpoints+0x8>
     d28:	21 e0       	ldi	r18, 0x01	; 1
     d2a:	fc 01       	movw	r30, r24
     d2c:	21 87       	std	Z+9, r18	; 0x09
     d2e:	24 ef       	ldi	r18, 0xF4	; 244
     d30:	31 e0       	ldi	r19, 0x01	; 1
     d32:	35 87       	std	Z+13, r19	; 0x0d
     d34:	24 87       	std	Z+12, r18	; 0x0c
     d36:	23 e0       	ldi	r18, 0x03	; 3
     d38:	24 83       	std	Z+4, r18	; 0x04
     d3a:	61 e0       	ldi	r22, 0x01	; 1
     d3c:	01 96       	adiw	r24, 0x01	; 1
     d3e:	3d c2       	rjmp	.+1146   	; 0x11ba <Endpoint_ConfigureEndpointTable>

00000d40 <HID_Device_USBTask>:
     d40:	5f 92       	push	r5
     d42:	6f 92       	push	r6
     d44:	7f 92       	push	r7
     d46:	8f 92       	push	r8
     d48:	9f 92       	push	r9
     d4a:	af 92       	push	r10
     d4c:	bf 92       	push	r11
     d4e:	cf 92       	push	r12
     d50:	df 92       	push	r13
     d52:	ef 92       	push	r14
     d54:	ff 92       	push	r15
     d56:	0f 93       	push	r16
     d58:	1f 93       	push	r17
     d5a:	cf 93       	push	r28
     d5c:	df 93       	push	r29
     d5e:	00 d0       	rcall	.+0      	; 0xd60 <HID_Device_USBTask+0x20>
     d60:	1f 92       	push	r1
     d62:	cd b7       	in	r28, 0x3d	; 61
     d64:	de b7       	in	r29, 0x3e	; 62
     d66:	7c 01       	movw	r14, r24
     d68:	ad b6       	in	r10, 0x3d	; 61
     d6a:	be b6       	in	r11, 0x3e	; 62
     d6c:	80 91 48 02 	lds	r24, 0x0248
     d70:	84 30       	cpi	r24, 0x04	; 4
     d72:	09 f0       	breq	.+2      	; 0xd76 <HID_Device_USBTask+0x36>
     d74:	8a c0       	rjmp	.+276    	; 0xe8a <HID_Device_USBTask+0x14a>
     d76:	80 91 e4 00 	lds	r24, 0x00E4
     d7a:	90 91 e5 00 	lds	r25, 0x00E5
     d7e:	f7 01       	movw	r30, r14
     d80:	22 85       	ldd	r18, Z+10	; 0x0a
     d82:	33 85       	ldd	r19, Z+11	; 0x0b
     d84:	28 17       	cp	r18, r24
     d86:	39 07       	cpc	r19, r25
     d88:	09 f4       	brne	.+2      	; 0xd8c <HID_Device_USBTask+0x4c>
     d8a:	7f c0       	rjmp	.+254    	; 0xe8a <HID_Device_USBTask+0x14a>
     d8c:	81 81       	ldd	r24, Z+1	; 0x01
     d8e:	8f 70       	andi	r24, 0x0F	; 15
     d90:	80 93 e9 00 	sts	0x00E9, r24
     d94:	80 91 e8 00 	lds	r24, 0x00E8
     d98:	85 ff       	sbrs	r24, 5
     d9a:	77 c0       	rjmp	.+238    	; 0xe8a <HID_Device_USBTask+0x14a>
     d9c:	8d b6       	in	r8, 0x3d	; 61
     d9e:	9e b6       	in	r9, 0x3e	; 62
     da0:	40 85       	ldd	r20, Z+8	; 0x08
     da2:	50 e0       	ldi	r21, 0x00	; 0
     da4:	8d b7       	in	r24, 0x3d	; 61
     da6:	9e b7       	in	r25, 0x3e	; 62
     da8:	84 1b       	sub	r24, r20
     daa:	95 0b       	sbc	r25, r21
     dac:	0f b6       	in	r0, 0x3f	; 63
     dae:	f8 94       	cli
     db0:	9e bf       	out	0x3e, r25	; 62
     db2:	0f be       	out	0x3f, r0	; 63
     db4:	8d bf       	out	0x3d, r24	; 61
     db6:	ed b7       	in	r30, 0x3d	; 61
     db8:	fe b7       	in	r31, 0x3e	; 62
     dba:	31 96       	adiw	r30, 0x01	; 1
     dbc:	6f 01       	movw	r12, r30
     dbe:	1b 82       	std	Y+3, r1	; 0x03
     dc0:	1a 82       	std	Y+2, r1	; 0x02
     dc2:	19 82       	std	Y+1, r1	; 0x01
     dc4:	60 e0       	ldi	r22, 0x00	; 0
     dc6:	70 e0       	ldi	r23, 0x00	; 0
     dc8:	cf 01       	movw	r24, r30
     dca:	ac d5       	rcall	.+2904   	; 0x1924 <memset>
     dcc:	8e 01       	movw	r16, r28
     dce:	0f 5f       	subi	r16, 0xFF	; 255
     dd0:	1f 4f       	sbci	r17, 0xFF	; 255
     dd2:	96 01       	movw	r18, r12
     dd4:	40 e0       	ldi	r20, 0x00	; 0
     dd6:	be 01       	movw	r22, r28
     dd8:	6d 5f       	subi	r22, 0xFD	; 253
     dda:	7f 4f       	sbci	r23, 0xFF	; 255
     ddc:	c7 01       	movw	r24, r14
     dde:	d2 dc       	rcall	.-1628   	; 0x784 <CALLBACK_HID_Device_CreateHIDReport>
     de0:	68 2e       	mov	r6, r24
     de2:	f7 01       	movw	r30, r14
     de4:	84 85       	ldd	r24, Z+12	; 0x0c
     de6:	95 85       	ldd	r25, Z+13	; 0x0d
     de8:	89 2b       	or	r24, r25
     dea:	41 f0       	breq	.+16     	; 0xdfc <HID_Device_USBTask+0xbc>
     dec:	21 e0       	ldi	r18, 0x01	; 1
     dee:	86 85       	ldd	r24, Z+14	; 0x0e
     df0:	97 85       	ldd	r25, Z+15	; 0x0f
     df2:	89 2b       	or	r24, r25
     df4:	09 f0       	breq	.+2      	; 0xdf8 <HID_Device_USBTask+0xb8>
     df6:	20 e0       	ldi	r18, 0x00	; 0
     df8:	72 2e       	mov	r7, r18
     dfa:	01 c0       	rjmp	.+2      	; 0xdfe <HID_Device_USBTask+0xbe>
     dfc:	71 2c       	mov	r7, r1
     dfe:	f7 01       	movw	r30, r14
     e00:	06 81       	ldd	r16, Z+6	; 0x06
     e02:	17 81       	ldd	r17, Z+7	; 0x07
     e04:	01 15       	cp	r16, r1
     e06:	11 05       	cpc	r17, r1
     e08:	89 f0       	breq	.+34     	; 0xe2c <HID_Device_USBTask+0xec>
     e0a:	49 81       	ldd	r20, Y+1	; 0x01
     e0c:	5a 81       	ldd	r21, Y+2	; 0x02
     e0e:	b8 01       	movw	r22, r16
     e10:	c6 01       	movw	r24, r12
     e12:	72 d5       	rcall	.+2788   	; 0x18f8 <memcmp>
     e14:	55 24       	eor	r5, r5
     e16:	53 94       	inc	r5
     e18:	89 2b       	or	r24, r25
     e1a:	09 f4       	brne	.+2      	; 0xe1e <HID_Device_USBTask+0xde>
     e1c:	51 2c       	mov	r5, r1
     e1e:	f7 01       	movw	r30, r14
     e20:	40 85       	ldd	r20, Z+8	; 0x08
     e22:	50 e0       	ldi	r21, 0x00	; 0
     e24:	b6 01       	movw	r22, r12
     e26:	c8 01       	movw	r24, r16
     e28:	74 d5       	rcall	.+2792   	; 0x1912 <memcpy>
     e2a:	01 c0       	rjmp	.+2      	; 0xe2e <HID_Device_USBTask+0xee>
     e2c:	51 2c       	mov	r5, r1
     e2e:	29 81       	ldd	r18, Y+1	; 0x01
     e30:	3a 81       	ldd	r19, Y+2	; 0x02
     e32:	23 2b       	or	r18, r19
     e34:	f1 f0       	breq	.+60     	; 0xe72 <HID_Device_USBTask+0x132>
     e36:	61 10       	cpse	r6, r1
     e38:	04 c0       	rjmp	.+8      	; 0xe42 <HID_Device_USBTask+0x102>
     e3a:	51 10       	cpse	r5, r1
     e3c:	02 c0       	rjmp	.+4      	; 0xe42 <HID_Device_USBTask+0x102>
     e3e:	70 fe       	sbrs	r7, 0
     e40:	18 c0       	rjmp	.+48     	; 0xe72 <HID_Device_USBTask+0x132>
     e42:	f7 01       	movw	r30, r14
     e44:	84 85       	ldd	r24, Z+12	; 0x0c
     e46:	95 85       	ldd	r25, Z+13	; 0x0d
     e48:	97 87       	std	Z+15, r25	; 0x0f
     e4a:	86 87       	std	Z+14, r24	; 0x0e
     e4c:	81 81       	ldd	r24, Z+1	; 0x01
     e4e:	8f 70       	andi	r24, 0x0F	; 15
     e50:	80 93 e9 00 	sts	0x00E9, r24
     e54:	8b 81       	ldd	r24, Y+3	; 0x03
     e56:	81 11       	cpse	r24, r1
     e58:	80 93 f1 00 	sts	0x00F1, r24
     e5c:	69 81       	ldd	r22, Y+1	; 0x01
     e5e:	7a 81       	ldd	r23, Y+2	; 0x02
     e60:	40 e0       	ldi	r20, 0x00	; 0
     e62:	50 e0       	ldi	r21, 0x00	; 0
     e64:	c6 01       	movw	r24, r12
     e66:	29 d0       	rcall	.+82     	; 0xeba <Endpoint_Write_Stream_LE>
     e68:	80 91 e8 00 	lds	r24, 0x00E8
     e6c:	8e 77       	andi	r24, 0x7E	; 126
     e6e:	80 93 e8 00 	sts	0x00E8, r24
     e72:	80 91 e4 00 	lds	r24, 0x00E4
     e76:	90 91 e5 00 	lds	r25, 0x00E5
     e7a:	f7 01       	movw	r30, r14
     e7c:	93 87       	std	Z+11, r25	; 0x0b
     e7e:	82 87       	std	Z+10, r24	; 0x0a
     e80:	0f b6       	in	r0, 0x3f	; 63
     e82:	f8 94       	cli
     e84:	9e be       	out	0x3e, r9	; 62
     e86:	0f be       	out	0x3f, r0	; 63
     e88:	8d be       	out	0x3d, r8	; 61
     e8a:	0f b6       	in	r0, 0x3f	; 63
     e8c:	f8 94       	cli
     e8e:	be be       	out	0x3e, r11	; 62
     e90:	0f be       	out	0x3f, r0	; 63
     e92:	ad be       	out	0x3d, r10	; 61
     e94:	0f 90       	pop	r0
     e96:	0f 90       	pop	r0
     e98:	0f 90       	pop	r0
     e9a:	df 91       	pop	r29
     e9c:	cf 91       	pop	r28
     e9e:	1f 91       	pop	r17
     ea0:	0f 91       	pop	r16
     ea2:	ff 90       	pop	r15
     ea4:	ef 90       	pop	r14
     ea6:	df 90       	pop	r13
     ea8:	cf 90       	pop	r12
     eaa:	bf 90       	pop	r11
     eac:	af 90       	pop	r10
     eae:	9f 90       	pop	r9
     eb0:	8f 90       	pop	r8
     eb2:	7f 90       	pop	r7
     eb4:	6f 90       	pop	r6
     eb6:	5f 90       	pop	r5
     eb8:	08 95       	ret

00000eba <Endpoint_Write_Stream_LE>:
     eba:	cf 92       	push	r12
     ebc:	df 92       	push	r13
     ebe:	ef 92       	push	r14
     ec0:	ff 92       	push	r15
     ec2:	0f 93       	push	r16
     ec4:	1f 93       	push	r17
     ec6:	cf 93       	push	r28
     ec8:	df 93       	push	r29
     eca:	7c 01       	movw	r14, r24
     ecc:	8b 01       	movw	r16, r22
     ece:	ea 01       	movw	r28, r20
     ed0:	d2 d1       	rcall	.+932    	; 0x1276 <Endpoint_WaitUntilReady>
     ed2:	81 11       	cpse	r24, r1
     ed4:	31 c0       	rjmp	.+98     	; 0xf38 <Endpoint_Write_Stream_LE+0x7e>
     ed6:	20 97       	sbiw	r28, 0x00	; 0
     ed8:	31 f0       	breq	.+12     	; 0xee6 <Endpoint_Write_Stream_LE+0x2c>
     eda:	88 81       	ld	r24, Y
     edc:	99 81       	ldd	r25, Y+1	; 0x01
     ede:	08 1b       	sub	r16, r24
     ee0:	19 0b       	sbc	r17, r25
     ee2:	e8 0e       	add	r14, r24
     ee4:	f9 1e       	adc	r15, r25
     ee6:	c1 2c       	mov	r12, r1
     ee8:	d1 2c       	mov	r13, r1
     eea:	01 15       	cp	r16, r1
     eec:	11 05       	cpc	r17, r1
     eee:	19 f1       	breq	.+70     	; 0xf36 <Endpoint_Write_Stream_LE+0x7c>
     ef0:	80 91 e8 00 	lds	r24, 0x00E8
     ef4:	85 fd       	sbrc	r24, 5
     ef6:	14 c0       	rjmp	.+40     	; 0xf20 <Endpoint_Write_Stream_LE+0x66>
     ef8:	80 91 e8 00 	lds	r24, 0x00E8
     efc:	8e 77       	andi	r24, 0x7E	; 126
     efe:	80 93 e8 00 	sts	0x00E8, r24
     f02:	5d d4       	rcall	.+2234   	; 0x17be <USB_USBTask>
     f04:	20 97       	sbiw	r28, 0x00	; 0
     f06:	41 f0       	breq	.+16     	; 0xf18 <Endpoint_Write_Stream_LE+0x5e>
     f08:	88 81       	ld	r24, Y
     f0a:	99 81       	ldd	r25, Y+1	; 0x01
     f0c:	8c 0d       	add	r24, r12
     f0e:	9d 1d       	adc	r25, r13
     f10:	99 83       	std	Y+1, r25	; 0x01
     f12:	88 83       	st	Y, r24
     f14:	85 e0       	ldi	r24, 0x05	; 5
     f16:	10 c0       	rjmp	.+32     	; 0xf38 <Endpoint_Write_Stream_LE+0x7e>
     f18:	ae d1       	rcall	.+860    	; 0x1276 <Endpoint_WaitUntilReady>
     f1a:	88 23       	and	r24, r24
     f1c:	31 f3       	breq	.-52     	; 0xeea <Endpoint_Write_Stream_LE+0x30>
     f1e:	0c c0       	rjmp	.+24     	; 0xf38 <Endpoint_Write_Stream_LE+0x7e>
     f20:	f7 01       	movw	r30, r14
     f22:	81 91       	ld	r24, Z+
     f24:	7f 01       	movw	r14, r30
     f26:	80 93 f1 00 	sts	0x00F1, r24
     f2a:	01 50       	subi	r16, 0x01	; 1
     f2c:	11 09       	sbc	r17, r1
     f2e:	ff ef       	ldi	r31, 0xFF	; 255
     f30:	cf 1a       	sub	r12, r31
     f32:	df 0a       	sbc	r13, r31
     f34:	da cf       	rjmp	.-76     	; 0xeea <Endpoint_Write_Stream_LE+0x30>
     f36:	80 e0       	ldi	r24, 0x00	; 0
     f38:	df 91       	pop	r29
     f3a:	cf 91       	pop	r28
     f3c:	1f 91       	pop	r17
     f3e:	0f 91       	pop	r16
     f40:	ff 90       	pop	r15
     f42:	ef 90       	pop	r14
     f44:	df 90       	pop	r13
     f46:	cf 90       	pop	r12
     f48:	08 95       	ret

00000f4a <Endpoint_Write_Control_Stream_LE>:
     f4a:	20 91 4f 02 	lds	r18, 0x024F
     f4e:	30 91 50 02 	lds	r19, 0x0250
     f52:	26 17       	cp	r18, r22
     f54:	37 07       	cpc	r19, r23
     f56:	48 f0       	brcs	.+18     	; 0xf6a <Endpoint_Write_Control_Stream_LE+0x20>
     f58:	61 15       	cp	r22, r1
     f5a:	71 05       	cpc	r23, r1
     f5c:	39 f4       	brne	.+14     	; 0xf6c <Endpoint_Write_Control_Stream_LE+0x22>
     f5e:	20 91 e8 00 	lds	r18, 0x00E8
     f62:	2e 77       	andi	r18, 0x7E	; 126
     f64:	20 93 e8 00 	sts	0x00E8, r18
     f68:	01 c0       	rjmp	.+2      	; 0xf6c <Endpoint_Write_Control_Stream_LE+0x22>
     f6a:	b9 01       	movw	r22, r18
     f6c:	fc 01       	movw	r30, r24
     f6e:	20 e0       	ldi	r18, 0x00	; 0
     f70:	61 15       	cp	r22, r1
     f72:	71 05       	cpc	r23, r1
     f74:	b9 f1       	breq	.+110    	; 0xfe4 <Endpoint_Write_Control_Stream_LE+0x9a>
     f76:	80 91 48 02 	lds	r24, 0x0248
     f7a:	88 23       	and	r24, r24
     f7c:	09 f4       	brne	.+2      	; 0xf80 <Endpoint_Write_Control_Stream_LE+0x36>
     f7e:	40 c0       	rjmp	.+128    	; 0x1000 <Endpoint_Write_Control_Stream_LE+0xb6>
     f80:	85 30       	cpi	r24, 0x05	; 5
     f82:	09 f4       	brne	.+2      	; 0xf86 <Endpoint_Write_Control_Stream_LE+0x3c>
     f84:	3f c0       	rjmp	.+126    	; 0x1004 <Endpoint_Write_Control_Stream_LE+0xba>
     f86:	80 91 e8 00 	lds	r24, 0x00E8
     f8a:	83 fd       	sbrc	r24, 3
     f8c:	3d c0       	rjmp	.+122    	; 0x1008 <Endpoint_Write_Control_Stream_LE+0xbe>
     f8e:	80 91 e8 00 	lds	r24, 0x00E8
     f92:	82 ff       	sbrs	r24, 2
     f94:	06 c0       	rjmp	.+12     	; 0xfa2 <Endpoint_Write_Control_Stream_LE+0x58>
     f96:	80 91 e8 00 	lds	r24, 0x00E8
     f9a:	82 ff       	sbrs	r24, 2
     f9c:	26 c0       	rjmp	.+76     	; 0xfea <Endpoint_Write_Control_Stream_LE+0xa0>
     f9e:	80 e0       	ldi	r24, 0x00	; 0
     fa0:	08 95       	ret
     fa2:	80 91 e8 00 	lds	r24, 0x00E8
     fa6:	80 ff       	sbrs	r24, 0
     fa8:	e3 cf       	rjmp	.-58     	; 0xf70 <Endpoint_Write_Control_Stream_LE+0x26>
     faa:	20 91 f3 00 	lds	r18, 0x00F3
     fae:	80 91 f2 00 	lds	r24, 0x00F2
     fb2:	90 e0       	ldi	r25, 0x00	; 0
     fb4:	92 2b       	or	r25, r18
     fb6:	61 15       	cp	r22, r1
     fb8:	71 05       	cpc	r23, r1
     fba:	51 f0       	breq	.+20     	; 0xfd0 <Endpoint_Write_Control_Stream_LE+0x86>
     fbc:	88 30       	cpi	r24, 0x08	; 8
     fbe:	91 05       	cpc	r25, r1
     fc0:	38 f4       	brcc	.+14     	; 0xfd0 <Endpoint_Write_Control_Stream_LE+0x86>
     fc2:	21 91       	ld	r18, Z+
     fc4:	20 93 f1 00 	sts	0x00F1, r18
     fc8:	61 50       	subi	r22, 0x01	; 1
     fca:	71 09       	sbc	r23, r1
     fcc:	01 96       	adiw	r24, 0x01	; 1
     fce:	f3 cf       	rjmp	.-26     	; 0xfb6 <Endpoint_Write_Control_Stream_LE+0x6c>
     fd0:	21 e0       	ldi	r18, 0x01	; 1
     fd2:	08 97       	sbiw	r24, 0x08	; 8
     fd4:	09 f0       	breq	.+2      	; 0xfd8 <Endpoint_Write_Control_Stream_LE+0x8e>
     fd6:	20 e0       	ldi	r18, 0x00	; 0
     fd8:	80 91 e8 00 	lds	r24, 0x00E8
     fdc:	8e 77       	andi	r24, 0x7E	; 126
     fde:	80 93 e8 00 	sts	0x00E8, r24
     fe2:	c6 cf       	rjmp	.-116    	; 0xf70 <Endpoint_Write_Control_Stream_LE+0x26>
     fe4:	21 11       	cpse	r18, r1
     fe6:	c7 cf       	rjmp	.-114    	; 0xf76 <Endpoint_Write_Control_Stream_LE+0x2c>
     fe8:	d6 cf       	rjmp	.-84     	; 0xf96 <Endpoint_Write_Control_Stream_LE+0x4c>
     fea:	80 91 48 02 	lds	r24, 0x0248
     fee:	88 23       	and	r24, r24
     ff0:	39 f0       	breq	.+14     	; 0x1000 <Endpoint_Write_Control_Stream_LE+0xb6>
     ff2:	85 30       	cpi	r24, 0x05	; 5
     ff4:	39 f0       	breq	.+14     	; 0x1004 <Endpoint_Write_Control_Stream_LE+0xba>
     ff6:	80 91 e8 00 	lds	r24, 0x00E8
     ffa:	83 ff       	sbrs	r24, 3
     ffc:	cc cf       	rjmp	.-104    	; 0xf96 <Endpoint_Write_Control_Stream_LE+0x4c>
     ffe:	04 c0       	rjmp	.+8      	; 0x1008 <Endpoint_Write_Control_Stream_LE+0xbe>
    1000:	82 e0       	ldi	r24, 0x02	; 2
    1002:	08 95       	ret
    1004:	83 e0       	ldi	r24, 0x03	; 3
    1006:	08 95       	ret
    1008:	81 e0       	ldi	r24, 0x01	; 1
    100a:	08 95       	ret

0000100c <Endpoint_Read_Control_Stream_LE>:
    100c:	61 15       	cp	r22, r1
    100e:	71 05       	cpc	r23, r1
    1010:	29 f4       	brne	.+10     	; 0x101c <Endpoint_Read_Control_Stream_LE+0x10>
    1012:	20 91 e8 00 	lds	r18, 0x00E8
    1016:	2b 77       	andi	r18, 0x7B	; 123
    1018:	20 93 e8 00 	sts	0x00E8, r18
    101c:	61 15       	cp	r22, r1
    101e:	71 05       	cpc	r23, r1
    1020:	41 f1       	breq	.+80     	; 0x1072 <Endpoint_Read_Control_Stream_LE+0x66>
    1022:	20 91 48 02 	lds	r18, 0x0248
    1026:	22 23       	and	r18, r18
    1028:	69 f1       	breq	.+90     	; 0x1084 <Endpoint_Read_Control_Stream_LE+0x78>
    102a:	25 30       	cpi	r18, 0x05	; 5
    102c:	69 f1       	breq	.+90     	; 0x1088 <Endpoint_Read_Control_Stream_LE+0x7c>
    102e:	20 91 e8 00 	lds	r18, 0x00E8
    1032:	23 fd       	sbrc	r18, 3
    1034:	23 c0       	rjmp	.+70     	; 0x107c <Endpoint_Read_Control_Stream_LE+0x70>
    1036:	20 91 e8 00 	lds	r18, 0x00E8
    103a:	22 ff       	sbrs	r18, 2
    103c:	f2 cf       	rjmp	.-28     	; 0x1022 <Endpoint_Read_Control_Stream_LE+0x16>
    103e:	fc 01       	movw	r30, r24
    1040:	cf 01       	movw	r24, r30
    1042:	40 91 f3 00 	lds	r20, 0x00F3
    1046:	20 91 f2 00 	lds	r18, 0x00F2
    104a:	30 e0       	ldi	r19, 0x00	; 0
    104c:	34 2b       	or	r19, r20
    104e:	23 2b       	or	r18, r19
    1050:	01 f3       	breq	.-64     	; 0x1012 <Endpoint_Read_Control_Stream_LE+0x6>
    1052:	80 91 f1 00 	lds	r24, 0x00F1
    1056:	81 93       	st	Z+, r24
    1058:	cf 01       	movw	r24, r30
    105a:	61 50       	subi	r22, 0x01	; 1
    105c:	71 09       	sbc	r23, r1
    105e:	61 15       	cp	r22, r1
    1060:	71 05       	cpc	r23, r1
    1062:	71 f7       	brne	.-36     	; 0x1040 <Endpoint_Read_Control_Stream_LE+0x34>
    1064:	d6 cf       	rjmp	.-84     	; 0x1012 <Endpoint_Read_Control_Stream_LE+0x6>
    1066:	80 91 48 02 	lds	r24, 0x0248
    106a:	88 23       	and	r24, r24
    106c:	59 f0       	breq	.+22     	; 0x1084 <Endpoint_Read_Control_Stream_LE+0x78>
    106e:	85 30       	cpi	r24, 0x05	; 5
    1070:	59 f0       	breq	.+22     	; 0x1088 <Endpoint_Read_Control_Stream_LE+0x7c>
    1072:	80 91 e8 00 	lds	r24, 0x00E8
    1076:	80 ff       	sbrs	r24, 0
    1078:	f6 cf       	rjmp	.-20     	; 0x1066 <Endpoint_Read_Control_Stream_LE+0x5a>
    107a:	02 c0       	rjmp	.+4      	; 0x1080 <Endpoint_Read_Control_Stream_LE+0x74>
    107c:	81 e0       	ldi	r24, 0x01	; 1
    107e:	08 95       	ret
    1080:	80 e0       	ldi	r24, 0x00	; 0
    1082:	08 95       	ret
    1084:	82 e0       	ldi	r24, 0x02	; 2
    1086:	08 95       	ret
    1088:	83 e0       	ldi	r24, 0x03	; 3
    108a:	08 95       	ret

0000108c <Endpoint_Write_Control_PStream_LE>:
    108c:	20 91 4f 02 	lds	r18, 0x024F
    1090:	30 91 50 02 	lds	r19, 0x0250
    1094:	26 17       	cp	r18, r22
    1096:	37 07       	cpc	r19, r23
    1098:	48 f0       	brcs	.+18     	; 0x10ac <Endpoint_Write_Control_PStream_LE+0x20>
    109a:	61 15       	cp	r22, r1
    109c:	71 05       	cpc	r23, r1
    109e:	39 f4       	brne	.+14     	; 0x10ae <Endpoint_Write_Control_PStream_LE+0x22>
    10a0:	20 91 e8 00 	lds	r18, 0x00E8
    10a4:	2e 77       	andi	r18, 0x7E	; 126
    10a6:	20 93 e8 00 	sts	0x00E8, r18
    10aa:	01 c0       	rjmp	.+2      	; 0x10ae <Endpoint_Write_Control_PStream_LE+0x22>
    10ac:	b9 01       	movw	r22, r18
    10ae:	fc 01       	movw	r30, r24
    10b0:	20 e0       	ldi	r18, 0x00	; 0
    10b2:	61 15       	cp	r22, r1
    10b4:	71 05       	cpc	r23, r1
    10b6:	c1 f1       	breq	.+112    	; 0x1128 <Endpoint_Write_Control_PStream_LE+0x9c>
    10b8:	80 91 48 02 	lds	r24, 0x0248
    10bc:	88 23       	and	r24, r24
    10be:	09 f4       	brne	.+2      	; 0x10c2 <Endpoint_Write_Control_PStream_LE+0x36>
    10c0:	41 c0       	rjmp	.+130    	; 0x1144 <Endpoint_Write_Control_PStream_LE+0xb8>
    10c2:	85 30       	cpi	r24, 0x05	; 5
    10c4:	09 f4       	brne	.+2      	; 0x10c8 <Endpoint_Write_Control_PStream_LE+0x3c>
    10c6:	40 c0       	rjmp	.+128    	; 0x1148 <Endpoint_Write_Control_PStream_LE+0xbc>
    10c8:	80 91 e8 00 	lds	r24, 0x00E8
    10cc:	83 fd       	sbrc	r24, 3
    10ce:	3e c0       	rjmp	.+124    	; 0x114c <Endpoint_Write_Control_PStream_LE+0xc0>
    10d0:	80 91 e8 00 	lds	r24, 0x00E8
    10d4:	82 ff       	sbrs	r24, 2
    10d6:	06 c0       	rjmp	.+12     	; 0x10e4 <Endpoint_Write_Control_PStream_LE+0x58>
    10d8:	80 91 e8 00 	lds	r24, 0x00E8
    10dc:	82 ff       	sbrs	r24, 2
    10de:	27 c0       	rjmp	.+78     	; 0x112e <Endpoint_Write_Control_PStream_LE+0xa2>
    10e0:	80 e0       	ldi	r24, 0x00	; 0
    10e2:	08 95       	ret
    10e4:	80 91 e8 00 	lds	r24, 0x00E8
    10e8:	80 ff       	sbrs	r24, 0
    10ea:	e3 cf       	rjmp	.-58     	; 0x10b2 <Endpoint_Write_Control_PStream_LE+0x26>
    10ec:	20 91 f3 00 	lds	r18, 0x00F3
    10f0:	80 91 f2 00 	lds	r24, 0x00F2
    10f4:	90 e0       	ldi	r25, 0x00	; 0
    10f6:	92 2b       	or	r25, r18
    10f8:	61 15       	cp	r22, r1
    10fa:	71 05       	cpc	r23, r1
    10fc:	59 f0       	breq	.+22     	; 0x1114 <Endpoint_Write_Control_PStream_LE+0x88>
    10fe:	88 30       	cpi	r24, 0x08	; 8
    1100:	91 05       	cpc	r25, r1
    1102:	40 f4       	brcc	.+16     	; 0x1114 <Endpoint_Write_Control_PStream_LE+0x88>
    1104:	24 91       	lpm	r18, Z
    1106:	20 93 f1 00 	sts	0x00F1, r18
    110a:	31 96       	adiw	r30, 0x01	; 1
    110c:	61 50       	subi	r22, 0x01	; 1
    110e:	71 09       	sbc	r23, r1
    1110:	01 96       	adiw	r24, 0x01	; 1
    1112:	f2 cf       	rjmp	.-28     	; 0x10f8 <Endpoint_Write_Control_PStream_LE+0x6c>
    1114:	21 e0       	ldi	r18, 0x01	; 1
    1116:	08 97       	sbiw	r24, 0x08	; 8
    1118:	09 f0       	breq	.+2      	; 0x111c <Endpoint_Write_Control_PStream_LE+0x90>
    111a:	20 e0       	ldi	r18, 0x00	; 0
    111c:	80 91 e8 00 	lds	r24, 0x00E8
    1120:	8e 77       	andi	r24, 0x7E	; 126
    1122:	80 93 e8 00 	sts	0x00E8, r24
    1126:	c5 cf       	rjmp	.-118    	; 0x10b2 <Endpoint_Write_Control_PStream_LE+0x26>
    1128:	21 11       	cpse	r18, r1
    112a:	c6 cf       	rjmp	.-116    	; 0x10b8 <Endpoint_Write_Control_PStream_LE+0x2c>
    112c:	d5 cf       	rjmp	.-86     	; 0x10d8 <Endpoint_Write_Control_PStream_LE+0x4c>
    112e:	80 91 48 02 	lds	r24, 0x0248
    1132:	88 23       	and	r24, r24
    1134:	39 f0       	breq	.+14     	; 0x1144 <Endpoint_Write_Control_PStream_LE+0xb8>
    1136:	85 30       	cpi	r24, 0x05	; 5
    1138:	39 f0       	breq	.+14     	; 0x1148 <Endpoint_Write_Control_PStream_LE+0xbc>
    113a:	80 91 e8 00 	lds	r24, 0x00E8
    113e:	83 ff       	sbrs	r24, 3
    1140:	cb cf       	rjmp	.-106    	; 0x10d8 <Endpoint_Write_Control_PStream_LE+0x4c>
    1142:	04 c0       	rjmp	.+8      	; 0x114c <Endpoint_Write_Control_PStream_LE+0xc0>
    1144:	82 e0       	ldi	r24, 0x02	; 2
    1146:	08 95       	ret
    1148:	83 e0       	ldi	r24, 0x03	; 3
    114a:	08 95       	ret
    114c:	81 e0       	ldi	r24, 0x01	; 1
    114e:	08 95       	ret

00001150 <Endpoint_ConfigureEndpoint_Prv>:
    1150:	98 2f       	mov	r25, r24
    1152:	97 30       	cpi	r25, 0x07	; 7
    1154:	58 f5       	brcc	.+86     	; 0x11ac <Endpoint_ConfigureEndpoint_Prv+0x5c>
    1156:	90 93 e9 00 	sts	0x00E9, r25
    115a:	98 17       	cp	r25, r24
    115c:	39 f0       	breq	.+14     	; 0x116c <Endpoint_ConfigureEndpoint_Prv+0x1c>
    115e:	70 91 ec 00 	lds	r23, 0x00EC
    1162:	20 91 ed 00 	lds	r18, 0x00ED
    1166:	50 91 f0 00 	lds	r21, 0x00F0
    116a:	03 c0       	rjmp	.+6      	; 0x1172 <Endpoint_ConfigureEndpoint_Prv+0x22>
    116c:	24 2f       	mov	r18, r20
    116e:	76 2f       	mov	r23, r22
    1170:	50 e0       	ldi	r21, 0x00	; 0
    1172:	21 ff       	sbrs	r18, 1
    1174:	19 c0       	rjmp	.+50     	; 0x11a8 <Endpoint_ConfigureEndpoint_Prv+0x58>
    1176:	30 91 eb 00 	lds	r19, 0x00EB
    117a:	3e 7f       	andi	r19, 0xFE	; 254
    117c:	30 93 eb 00 	sts	0x00EB, r19
    1180:	30 91 ed 00 	lds	r19, 0x00ED
    1184:	3d 7f       	andi	r19, 0xFD	; 253
    1186:	30 93 ed 00 	sts	0x00ED, r19
    118a:	30 91 eb 00 	lds	r19, 0x00EB
    118e:	31 60       	ori	r19, 0x01	; 1
    1190:	30 93 eb 00 	sts	0x00EB, r19
    1194:	70 93 ec 00 	sts	0x00EC, r23
    1198:	20 93 ed 00 	sts	0x00ED, r18
    119c:	50 93 f0 00 	sts	0x00F0, r21
    11a0:	20 91 ee 00 	lds	r18, 0x00EE
    11a4:	27 ff       	sbrs	r18, 7
    11a6:	07 c0       	rjmp	.+14     	; 0x11b6 <Endpoint_ConfigureEndpoint_Prv+0x66>
    11a8:	9f 5f       	subi	r25, 0xFF	; 255
    11aa:	d3 cf       	rjmp	.-90     	; 0x1152 <Endpoint_ConfigureEndpoint_Prv+0x2>
    11ac:	8f 70       	andi	r24, 0x0F	; 15
    11ae:	80 93 e9 00 	sts	0x00E9, r24
    11b2:	81 e0       	ldi	r24, 0x01	; 1
    11b4:	08 95       	ret
    11b6:	80 e0       	ldi	r24, 0x00	; 0
    11b8:	08 95       	ret

000011ba <Endpoint_ConfigureEndpointTable>:
    11ba:	0f 93       	push	r16
    11bc:	1f 93       	push	r17
    11be:	cf 93       	push	r28
    11c0:	df 93       	push	r29
    11c2:	06 2f       	mov	r16, r22
    11c4:	ec 01       	movw	r28, r24
    11c6:	10 e0       	ldi	r17, 0x00	; 0
    11c8:	10 17       	cp	r17, r16
    11ca:	71 f1       	breq	.+92     	; 0x1228 <Endpoint_ConfigureEndpointTable+0x6e>
    11cc:	98 81       	ld	r25, Y
    11ce:	99 23       	and	r25, r25
    11d0:	41 f1       	breq	.+80     	; 0x1222 <Endpoint_ConfigureEndpointTable+0x68>
    11d2:	2c 81       	ldd	r18, Y+4	; 0x04
    11d4:	e9 81       	ldd	r30, Y+1	; 0x01
    11d6:	fa 81       	ldd	r31, Y+2	; 0x02
    11d8:	7b 81       	ldd	r23, Y+3	; 0x03
    11da:	89 2f       	mov	r24, r25
    11dc:	8f 70       	andi	r24, 0x0F	; 15
    11de:	87 30       	cpi	r24, 0x07	; 7
    11e0:	10 f0       	brcs	.+4      	; 0x11e6 <Endpoint_ConfigureEndpointTable+0x2c>
    11e2:	80 e0       	ldi	r24, 0x00	; 0
    11e4:	22 c0       	rjmp	.+68     	; 0x122a <Endpoint_ConfigureEndpointTable+0x70>
    11e6:	22 30       	cpi	r18, 0x02	; 2
    11e8:	10 f0       	brcs	.+4      	; 0x11ee <Endpoint_ConfigureEndpointTable+0x34>
    11ea:	56 e0       	ldi	r21, 0x06	; 6
    11ec:	01 c0       	rjmp	.+2      	; 0x11f0 <Endpoint_ConfigureEndpointTable+0x36>
    11ee:	52 e0       	ldi	r21, 0x02	; 2
    11f0:	28 e0       	ldi	r18, 0x08	; 8
    11f2:	30 e0       	ldi	r19, 0x00	; 0
    11f4:	40 e0       	ldi	r20, 0x00	; 0
    11f6:	2e 17       	cp	r18, r30
    11f8:	3f 07       	cpc	r19, r31
    11fa:	20 f4       	brcc	.+8      	; 0x1204 <Endpoint_ConfigureEndpointTable+0x4a>
    11fc:	4f 5f       	subi	r20, 0xFF	; 255
    11fe:	22 0f       	add	r18, r18
    1200:	33 1f       	adc	r19, r19
    1202:	f9 cf       	rjmp	.-14     	; 0x11f6 <Endpoint_ConfigureEndpointTable+0x3c>
    1204:	42 95       	swap	r20
    1206:	40 7f       	andi	r20, 0xF0	; 240
    1208:	45 2b       	or	r20, r21
    120a:	69 2f       	mov	r22, r25
    120c:	66 1f       	adc	r22, r22
    120e:	66 27       	eor	r22, r22
    1210:	66 1f       	adc	r22, r22
    1212:	90 e4       	ldi	r25, 0x40	; 64
    1214:	79 9f       	mul	r23, r25
    1216:	90 01       	movw	r18, r0
    1218:	11 24       	eor	r1, r1
    121a:	62 2b       	or	r22, r18
    121c:	99 df       	rcall	.-206    	; 0x1150 <Endpoint_ConfigureEndpoint_Prv>
    121e:	88 23       	and	r24, r24
    1220:	01 f3       	breq	.-64     	; 0x11e2 <Endpoint_ConfigureEndpointTable+0x28>
    1222:	1f 5f       	subi	r17, 0xFF	; 255
    1224:	25 96       	adiw	r28, 0x05	; 5
    1226:	d0 cf       	rjmp	.-96     	; 0x11c8 <Endpoint_ConfigureEndpointTable+0xe>
    1228:	81 e0       	ldi	r24, 0x01	; 1
    122a:	df 91       	pop	r29
    122c:	cf 91       	pop	r28
    122e:	1f 91       	pop	r17
    1230:	0f 91       	pop	r16
    1232:	08 95       	ret

00001234 <Endpoint_ClearStatusStage>:
    1234:	80 91 49 02 	lds	r24, 0x0249
    1238:	87 fd       	sbrc	r24, 7
    123a:	05 c0       	rjmp	.+10     	; 0x1246 <Endpoint_ClearStatusStage+0x12>
    123c:	80 91 e8 00 	lds	r24, 0x00E8
    1240:	80 ff       	sbrs	r24, 0
    1242:	0e c0       	rjmp	.+28     	; 0x1260 <Endpoint_ClearStatusStage+0x2c>
    1244:	12 c0       	rjmp	.+36     	; 0x126a <Endpoint_ClearStatusStage+0x36>
    1246:	80 91 e8 00 	lds	r24, 0x00E8
    124a:	82 fd       	sbrc	r24, 2
    124c:	05 c0       	rjmp	.+10     	; 0x1258 <Endpoint_ClearStatusStage+0x24>
    124e:	80 91 48 02 	lds	r24, 0x0248
    1252:	81 11       	cpse	r24, r1
    1254:	f8 cf       	rjmp	.-16     	; 0x1246 <Endpoint_ClearStatusStage+0x12>
    1256:	08 95       	ret
    1258:	80 91 e8 00 	lds	r24, 0x00E8
    125c:	8b 77       	andi	r24, 0x7B	; 123
    125e:	08 c0       	rjmp	.+16     	; 0x1270 <Endpoint_ClearStatusStage+0x3c>
    1260:	80 91 48 02 	lds	r24, 0x0248
    1264:	81 11       	cpse	r24, r1
    1266:	ea cf       	rjmp	.-44     	; 0x123c <Endpoint_ClearStatusStage+0x8>
    1268:	08 95       	ret
    126a:	80 91 e8 00 	lds	r24, 0x00E8
    126e:	8e 77       	andi	r24, 0x7E	; 126
    1270:	80 93 e8 00 	sts	0x00E8, r24
    1274:	08 95       	ret

00001276 <Endpoint_WaitUntilReady>:
    1276:	80 91 e4 00 	lds	r24, 0x00E4
    127a:	90 91 e5 00 	lds	r25, 0x00E5
    127e:	45 e6       	ldi	r20, 0x65	; 101
    1280:	20 91 ec 00 	lds	r18, 0x00EC
    1284:	20 ff       	sbrs	r18, 0
    1286:	21 c0       	rjmp	.+66     	; 0x12ca <Endpoint_WaitUntilReady+0x54>
    1288:	20 91 e8 00 	lds	r18, 0x00E8
    128c:	20 fd       	sbrc	r18, 0
    128e:	21 c0       	rjmp	.+66     	; 0x12d2 <Endpoint_WaitUntilReady+0x5c>
    1290:	20 91 48 02 	lds	r18, 0x0248
    1294:	22 23       	and	r18, r18
    1296:	89 f0       	breq	.+34     	; 0x12ba <Endpoint_WaitUntilReady+0x44>
    1298:	25 30       	cpi	r18, 0x05	; 5
    129a:	89 f0       	breq	.+34     	; 0x12be <Endpoint_WaitUntilReady+0x48>
    129c:	20 91 eb 00 	lds	r18, 0x00EB
    12a0:	25 fd       	sbrc	r18, 5
    12a2:	0f c0       	rjmp	.+30     	; 0x12c2 <Endpoint_WaitUntilReady+0x4c>
    12a4:	20 91 e4 00 	lds	r18, 0x00E4
    12a8:	30 91 e5 00 	lds	r19, 0x00E5
    12ac:	28 17       	cp	r18, r24
    12ae:	39 07       	cpc	r19, r25
    12b0:	39 f3       	breq	.-50     	; 0x1280 <Endpoint_WaitUntilReady+0xa>
    12b2:	41 50       	subi	r20, 0x01	; 1
    12b4:	41 f0       	breq	.+16     	; 0x12c6 <Endpoint_WaitUntilReady+0x50>
    12b6:	c9 01       	movw	r24, r18
    12b8:	e3 cf       	rjmp	.-58     	; 0x1280 <Endpoint_WaitUntilReady+0xa>
    12ba:	82 e0       	ldi	r24, 0x02	; 2
    12bc:	08 95       	ret
    12be:	83 e0       	ldi	r24, 0x03	; 3
    12c0:	08 95       	ret
    12c2:	81 e0       	ldi	r24, 0x01	; 1
    12c4:	08 95       	ret
    12c6:	84 e0       	ldi	r24, 0x04	; 4
    12c8:	08 95       	ret
    12ca:	20 91 e8 00 	lds	r18, 0x00E8
    12ce:	22 ff       	sbrs	r18, 2
    12d0:	df cf       	rjmp	.-66     	; 0x1290 <Endpoint_WaitUntilReady+0x1a>
    12d2:	80 e0       	ldi	r24, 0x00	; 0
    12d4:	08 95       	ret

000012d6 <USB_ResetInterface>:
    12d6:	0f 93       	push	r16
    12d8:	1f 93       	push	r17
    12da:	cf 93       	push	r28
    12dc:	df 93       	push	r29
    12de:	4b d0       	rcall	.+150    	; 0x1376 <USB_INT_DisableAllInterrupts>
    12e0:	52 d0       	rcall	.+164    	; 0x1386 <USB_INT_ClearAllInterrupts>
    12e2:	c8 ed       	ldi	r28, 0xD8	; 216
    12e4:	d0 e0       	ldi	r29, 0x00	; 0
    12e6:	88 81       	ld	r24, Y
    12e8:	8f 77       	andi	r24, 0x7F	; 127
    12ea:	88 83       	st	Y, r24
    12ec:	88 81       	ld	r24, Y
    12ee:	80 68       	ori	r24, 0x80	; 128
    12f0:	88 83       	st	Y, r24
    12f2:	88 81       	ld	r24, Y
    12f4:	8f 7d       	andi	r24, 0xDF	; 223
    12f6:	88 83       	st	Y, r24
    12f8:	19 bc       	out	0x29, r1	; 41
    12fa:	10 92 48 02 	sts	0x0248, r1
    12fe:	10 92 44 02 	sts	0x0244, r1
    1302:	10 92 46 02 	sts	0x0246, r1
    1306:	10 92 45 02 	sts	0x0245, r1
    130a:	00 ee       	ldi	r16, 0xE0	; 224
    130c:	10 e0       	ldi	r17, 0x00	; 0
    130e:	f8 01       	movw	r30, r16
    1310:	80 81       	ld	r24, Z
    1312:	8b 7f       	andi	r24, 0xFB	; 251
    1314:	80 83       	st	Z, r24
    1316:	88 81       	ld	r24, Y
    1318:	81 60       	ori	r24, 0x01	; 1
    131a:	88 83       	st	Y, r24
    131c:	42 e0       	ldi	r20, 0x02	; 2
    131e:	60 e0       	ldi	r22, 0x00	; 0
    1320:	80 e0       	ldi	r24, 0x00	; 0
    1322:	16 df       	rcall	.-468    	; 0x1150 <Endpoint_ConfigureEndpoint_Prv>
    1324:	e1 ee       	ldi	r30, 0xE1	; 225
    1326:	f0 e0       	ldi	r31, 0x00	; 0
    1328:	80 81       	ld	r24, Z
    132a:	8e 7f       	andi	r24, 0xFE	; 254
    132c:	80 83       	st	Z, r24
    132e:	e2 ee       	ldi	r30, 0xE2	; 226
    1330:	f0 e0       	ldi	r31, 0x00	; 0
    1332:	80 81       	ld	r24, Z
    1334:	81 60       	ori	r24, 0x01	; 1
    1336:	80 83       	st	Z, r24
    1338:	80 81       	ld	r24, Z
    133a:	88 60       	ori	r24, 0x08	; 8
    133c:	80 83       	st	Z, r24
    133e:	f8 01       	movw	r30, r16
    1340:	80 81       	ld	r24, Z
    1342:	8e 7f       	andi	r24, 0xFE	; 254
    1344:	80 83       	st	Z, r24
    1346:	88 81       	ld	r24, Y
    1348:	80 61       	ori	r24, 0x10	; 16
    134a:	88 83       	st	Y, r24
    134c:	df 91       	pop	r29
    134e:	cf 91       	pop	r28
    1350:	1f 91       	pop	r17
    1352:	0f 91       	pop	r16
    1354:	08 95       	ret

00001356 <USB_Init>:
    1356:	e8 ed       	ldi	r30, 0xD8	; 216
    1358:	f0 e0       	ldi	r31, 0x00	; 0
    135a:	80 81       	ld	r24, Z
    135c:	8f 7e       	andi	r24, 0xEF	; 239
    135e:	80 83       	st	Z, r24
    1360:	e7 ed       	ldi	r30, 0xD7	; 215
    1362:	f0 e0       	ldi	r31, 0x00	; 0
    1364:	80 81       	ld	r24, Z
    1366:	81 60       	ori	r24, 0x01	; 1
    1368:	80 83       	st	Z, r24
    136a:	84 e0       	ldi	r24, 0x04	; 4
    136c:	82 bf       	out	0x32, r24	; 50
    136e:	81 e0       	ldi	r24, 0x01	; 1
    1370:	80 93 47 02 	sts	0x0247, r24
    1374:	b0 cf       	rjmp	.-160    	; 0x12d6 <USB_ResetInterface>

00001376 <USB_INT_DisableAllInterrupts>:
    1376:	e8 ed       	ldi	r30, 0xD8	; 216
    1378:	f0 e0       	ldi	r31, 0x00	; 0
    137a:	80 81       	ld	r24, Z
    137c:	8e 7f       	andi	r24, 0xFE	; 254
    137e:	80 83       	st	Z, r24
    1380:	10 92 e2 00 	sts	0x00E2, r1
    1384:	08 95       	ret

00001386 <USB_INT_ClearAllInterrupts>:
    1386:	10 92 da 00 	sts	0x00DA, r1
    138a:	10 92 e1 00 	sts	0x00E1, r1
    138e:	08 95       	ret

00001390 <__vector_10>:
    1390:	1f 92       	push	r1
    1392:	0f 92       	push	r0
    1394:	0f b6       	in	r0, 0x3f	; 63
    1396:	0f 92       	push	r0
    1398:	11 24       	eor	r1, r1
    139a:	2f 93       	push	r18
    139c:	3f 93       	push	r19
    139e:	4f 93       	push	r20
    13a0:	5f 93       	push	r21
    13a2:	6f 93       	push	r22
    13a4:	7f 93       	push	r23
    13a6:	8f 93       	push	r24
    13a8:	9f 93       	push	r25
    13aa:	af 93       	push	r26
    13ac:	bf 93       	push	r27
    13ae:	ef 93       	push	r30
    13b0:	ff 93       	push	r31
    13b2:	80 91 e1 00 	lds	r24, 0x00E1
    13b6:	82 ff       	sbrs	r24, 2
    13b8:	0a c0       	rjmp	.+20     	; 0x13ce <__vector_10+0x3e>
    13ba:	80 91 e2 00 	lds	r24, 0x00E2
    13be:	82 ff       	sbrs	r24, 2
    13c0:	06 c0       	rjmp	.+12     	; 0x13ce <__vector_10+0x3e>
    13c2:	80 91 e1 00 	lds	r24, 0x00E1
    13c6:	8b 7f       	andi	r24, 0xFB	; 251
    13c8:	80 93 e1 00 	sts	0x00E1, r24
    13cc:	cf d9       	rcall	.-3170   	; 0x76c <EVENT_USB_Device_StartOfFrame>
    13ce:	80 91 da 00 	lds	r24, 0x00DA
    13d2:	80 ff       	sbrs	r24, 0
    13d4:	1b c0       	rjmp	.+54     	; 0x140c <__vector_10+0x7c>
    13d6:	80 91 d8 00 	lds	r24, 0x00D8
    13da:	80 ff       	sbrs	r24, 0
    13dc:	17 c0       	rjmp	.+46     	; 0x140c <__vector_10+0x7c>
    13de:	80 91 da 00 	lds	r24, 0x00DA
    13e2:	8e 7f       	andi	r24, 0xFE	; 254
    13e4:	80 93 da 00 	sts	0x00DA, r24
    13e8:	80 91 d9 00 	lds	r24, 0x00D9
    13ec:	19 bc       	out	0x29, r1	; 41
    13ee:	80 ff       	sbrs	r24, 0
    13f0:	0a c0       	rjmp	.+20     	; 0x1406 <__vector_10+0x76>
    13f2:	82 e0       	ldi	r24, 0x02	; 2
    13f4:	89 bd       	out	0x29, r24	; 41
    13f6:	09 b4       	in	r0, 0x29	; 41
    13f8:	00 fe       	sbrs	r0, 0
    13fa:	fd cf       	rjmp	.-6      	; 0x13f6 <__vector_10+0x66>
    13fc:	81 e0       	ldi	r24, 0x01	; 1
    13fe:	80 93 48 02 	sts	0x0248, r24
    1402:	a4 d9       	rcall	.-3256   	; 0x74c <EVENT_USB_Device_Connect>
    1404:	03 c0       	rjmp	.+6      	; 0x140c <__vector_10+0x7c>
    1406:	10 92 48 02 	sts	0x0248, r1
    140a:	a1 d9       	rcall	.-3262   	; 0x74e <EVENT_USB_Device_Disconnect>
    140c:	80 91 e1 00 	lds	r24, 0x00E1
    1410:	80 ff       	sbrs	r24, 0
    1412:	18 c0       	rjmp	.+48     	; 0x1444 <__vector_10+0xb4>
    1414:	80 91 e2 00 	lds	r24, 0x00E2
    1418:	80 ff       	sbrs	r24, 0
    141a:	14 c0       	rjmp	.+40     	; 0x1444 <__vector_10+0xb4>
    141c:	80 91 e2 00 	lds	r24, 0x00E2
    1420:	8e 7f       	andi	r24, 0xFE	; 254
    1422:	80 93 e2 00 	sts	0x00E2, r24
    1426:	80 91 e2 00 	lds	r24, 0x00E2
    142a:	80 61       	ori	r24, 0x10	; 16
    142c:	80 93 e2 00 	sts	0x00E2, r24
    1430:	80 91 d8 00 	lds	r24, 0x00D8
    1434:	80 62       	ori	r24, 0x20	; 32
    1436:	80 93 d8 00 	sts	0x00D8, r24
    143a:	19 bc       	out	0x29, r1	; 41
    143c:	85 e0       	ldi	r24, 0x05	; 5
    143e:	80 93 48 02 	sts	0x0248, r24
    1442:	86 d9       	rcall	.-3316   	; 0x750 <EVENT_USB_Device_Suspend>
    1444:	80 91 e1 00 	lds	r24, 0x00E1
    1448:	84 ff       	sbrs	r24, 4
    144a:	2e c0       	rjmp	.+92     	; 0x14a8 <__vector_10+0x118>
    144c:	80 91 e2 00 	lds	r24, 0x00E2
    1450:	84 ff       	sbrs	r24, 4
    1452:	2a c0       	rjmp	.+84     	; 0x14a8 <__vector_10+0x118>
    1454:	19 bc       	out	0x29, r1	; 41
    1456:	82 e0       	ldi	r24, 0x02	; 2
    1458:	89 bd       	out	0x29, r24	; 41
    145a:	09 b4       	in	r0, 0x29	; 41
    145c:	00 fe       	sbrs	r0, 0
    145e:	fd cf       	rjmp	.-6      	; 0x145a <__vector_10+0xca>
    1460:	80 91 d8 00 	lds	r24, 0x00D8
    1464:	8f 7d       	andi	r24, 0xDF	; 223
    1466:	80 93 d8 00 	sts	0x00D8, r24
    146a:	80 91 e1 00 	lds	r24, 0x00E1
    146e:	8f 7e       	andi	r24, 0xEF	; 239
    1470:	80 93 e1 00 	sts	0x00E1, r24
    1474:	80 91 e2 00 	lds	r24, 0x00E2
    1478:	8f 7e       	andi	r24, 0xEF	; 239
    147a:	80 93 e2 00 	sts	0x00E2, r24
    147e:	80 91 e2 00 	lds	r24, 0x00E2
    1482:	81 60       	ori	r24, 0x01	; 1
    1484:	80 93 e2 00 	sts	0x00E2, r24
    1488:	80 91 44 02 	lds	r24, 0x0244
    148c:	88 23       	and	r24, r24
    148e:	11 f0       	breq	.+4      	; 0x1494 <__vector_10+0x104>
    1490:	84 e0       	ldi	r24, 0x04	; 4
    1492:	07 c0       	rjmp	.+14     	; 0x14a2 <__vector_10+0x112>
    1494:	80 91 e3 00 	lds	r24, 0x00E3
    1498:	87 ff       	sbrs	r24, 7
    149a:	02 c0       	rjmp	.+4      	; 0x14a0 <__vector_10+0x110>
    149c:	83 e0       	ldi	r24, 0x03	; 3
    149e:	01 c0       	rjmp	.+2      	; 0x14a2 <__vector_10+0x112>
    14a0:	81 e0       	ldi	r24, 0x01	; 1
    14a2:	80 93 48 02 	sts	0x0248, r24
    14a6:	55 d9       	rcall	.-3414   	; 0x752 <EVENT_USB_Device_WakeUp>
    14a8:	80 91 e1 00 	lds	r24, 0x00E1
    14ac:	83 ff       	sbrs	r24, 3
    14ae:	22 c0       	rjmp	.+68     	; 0x14f4 <__vector_10+0x164>
    14b0:	80 91 e2 00 	lds	r24, 0x00E2
    14b4:	83 ff       	sbrs	r24, 3
    14b6:	1e c0       	rjmp	.+60     	; 0x14f4 <__vector_10+0x164>
    14b8:	80 91 e1 00 	lds	r24, 0x00E1
    14bc:	87 7f       	andi	r24, 0xF7	; 247
    14be:	80 93 e1 00 	sts	0x00E1, r24
    14c2:	82 e0       	ldi	r24, 0x02	; 2
    14c4:	80 93 48 02 	sts	0x0248, r24
    14c8:	10 92 44 02 	sts	0x0244, r1
    14cc:	80 91 e1 00 	lds	r24, 0x00E1
    14d0:	8e 7f       	andi	r24, 0xFE	; 254
    14d2:	80 93 e1 00 	sts	0x00E1, r24
    14d6:	80 91 e2 00 	lds	r24, 0x00E2
    14da:	8e 7f       	andi	r24, 0xFE	; 254
    14dc:	80 93 e2 00 	sts	0x00E2, r24
    14e0:	80 91 e2 00 	lds	r24, 0x00E2
    14e4:	80 61       	ori	r24, 0x10	; 16
    14e6:	80 93 e2 00 	sts	0x00E2, r24
    14ea:	42 e0       	ldi	r20, 0x02	; 2
    14ec:	60 e0       	ldi	r22, 0x00	; 0
    14ee:	80 e0       	ldi	r24, 0x00	; 0
    14f0:	2f de       	rcall	.-930    	; 0x1150 <Endpoint_ConfigureEndpoint_Prv>
    14f2:	64 d1       	rcall	.+712    	; 0x17bc <USB_Event_Stub>
    14f4:	ff 91       	pop	r31
    14f6:	ef 91       	pop	r30
    14f8:	bf 91       	pop	r27
    14fa:	af 91       	pop	r26
    14fc:	9f 91       	pop	r25
    14fe:	8f 91       	pop	r24
    1500:	7f 91       	pop	r23
    1502:	6f 91       	pop	r22
    1504:	5f 91       	pop	r21
    1506:	4f 91       	pop	r20
    1508:	3f 91       	pop	r19
    150a:	2f 91       	pop	r18
    150c:	0f 90       	pop	r0
    150e:	0f be       	out	0x3f, r0	; 63
    1510:	0f 90       	pop	r0
    1512:	1f 90       	pop	r1
    1514:	18 95       	reti

00001516 <USB_Device_ProcessControlRequest>:
    1516:	1f 93       	push	r17
    1518:	cf 93       	push	r28
    151a:	df 93       	push	r29
    151c:	cd b7       	in	r28, 0x3d	; 61
    151e:	de b7       	in	r29, 0x3e	; 62
    1520:	aa 97       	sbiw	r28, 0x2a	; 42
    1522:	0f b6       	in	r0, 0x3f	; 63
    1524:	f8 94       	cli
    1526:	de bf       	out	0x3e, r29	; 62
    1528:	0f be       	out	0x3f, r0	; 63
    152a:	cd bf       	out	0x3d, r28	; 61
    152c:	e9 e4       	ldi	r30, 0x49	; 73
    152e:	f2 e0       	ldi	r31, 0x02	; 2
    1530:	80 91 f1 00 	lds	r24, 0x00F1
    1534:	81 93       	st	Z+, r24
    1536:	22 e0       	ldi	r18, 0x02	; 2
    1538:	e1 35       	cpi	r30, 0x51	; 81
    153a:	f2 07       	cpc	r31, r18
    153c:	c9 f7       	brne	.-14     	; 0x1530 <USB_Device_ProcessControlRequest+0x1a>
    153e:	13 d9       	rcall	.-3546   	; 0x766 <EVENT_USB_Device_ControlRequest>
    1540:	80 91 e8 00 	lds	r24, 0x00E8
    1544:	83 ff       	sbrs	r24, 3
    1546:	22 c1       	rjmp	.+580    	; 0x178c <USB_Device_ProcessControlRequest+0x276>
    1548:	90 91 49 02 	lds	r25, 0x0249
    154c:	80 91 4a 02 	lds	r24, 0x024A
    1550:	85 30       	cpi	r24, 0x05	; 5
    1552:	09 f4       	brne	.+2      	; 0x1556 <USB_Device_ProcessControlRequest+0x40>
    1554:	77 c0       	rjmp	.+238    	; 0x1644 <USB_Device_ProcessControlRequest+0x12e>
    1556:	30 f4       	brcc	.+12     	; 0x1564 <USB_Device_ProcessControlRequest+0x4e>
    1558:	81 30       	cpi	r24, 0x01	; 1
    155a:	81 f1       	breq	.+96     	; 0x15bc <USB_Device_ProcessControlRequest+0xa6>
    155c:	68 f0       	brcs	.+26     	; 0x1578 <USB_Device_ProcessControlRequest+0x62>
    155e:	83 30       	cpi	r24, 0x03	; 3
    1560:	69 f1       	breq	.+90     	; 0x15bc <USB_Device_ProcessControlRequest+0xa6>
    1562:	14 c1       	rjmp	.+552    	; 0x178c <USB_Device_ProcessControlRequest+0x276>
    1564:	88 30       	cpi	r24, 0x08	; 8
    1566:	09 f4       	brne	.+2      	; 0x156a <USB_Device_ProcessControlRequest+0x54>
    1568:	e2 c0       	rjmp	.+452    	; 0x172e <USB_Device_ProcessControlRequest+0x218>
    156a:	89 30       	cpi	r24, 0x09	; 9
    156c:	09 f4       	brne	.+2      	; 0x1570 <USB_Device_ProcessControlRequest+0x5a>
    156e:	f1 c0       	rjmp	.+482    	; 0x1752 <USB_Device_ProcessControlRequest+0x23c>
    1570:	86 30       	cpi	r24, 0x06	; 6
    1572:	09 f0       	breq	.+2      	; 0x1576 <USB_Device_ProcessControlRequest+0x60>
    1574:	0b c1       	rjmp	.+534    	; 0x178c <USB_Device_ProcessControlRequest+0x276>
    1576:	88 c0       	rjmp	.+272    	; 0x1688 <USB_Device_ProcessControlRequest+0x172>
    1578:	90 38       	cpi	r25, 0x80	; 128
    157a:	81 f0       	breq	.+32     	; 0x159c <USB_Device_ProcessControlRequest+0x86>
    157c:	92 38       	cpi	r25, 0x82	; 130
    157e:	09 f0       	breq	.+2      	; 0x1582 <USB_Device_ProcessControlRequest+0x6c>
    1580:	05 c1       	rjmp	.+522    	; 0x178c <USB_Device_ProcessControlRequest+0x276>
    1582:	80 91 4d 02 	lds	r24, 0x024D
    1586:	8f 70       	andi	r24, 0x0F	; 15
    1588:	80 93 e9 00 	sts	0x00E9, r24
    158c:	80 91 eb 00 	lds	r24, 0x00EB
    1590:	85 fb       	bst	r24, 5
    1592:	88 27       	eor	r24, r24
    1594:	80 f9       	bld	r24, 0
    1596:	10 92 e9 00 	sts	0x00E9, r1
    159a:	06 c0       	rjmp	.+12     	; 0x15a8 <USB_Device_ProcessControlRequest+0x92>
    159c:	80 91 45 02 	lds	r24, 0x0245
    15a0:	90 91 46 02 	lds	r25, 0x0246
    15a4:	91 11       	cpse	r25, r1
    15a6:	82 60       	ori	r24, 0x02	; 2
    15a8:	90 91 e8 00 	lds	r25, 0x00E8
    15ac:	97 7f       	andi	r25, 0xF7	; 247
    15ae:	90 93 e8 00 	sts	0x00E8, r25
    15b2:	80 93 f1 00 	sts	0x00F1, r24
    15b6:	10 92 f1 00 	sts	0x00F1, r1
    15ba:	c4 c0       	rjmp	.+392    	; 0x1744 <USB_Device_ProcessControlRequest+0x22e>
    15bc:	29 2f       	mov	r18, r25
    15be:	2d 7f       	andi	r18, 0xFD	; 253
    15c0:	09 f0       	breq	.+2      	; 0x15c4 <USB_Device_ProcessControlRequest+0xae>
    15c2:	e4 c0       	rjmp	.+456    	; 0x178c <USB_Device_ProcessControlRequest+0x276>
    15c4:	99 23       	and	r25, r25
    15c6:	19 f0       	breq	.+6      	; 0x15ce <USB_Device_ProcessControlRequest+0xb8>
    15c8:	92 30       	cpi	r25, 0x02	; 2
    15ca:	61 f0       	breq	.+24     	; 0x15e4 <USB_Device_ProcessControlRequest+0xce>
    15cc:	df c0       	rjmp	.+446    	; 0x178c <USB_Device_ProcessControlRequest+0x276>
    15ce:	90 91 4b 02 	lds	r25, 0x024B
    15d2:	91 30       	cpi	r25, 0x01	; 1
    15d4:	09 f0       	breq	.+2      	; 0x15d8 <USB_Device_ProcessControlRequest+0xc2>
    15d6:	da c0       	rjmp	.+436    	; 0x178c <USB_Device_ProcessControlRequest+0x276>
    15d8:	83 30       	cpi	r24, 0x03	; 3
    15da:	09 f0       	breq	.+2      	; 0x15de <USB_Device_ProcessControlRequest+0xc8>
    15dc:	90 e0       	ldi	r25, 0x00	; 0
    15de:	90 93 46 02 	sts	0x0246, r25
    15e2:	2a c0       	rjmp	.+84     	; 0x1638 <USB_Device_ProcessControlRequest+0x122>
    15e4:	90 91 4b 02 	lds	r25, 0x024B
    15e8:	91 11       	cpse	r25, r1
    15ea:	26 c0       	rjmp	.+76     	; 0x1638 <USB_Device_ProcessControlRequest+0x122>
    15ec:	20 91 4d 02 	lds	r18, 0x024D
    15f0:	2f 70       	andi	r18, 0x0F	; 15
    15f2:	09 f4       	brne	.+2      	; 0x15f6 <USB_Device_ProcessControlRequest+0xe0>
    15f4:	cb c0       	rjmp	.+406    	; 0x178c <USB_Device_ProcessControlRequest+0x276>
    15f6:	20 93 e9 00 	sts	0x00E9, r18
    15fa:	90 91 eb 00 	lds	r25, 0x00EB
    15fe:	90 ff       	sbrs	r25, 0
    1600:	1b c0       	rjmp	.+54     	; 0x1638 <USB_Device_ProcessControlRequest+0x122>
    1602:	83 30       	cpi	r24, 0x03	; 3
    1604:	21 f4       	brne	.+8      	; 0x160e <USB_Device_ProcessControlRequest+0xf8>
    1606:	80 91 eb 00 	lds	r24, 0x00EB
    160a:	80 62       	ori	r24, 0x20	; 32
    160c:	13 c0       	rjmp	.+38     	; 0x1634 <USB_Device_ProcessControlRequest+0x11e>
    160e:	80 91 eb 00 	lds	r24, 0x00EB
    1612:	80 61       	ori	r24, 0x10	; 16
    1614:	80 93 eb 00 	sts	0x00EB, r24
    1618:	81 e0       	ldi	r24, 0x01	; 1
    161a:	90 e0       	ldi	r25, 0x00	; 0
    161c:	02 2e       	mov	r0, r18
    161e:	01 c0       	rjmp	.+2      	; 0x1622 <USB_Device_ProcessControlRequest+0x10c>
    1620:	88 0f       	add	r24, r24
    1622:	0a 94       	dec	r0
    1624:	ea f7       	brpl	.-6      	; 0x1620 <USB_Device_ProcessControlRequest+0x10a>
    1626:	80 93 ea 00 	sts	0x00EA, r24
    162a:	10 92 ea 00 	sts	0x00EA, r1
    162e:	80 91 eb 00 	lds	r24, 0x00EB
    1632:	88 60       	ori	r24, 0x08	; 8
    1634:	80 93 eb 00 	sts	0x00EB, r24
    1638:	10 92 e9 00 	sts	0x00E9, r1
    163c:	80 91 e8 00 	lds	r24, 0x00E8
    1640:	87 7f       	andi	r24, 0xF7	; 247
    1642:	83 c0       	rjmp	.+262    	; 0x174a <USB_Device_ProcessControlRequest+0x234>
    1644:	91 11       	cpse	r25, r1
    1646:	a2 c0       	rjmp	.+324    	; 0x178c <USB_Device_ProcessControlRequest+0x276>
    1648:	10 91 4b 02 	lds	r17, 0x024B
    164c:	1f 77       	andi	r17, 0x7F	; 127
    164e:	80 91 e3 00 	lds	r24, 0x00E3
    1652:	80 78       	andi	r24, 0x80	; 128
    1654:	81 2b       	or	r24, r17
    1656:	80 93 e3 00 	sts	0x00E3, r24
    165a:	80 91 e8 00 	lds	r24, 0x00E8
    165e:	87 7f       	andi	r24, 0xF7	; 247
    1660:	80 93 e8 00 	sts	0x00E8, r24
    1664:	e7 dd       	rcall	.-1074   	; 0x1234 <Endpoint_ClearStatusStage>
    1666:	80 91 e8 00 	lds	r24, 0x00E8
    166a:	80 ff       	sbrs	r24, 0
    166c:	fc cf       	rjmp	.-8      	; 0x1666 <USB_Device_ProcessControlRequest+0x150>
    166e:	80 91 e3 00 	lds	r24, 0x00E3
    1672:	80 68       	ori	r24, 0x80	; 128
    1674:	80 93 e3 00 	sts	0x00E3, r24
    1678:	11 23       	and	r17, r17
    167a:	11 f0       	breq	.+4      	; 0x1680 <USB_Device_ProcessControlRequest+0x16a>
    167c:	83 e0       	ldi	r24, 0x03	; 3
    167e:	01 c0       	rjmp	.+2      	; 0x1682 <USB_Device_ProcessControlRequest+0x16c>
    1680:	82 e0       	ldi	r24, 0x02	; 2
    1682:	80 93 48 02 	sts	0x0248, r24
    1686:	82 c0       	rjmp	.+260    	; 0x178c <USB_Device_ProcessControlRequest+0x276>
    1688:	90 58       	subi	r25, 0x80	; 128
    168a:	92 30       	cpi	r25, 0x02	; 2
    168c:	08 f0       	brcs	.+2      	; 0x1690 <USB_Device_ProcessControlRequest+0x17a>
    168e:	7e c0       	rjmp	.+252    	; 0x178c <USB_Device_ProcessControlRequest+0x276>
    1690:	80 91 4b 02 	lds	r24, 0x024B
    1694:	90 91 4c 02 	lds	r25, 0x024C
    1698:	8c 3d       	cpi	r24, 0xDC	; 220
    169a:	23 e0       	ldi	r18, 0x03	; 3
    169c:	92 07       	cpc	r25, r18
    169e:	71 f5       	brne	.+92     	; 0x16fc <USB_Device_ProcessControlRequest+0x1e6>
    16a0:	83 e0       	ldi	r24, 0x03	; 3
    16a2:	8a 83       	std	Y+2, r24	; 0x02
    16a4:	8a e2       	ldi	r24, 0x2A	; 42
    16a6:	89 83       	std	Y+1, r24	; 0x01
    16a8:	4f b7       	in	r20, 0x3f	; 63
    16aa:	f8 94       	cli
    16ac:	de 01       	movw	r26, r28
    16ae:	13 96       	adiw	r26, 0x03	; 3
    16b0:	20 e0       	ldi	r18, 0x00	; 0
    16b2:	3e e0       	ldi	r19, 0x0E	; 14
    16b4:	51 e2       	ldi	r21, 0x21	; 33
    16b6:	e3 2f       	mov	r30, r19
    16b8:	f0 e0       	ldi	r31, 0x00	; 0
    16ba:	50 93 57 00 	sts	0x0057, r21
    16be:	e4 91       	lpm	r30, Z
    16c0:	20 ff       	sbrs	r18, 0
    16c2:	03 c0       	rjmp	.+6      	; 0x16ca <USB_Device_ProcessControlRequest+0x1b4>
    16c4:	e2 95       	swap	r30
    16c6:	ef 70       	andi	r30, 0x0F	; 15
    16c8:	3f 5f       	subi	r19, 0xFF	; 255
    16ca:	ef 70       	andi	r30, 0x0F	; 15
    16cc:	8e 2f       	mov	r24, r30
    16ce:	90 e0       	ldi	r25, 0x00	; 0
    16d0:	ea 30       	cpi	r30, 0x0A	; 10
    16d2:	10 f0       	brcs	.+4      	; 0x16d8 <USB_Device_ProcessControlRequest+0x1c2>
    16d4:	c7 96       	adiw	r24, 0x37	; 55
    16d6:	01 c0       	rjmp	.+2      	; 0x16da <USB_Device_ProcessControlRequest+0x1c4>
    16d8:	c0 96       	adiw	r24, 0x30	; 48
    16da:	8d 93       	st	X+, r24
    16dc:	9d 93       	st	X+, r25
    16de:	2f 5f       	subi	r18, 0xFF	; 255
    16e0:	24 31       	cpi	r18, 0x14	; 20
    16e2:	49 f7       	brne	.-46     	; 0x16b6 <USB_Device_ProcessControlRequest+0x1a0>
    16e4:	4f bf       	out	0x3f, r20	; 63
    16e6:	80 91 e8 00 	lds	r24, 0x00E8
    16ea:	87 7f       	andi	r24, 0xF7	; 247
    16ec:	80 93 e8 00 	sts	0x00E8, r24
    16f0:	6a e2       	ldi	r22, 0x2A	; 42
    16f2:	70 e0       	ldi	r23, 0x00	; 0
    16f4:	ce 01       	movw	r24, r28
    16f6:	01 96       	adiw	r24, 0x01	; 1
    16f8:	28 dc       	rcall	.-1968   	; 0xf4a <Endpoint_Write_Control_Stream_LE>
    16fa:	13 c0       	rjmp	.+38     	; 0x1722 <USB_Device_ProcessControlRequest+0x20c>
    16fc:	ae 01       	movw	r20, r28
    16fe:	4f 5f       	subi	r20, 0xFF	; 255
    1700:	5f 4f       	sbci	r21, 0xFF	; 255
    1702:	60 91 4d 02 	lds	r22, 0x024D
    1706:	0e 94 f6 01 	call	0x3ec	; 0x3ec <CALLBACK_USB_GetDescriptor>
    170a:	00 97       	sbiw	r24, 0x00	; 0
    170c:	09 f4       	brne	.+2      	; 0x1710 <USB_Device_ProcessControlRequest+0x1fa>
    170e:	3e c0       	rjmp	.+124    	; 0x178c <USB_Device_ProcessControlRequest+0x276>
    1710:	20 91 e8 00 	lds	r18, 0x00E8
    1714:	27 7f       	andi	r18, 0xF7	; 247
    1716:	20 93 e8 00 	sts	0x00E8, r18
    171a:	bc 01       	movw	r22, r24
    171c:	89 81       	ldd	r24, Y+1	; 0x01
    171e:	9a 81       	ldd	r25, Y+2	; 0x02
    1720:	b5 dc       	rcall	.-1686   	; 0x108c <Endpoint_Write_Control_PStream_LE>
    1722:	80 91 e8 00 	lds	r24, 0x00E8
    1726:	8b 77       	andi	r24, 0x7B	; 123
    1728:	80 93 e8 00 	sts	0x00E8, r24
    172c:	2f c0       	rjmp	.+94     	; 0x178c <USB_Device_ProcessControlRequest+0x276>
    172e:	90 38       	cpi	r25, 0x80	; 128
    1730:	69 f5       	brne	.+90     	; 0x178c <USB_Device_ProcessControlRequest+0x276>
    1732:	80 91 e8 00 	lds	r24, 0x00E8
    1736:	87 7f       	andi	r24, 0xF7	; 247
    1738:	80 93 e8 00 	sts	0x00E8, r24
    173c:	80 91 44 02 	lds	r24, 0x0244
    1740:	80 93 f1 00 	sts	0x00F1, r24
    1744:	80 91 e8 00 	lds	r24, 0x00E8
    1748:	8e 77       	andi	r24, 0x7E	; 126
    174a:	80 93 e8 00 	sts	0x00E8, r24
    174e:	72 dd       	rcall	.-1308   	; 0x1234 <Endpoint_ClearStatusStage>
    1750:	1d c0       	rjmp	.+58     	; 0x178c <USB_Device_ProcessControlRequest+0x276>
    1752:	91 11       	cpse	r25, r1
    1754:	1b c0       	rjmp	.+54     	; 0x178c <USB_Device_ProcessControlRequest+0x276>
    1756:	90 91 4b 02 	lds	r25, 0x024B
    175a:	92 30       	cpi	r25, 0x02	; 2
    175c:	b8 f4       	brcc	.+46     	; 0x178c <USB_Device_ProcessControlRequest+0x276>
    175e:	80 91 e8 00 	lds	r24, 0x00E8
    1762:	87 7f       	andi	r24, 0xF7	; 247
    1764:	80 93 e8 00 	sts	0x00E8, r24
    1768:	90 93 44 02 	sts	0x0244, r25
    176c:	63 dd       	rcall	.-1338   	; 0x1234 <Endpoint_ClearStatusStage>
    176e:	80 91 44 02 	lds	r24, 0x0244
    1772:	81 11       	cpse	r24, r1
    1774:	04 c0       	rjmp	.+8      	; 0x177e <USB_Device_ProcessControlRequest+0x268>
    1776:	80 91 e3 00 	lds	r24, 0x00E3
    177a:	87 ff       	sbrs	r24, 7
    177c:	02 c0       	rjmp	.+4      	; 0x1782 <USB_Device_ProcessControlRequest+0x26c>
    177e:	84 e0       	ldi	r24, 0x04	; 4
    1780:	01 c0       	rjmp	.+2      	; 0x1784 <USB_Device_ProcessControlRequest+0x26e>
    1782:	81 e0       	ldi	r24, 0x01	; 1
    1784:	80 93 48 02 	sts	0x0248, r24
    1788:	0e 94 aa 03 	call	0x754	; 0x754 <EVENT_USB_Device_ConfigurationChanged>
    178c:	80 91 e8 00 	lds	r24, 0x00E8
    1790:	83 ff       	sbrs	r24, 3
    1792:	0a c0       	rjmp	.+20     	; 0x17a8 <USB_Device_ProcessControlRequest+0x292>
    1794:	80 91 e8 00 	lds	r24, 0x00E8
    1798:	87 7f       	andi	r24, 0xF7	; 247
    179a:	80 93 e8 00 	sts	0x00E8, r24
    179e:	80 91 eb 00 	lds	r24, 0x00EB
    17a2:	80 62       	ori	r24, 0x20	; 32
    17a4:	80 93 eb 00 	sts	0x00EB, r24
    17a8:	aa 96       	adiw	r28, 0x2a	; 42
    17aa:	0f b6       	in	r0, 0x3f	; 63
    17ac:	f8 94       	cli
    17ae:	de bf       	out	0x3e, r29	; 62
    17b0:	0f be       	out	0x3f, r0	; 63
    17b2:	cd bf       	out	0x3d, r28	; 61
    17b4:	df 91       	pop	r29
    17b6:	cf 91       	pop	r28
    17b8:	1f 91       	pop	r17
    17ba:	08 95       	ret

000017bc <USB_Event_Stub>:
    17bc:	08 95       	ret

000017be <USB_USBTask>:
    17be:	cf 93       	push	r28
    17c0:	80 91 48 02 	lds	r24, 0x0248
    17c4:	88 23       	and	r24, r24
    17c6:	a9 f0       	breq	.+42     	; 0x17f2 <USB_USBTask+0x34>
    17c8:	80 91 e9 00 	lds	r24, 0x00E9
    17cc:	8f 70       	andi	r24, 0x0F	; 15
    17ce:	90 91 ec 00 	lds	r25, 0x00EC
    17d2:	90 ff       	sbrs	r25, 0
    17d4:	02 c0       	rjmp	.+4      	; 0x17da <USB_USBTask+0x1c>
    17d6:	90 e8       	ldi	r25, 0x80	; 128
    17d8:	01 c0       	rjmp	.+2      	; 0x17dc <USB_USBTask+0x1e>
    17da:	90 e0       	ldi	r25, 0x00	; 0
    17dc:	c9 2f       	mov	r28, r25
    17de:	c8 2b       	or	r28, r24
    17e0:	10 92 e9 00 	sts	0x00E9, r1
    17e4:	80 91 e8 00 	lds	r24, 0x00E8
    17e8:	83 fd       	sbrc	r24, 3
    17ea:	95 de       	rcall	.-726    	; 0x1516 <USB_Device_ProcessControlRequest>
    17ec:	cf 70       	andi	r28, 0x0F	; 15
    17ee:	c0 93 e9 00 	sts	0x00E9, r28
    17f2:	cf 91       	pop	r28
    17f4:	08 95       	ret

000017f6 <__udivmodqi4>:
    17f6:	99 1b       	sub	r25, r25
    17f8:	79 e0       	ldi	r23, 0x09	; 9
    17fa:	04 c0       	rjmp	.+8      	; 0x1804 <__udivmodqi4_ep>

000017fc <__udivmodqi4_loop>:
    17fc:	99 1f       	adc	r25, r25
    17fe:	96 17       	cp	r25, r22
    1800:	08 f0       	brcs	.+2      	; 0x1804 <__udivmodqi4_ep>
    1802:	96 1b       	sub	r25, r22

00001804 <__udivmodqi4_ep>:
    1804:	88 1f       	adc	r24, r24
    1806:	7a 95       	dec	r23
    1808:	c9 f7       	brne	.-14     	; 0x17fc <__udivmodqi4_loop>
    180a:	80 95       	com	r24
    180c:	08 95       	ret

0000180e <__divmodhi4>:
    180e:	97 fb       	bst	r25, 7
    1810:	07 2e       	mov	r0, r23
    1812:	16 f4       	brtc	.+4      	; 0x1818 <__divmodhi4+0xa>
    1814:	00 94       	com	r0
    1816:	06 d0       	rcall	.+12     	; 0x1824 <__divmodhi4_neg1>
    1818:	77 fd       	sbrc	r23, 7
    181a:	08 d0       	rcall	.+16     	; 0x182c <__divmodhi4_neg2>
    181c:	38 d0       	rcall	.+112    	; 0x188e <__udivmodhi4>
    181e:	07 fc       	sbrc	r0, 7
    1820:	05 d0       	rcall	.+10     	; 0x182c <__divmodhi4_neg2>
    1822:	3e f4       	brtc	.+14     	; 0x1832 <__divmodhi4_exit>

00001824 <__divmodhi4_neg1>:
    1824:	90 95       	com	r25
    1826:	81 95       	neg	r24
    1828:	9f 4f       	sbci	r25, 0xFF	; 255
    182a:	08 95       	ret

0000182c <__divmodhi4_neg2>:
    182c:	70 95       	com	r23
    182e:	61 95       	neg	r22
    1830:	7f 4f       	sbci	r23, 0xFF	; 255

00001832 <__divmodhi4_exit>:
    1832:	08 95       	ret

00001834 <__clzdi2>:
    1834:	40 d0       	rcall	.+128    	; 0x18b6 <__clzsi2>
    1836:	85 ff       	sbrs	r24, 5
    1838:	08 95       	ret
    183a:	b9 01       	movw	r22, r18
    183c:	ca 01       	movw	r24, r20
    183e:	3b d0       	rcall	.+118    	; 0x18b6 <__clzsi2>
    1840:	80 5e       	subi	r24, 0xE0	; 224
    1842:	08 95       	ret

00001844 <__ashldi3>:
    1844:	0f 93       	push	r16
    1846:	08 30       	cpi	r16, 0x08	; 8
    1848:	90 f0       	brcs	.+36     	; 0x186e <__ashldi3+0x2a>
    184a:	98 2f       	mov	r25, r24
    184c:	87 2f       	mov	r24, r23
    184e:	76 2f       	mov	r23, r22
    1850:	65 2f       	mov	r22, r21
    1852:	54 2f       	mov	r21, r20
    1854:	43 2f       	mov	r20, r19
    1856:	32 2f       	mov	r19, r18
    1858:	22 27       	eor	r18, r18
    185a:	08 50       	subi	r16, 0x08	; 8
    185c:	f4 cf       	rjmp	.-24     	; 0x1846 <__ashldi3+0x2>
    185e:	22 0f       	add	r18, r18
    1860:	33 1f       	adc	r19, r19
    1862:	44 1f       	adc	r20, r20
    1864:	55 1f       	adc	r21, r21
    1866:	66 1f       	adc	r22, r22
    1868:	77 1f       	adc	r23, r23
    186a:	88 1f       	adc	r24, r24
    186c:	99 1f       	adc	r25, r25
    186e:	0a 95       	dec	r16
    1870:	b2 f7       	brpl	.-20     	; 0x185e <__ashldi3+0x1a>
    1872:	0f 91       	pop	r16
    1874:	08 95       	ret

00001876 <__cmpdi2_s8>:
    1876:	00 24       	eor	r0, r0
    1878:	a7 fd       	sbrc	r26, 7
    187a:	00 94       	com	r0
    187c:	2a 17       	cp	r18, r26
    187e:	30 05       	cpc	r19, r0
    1880:	40 05       	cpc	r20, r0
    1882:	50 05       	cpc	r21, r0
    1884:	60 05       	cpc	r22, r0
    1886:	70 05       	cpc	r23, r0
    1888:	80 05       	cpc	r24, r0
    188a:	90 05       	cpc	r25, r0
    188c:	08 95       	ret

0000188e <__udivmodhi4>:
    188e:	aa 1b       	sub	r26, r26
    1890:	bb 1b       	sub	r27, r27
    1892:	51 e1       	ldi	r21, 0x11	; 17
    1894:	07 c0       	rjmp	.+14     	; 0x18a4 <__udivmodhi4_ep>

00001896 <__udivmodhi4_loop>:
    1896:	aa 1f       	adc	r26, r26
    1898:	bb 1f       	adc	r27, r27
    189a:	a6 17       	cp	r26, r22
    189c:	b7 07       	cpc	r27, r23
    189e:	10 f0       	brcs	.+4      	; 0x18a4 <__udivmodhi4_ep>
    18a0:	a6 1b       	sub	r26, r22
    18a2:	b7 0b       	sbc	r27, r23

000018a4 <__udivmodhi4_ep>:
    18a4:	88 1f       	adc	r24, r24
    18a6:	99 1f       	adc	r25, r25
    18a8:	5a 95       	dec	r21
    18aa:	a9 f7       	brne	.-22     	; 0x1896 <__udivmodhi4_loop>
    18ac:	80 95       	com	r24
    18ae:	90 95       	com	r25
    18b0:	bc 01       	movw	r22, r24
    18b2:	cd 01       	movw	r24, r26
    18b4:	08 95       	ret

000018b6 <__clzsi2>:
    18b6:	06 d0       	rcall	.+12     	; 0x18c4 <__clzhi2>
    18b8:	84 ff       	sbrs	r24, 4
    18ba:	08 95       	ret
    18bc:	cb 01       	movw	r24, r22
    18be:	02 d0       	rcall	.+4      	; 0x18c4 <__clzhi2>
    18c0:	80 5f       	subi	r24, 0xF0	; 240
    18c2:	08 95       	ret

000018c4 <__clzhi2>:
    18c4:	aa 27       	eor	r26, r26
    18c6:	99 23       	and	r25, r25
    18c8:	29 f4       	brne	.+10     	; 0x18d4 <__clzhi2+0x10>
    18ca:	a8 5f       	subi	r26, 0xF8	; 248
    18cc:	98 2b       	or	r25, r24
    18ce:	11 f4       	brne	.+4      	; 0x18d4 <__clzhi2+0x10>
    18d0:	80 e1       	ldi	r24, 0x10	; 16
    18d2:	08 95       	ret
    18d4:	90 31       	cpi	r25, 0x10	; 16
    18d6:	18 f4       	brcc	.+6      	; 0x18de <__clzhi2+0x1a>
    18d8:	ad 5f       	subi	r26, 0xFD	; 253
    18da:	92 95       	swap	r25
    18dc:	a3 95       	inc	r26
    18de:	99 0f       	add	r25, r25
    18e0:	e8 f7       	brcc	.-6      	; 0x18dc <__clzhi2+0x18>
    18e2:	8a 2f       	mov	r24, r26
    18e4:	99 27       	eor	r25, r25
    18e6:	08 95       	ret

000018e8 <toupper>:
    18e8:	91 11       	cpse	r25, r1
    18ea:	08 95       	ret
    18ec:	81 56       	subi	r24, 0x61	; 97
    18ee:	8a 51       	subi	r24, 0x1A	; 26
    18f0:	08 f4       	brcc	.+2      	; 0x18f4 <toupper+0xc>
    18f2:	80 52       	subi	r24, 0x20	; 32
    18f4:	85 58       	subi	r24, 0x85	; 133
    18f6:	08 95       	ret

000018f8 <memcmp>:
    18f8:	fb 01       	movw	r30, r22
    18fa:	dc 01       	movw	r26, r24
    18fc:	04 c0       	rjmp	.+8      	; 0x1906 <memcmp+0xe>
    18fe:	8d 91       	ld	r24, X+
    1900:	01 90       	ld	r0, Z+
    1902:	80 19       	sub	r24, r0
    1904:	21 f4       	brne	.+8      	; 0x190e <memcmp+0x16>
    1906:	41 50       	subi	r20, 0x01	; 1
    1908:	50 40       	sbci	r21, 0x00	; 0
    190a:	c8 f7       	brcc	.-14     	; 0x18fe <memcmp+0x6>
    190c:	88 1b       	sub	r24, r24
    190e:	99 0b       	sbc	r25, r25
    1910:	08 95       	ret

00001912 <memcpy>:
    1912:	fb 01       	movw	r30, r22
    1914:	dc 01       	movw	r26, r24
    1916:	02 c0       	rjmp	.+4      	; 0x191c <memcpy+0xa>
    1918:	01 90       	ld	r0, Z+
    191a:	0d 92       	st	X+, r0
    191c:	41 50       	subi	r20, 0x01	; 1
    191e:	50 40       	sbci	r21, 0x00	; 0
    1920:	d8 f7       	brcc	.-10     	; 0x1918 <memcpy+0x6>
    1922:	08 95       	ret

00001924 <memset>:
    1924:	dc 01       	movw	r26, r24
    1926:	01 c0       	rjmp	.+2      	; 0x192a <memset+0x6>
    1928:	6d 93       	st	X+, r22
    192a:	41 50       	subi	r20, 0x01	; 1
    192c:	50 40       	sbci	r21, 0x00	; 0
    192e:	e0 f7       	brcc	.-8      	; 0x1928 <memset+0x4>
    1930:	08 95       	ret

00001932 <__eerd_block_m32u4>:
    1932:	dc 01       	movw	r26, r24
    1934:	cb 01       	movw	r24, r22

00001936 <__eerd_blraw_m32u4>:
    1936:	fc 01       	movw	r30, r24
    1938:	f9 99       	sbic	0x1f, 1	; 31
    193a:	fe cf       	rjmp	.-4      	; 0x1938 <__eerd_blraw_m32u4+0x2>
    193c:	06 c0       	rjmp	.+12     	; 0x194a <__eerd_blraw_m32u4+0x14>
    193e:	f2 bd       	out	0x22, r31	; 34
    1940:	e1 bd       	out	0x21, r30	; 33
    1942:	f8 9a       	sbi	0x1f, 0	; 31
    1944:	31 96       	adiw	r30, 0x01	; 1
    1946:	00 b4       	in	r0, 0x20	; 32
    1948:	0d 92       	st	X+, r0
    194a:	41 50       	subi	r20, 0x01	; 1
    194c:	50 40       	sbci	r21, 0x00	; 0
    194e:	b8 f7       	brcc	.-18     	; 0x193e <__eerd_blraw_m32u4+0x8>
    1950:	08 95       	ret

00001952 <_exit>:
    1952:	f8 94       	cli

00001954 <__stop_program>:
    1954:	ff cf       	rjmp	.-2      	; 0x1954 <__stop_program>
