
USB Typewriter P2S.elf:     file format elf32-avr

Sections:
Idx Name          Size      VMA       LMA       File off  Algn
  0 .data         000002de  00800100  00006ee8  00006f7c  2**0
                  CONTENTS, ALLOC, LOAD, DATA
  1 .text         00006ee8  00000000  00000000  00000094  2**1
                  CONTENTS, ALLOC, LOAD, READONLY, CODE
  2 .bss          000006a8  008003de  008003de  0000725a  2**0
                  ALLOC
  3 .comment      0000008c  00000000  00000000  0000725a  2**0
                  CONTENTS, READONLY
  4 .note.gnu.avr.deviceinfo 00000040  00000000  00000000  000072e8  2**2
                  CONTENTS, READONLY

Disassembly of section .text:

00000000 <__vectors>:
       0:	4d c2       	rjmp	.+1178   	; 0x49c <__ctors_end>
       2:	00 00       	nop
       4:	68 c2       	rjmp	.+1232   	; 0x4d6 <__bad_interrupt>
       6:	00 00       	nop
       8:	66 c2       	rjmp	.+1228   	; 0x4d6 <__bad_interrupt>
       a:	00 00       	nop
       c:	64 c2       	rjmp	.+1224   	; 0x4d6 <__bad_interrupt>
       e:	00 00       	nop
      10:	62 c2       	rjmp	.+1220   	; 0x4d6 <__bad_interrupt>
      12:	00 00       	nop
      14:	60 c2       	rjmp	.+1216   	; 0x4d6 <__bad_interrupt>
      16:	00 00       	nop
      18:	5e c2       	rjmp	.+1212   	; 0x4d6 <__bad_interrupt>
      1a:	00 00       	nop
      1c:	5c c2       	rjmp	.+1208   	; 0x4d6 <__bad_interrupt>
      1e:	00 00       	nop
      20:	5a c2       	rjmp	.+1204   	; 0x4d6 <__bad_interrupt>
      22:	00 00       	nop
      24:	58 c2       	rjmp	.+1200   	; 0x4d6 <__bad_interrupt>
      26:	00 00       	nop
      28:	0c 94 fc 30 	jmp	0x61f8	; 0x61f8 <__vector_10>
      2c:	54 c2       	rjmp	.+1192   	; 0x4d6 <__bad_interrupt>
      2e:	00 00       	nop
      30:	52 c2       	rjmp	.+1188   	; 0x4d6 <__bad_interrupt>
      32:	00 00       	nop
      34:	50 c2       	rjmp	.+1184   	; 0x4d6 <__bad_interrupt>
      36:	00 00       	nop
      38:	4e c2       	rjmp	.+1180   	; 0x4d6 <__bad_interrupt>
      3a:	00 00       	nop
      3c:	4c c2       	rjmp	.+1176   	; 0x4d6 <__bad_interrupt>
      3e:	00 00       	nop
      40:	4a c2       	rjmp	.+1172   	; 0x4d6 <__bad_interrupt>
      42:	00 00       	nop
      44:	0c 94 0e 23 	jmp	0x461c	; 0x461c <__vector_17>
      48:	46 c2       	rjmp	.+1164   	; 0x4d6 <__bad_interrupt>
      4a:	00 00       	nop
      4c:	44 c2       	rjmp	.+1160   	; 0x4d6 <__bad_interrupt>
      4e:	00 00       	nop
      50:	42 c2       	rjmp	.+1156   	; 0x4d6 <__bad_interrupt>
      52:	00 00       	nop
      54:	40 c2       	rjmp	.+1152   	; 0x4d6 <__bad_interrupt>
      56:	00 00       	nop
      58:	3e c2       	rjmp	.+1148   	; 0x4d6 <__bad_interrupt>
      5a:	00 00       	nop
      5c:	3c c2       	rjmp	.+1144   	; 0x4d6 <__bad_interrupt>
      5e:	00 00       	nop
      60:	3a c2       	rjmp	.+1140   	; 0x4d6 <__bad_interrupt>
      62:	00 00       	nop
      64:	0c 94 6a 22 	jmp	0x44d4	; 0x44d4 <__vector_25>
      68:	0c 94 98 22 	jmp	0x4530	; 0x4530 <__vector_26>
      6c:	34 c2       	rjmp	.+1128   	; 0x4d6 <__bad_interrupt>
      6e:	00 00       	nop
      70:	32 c2       	rjmp	.+1124   	; 0x4d6 <__bad_interrupt>
      72:	00 00       	nop
      74:	30 c2       	rjmp	.+1120   	; 0x4d6 <__bad_interrupt>
      76:	00 00       	nop
      78:	2e c2       	rjmp	.+1116   	; 0x4d6 <__bad_interrupt>
      7a:	00 00       	nop
      7c:	2c c2       	rjmp	.+1112   	; 0x4d6 <__bad_interrupt>
      7e:	00 00       	nop
      80:	2a c2       	rjmp	.+1108   	; 0x4d6 <__bad_interrupt>
      82:	00 00       	nop
      84:	28 c2       	rjmp	.+1104   	; 0x4d6 <__bad_interrupt>
      86:	00 00       	nop
      88:	26 c2       	rjmp	.+1100   	; 0x4d6 <__bad_interrupt>
      8a:	00 00       	nop
      8c:	24 c2       	rjmp	.+1096   	; 0x4d6 <__bad_interrupt>
      8e:	00 00       	nop
      90:	22 c2       	rjmp	.+1092   	; 0x4d6 <__bad_interrupt>
      92:	00 00       	nop
      94:	20 c2       	rjmp	.+1088   	; 0x4d6 <__bad_interrupt>
      96:	00 00       	nop
      98:	1e c2       	rjmp	.+1084   	; 0x4d6 <__bad_interrupt>
      9a:	00 00       	nop
      9c:	1c c2       	rjmp	.+1080   	; 0x4d6 <__bad_interrupt>
      9e:	00 00       	nop
      a0:	1a c2       	rjmp	.+1076   	; 0x4d6 <__bad_interrupt>
      a2:	00 00       	nop
      a4:	0c 94 de 09 	jmp	0x13bc	; 0x13bc <__vector_41>
      a8:	16 c2       	rjmp	.+1068   	; 0x4d6 <__bad_interrupt>
	...

000000ac <Str_Settings_Saved>:
      ac:	53 45 54 54 49 4e 47 53 20 53 41 56 45 44 21 0d     SETTINGS SAVED!.
	...

000000bd <Str_Spacebar_Blocks_Enter>:
      bd:	0d 49 47 4e 4f 52 45 20 45 4e 54 45 52 20 4b 45     .IGNORE ENTER KE
      cd:	59 20 57 48 45 4e 20 53 50 41 43 45 42 41 52 20     Y WHEN SPACEBAR 
      dd:	49 53 20 48 45 4c 44 3f 0d 00                       IS HELD?..

000000e7 <Str_Set_Reed_Time>:
      e7:	0d 4e 4f 57 20 53 45 54 20 52 45 45 44 20 52 45     .NOW SET REED RE
      f7:	41 43 54 49 4f 4e 20 54 49 4d 45 2e 2e 2e 0d 00     ACTION TIME.....

00000107 <Str_Set_Double_Time>:
     107:	0d 4e 4f 57 20 53 45 54 20 44 45 4c 41 59 20 42     .NOW SET DELAY B
     117:	45 54 57 45 45 4e 20 44 4f 55 42 4c 45 20 4b 45     ETWEEN DOUBLE KE
     127:	59 20 50 52 45 53 53 45 53 2e 2e 2e 0d 00           Y PRESSES.....

00000135 <Str_Set_Release_Time>:
     135:	0d 4e 4f 57 20 53 45 54 20 4b 45 59 20 52 45 4c     .NOW SET KEY REL
     145:	45 41 53 45 20 54 49 4d 45 2e 2e 2e 0d 00           EASE TIME.....

00000153 <Str_Set_Reaction_Time>:
     153:	50 52 45 53 53 20 43 54 52 4c 20 41 4e 44 20 41     PRESS CTRL AND A
     163:	4c 54 20 54 4f 20 53 45 54 20 4b 45 59 20 52 45     LT TO SET KEY RE
     173:	41 43 54 49 4f 4e 20 54 49 4d 45 2e 2e 2e 0d 00     ACTION TIME.....

00000183 <Str_Press_CMD>:
     183:	50 52 45 53 53 20 43 4d 44 20 4b 45 59 20 54 4f     PRESS CMD KEY TO
     193:	20 43 4f 4e 54 49 4e 55 45 2e 2e 2e 0d 00            CONTINUE.....

000001a1 <Str_Adj_Sensitivity>:
     1a1:	41 44 4a 55 53 54 49 4e 47 20 4b 45 59 20 53 45     ADJUSTING KEY SE
     1b1:	4e 53 49 54 49 56 49 54 59 2e 0d 00                 NSITIVITY...

000001bd <Str_No_Hall>:
     1bd:	4e 4f 20 48 41 4c 4c 20 45 46 46 45 43 54 20 53     NO HALL EFFECT S
     1cd:	45 4e 53 4f 52 20 44 45 54 45 43 54 45 44 2e 20     ENSOR DETECTED. 
     1dd:	28 4e 4f 54 20 41 20 50 52 4f 42 4c 45 4d 29 0d     (NOT A PROBLEM).
	...

000001ee <Str_Calibrate_Hall>:
     1ee:	48 4f 4c 44 20 44 4f 57 4e 20 41 4e 59 20 4b 45     HOLD DOWN ANY KE
     1fe:	59 20 54 4f 20 43 41 4c 49 42 52 41 54 45 20 48     Y TO CALIBRATE H
     20e:	41 4c 4c 20 45 46 46 45 43 54 20 53 45 4e 53 4f     ALL EFFECT SENSO
     21e:	52 2e 2e 2e 0d 00                                   R.....

00000224 <Str_Backspace>:
     224:	42 41 43 4b 53 50 41 43 45 00                       BACKSPACE.

0000022e <Str_Post>:
     22e:	53 45 4e 44 00                                      SEND.

00000233 <Str_Second_Enter>:
     233:	53 45 43 4f 4e 44 41 52 59 20 45 4e 54 45 52 00     SECONDARY ENTER.

00000243 <Str_Enter>:
     243:	45 4e 54 45 52 00                                   ENTER.

00000249 <Str_Spacebar>:
     249:	53 50 41 43 45 42 41 52 00                          SPACEBAR.

00000252 <Str_Quick_Calibrate>:
     252:	51 55 49 43 4b 20 43 41 4c 49 42 52 41 54 49 4f     QUICK CALIBRATIO
     262:	4e 20 4d 4f 44 45 2e 2e 2e 0d 00                    N MODE.....

0000026d <Str_No_Dummy_Load>:
     26d:	44 55 4d 4d 59 20 4c 4f 41 44 20 44 45 41 43 54     DUMMY LOAD DEACT
     27d:	49 56 41 54 45 44 0d 00                             IVATED..

00000285 <Str_Dummy_Load>:
     285:	44 55 4d 4d 59 20 4c 4f 41 44 20 41 43 54 49 56     DUMMY LOAD ACTIV
     295:	41 54 45 44 0d 00                                   ATED..

0000029b <Str_Shift_Error>:
     29b:	45 52 52 4f 52 2e 2e 2e 53 48 49 46 54 20 4d 55     ERROR...SHIFT MU
     2ab:	53 54 20 42 45 20 41 20 52 45 45 44 20 53 57 49     ST BE A REED SWI
     2bb:	54 43 48 2e 0d 00                                   TCH...

000002c1 <Str_Type_The_Following>:
     2c1:	54 59 50 45 20 54 48 45 20 46 4f 4c 4c 4f 57 49     TYPE THE FOLLOWI
     2d1:	4e 47 20 4b 45 59 53 20 28 50 52 45 53 53 20 53     NG KEYS (PRESS S
     2e1:	50 41 43 45 20 54 4f 20 53 4b 49 50 29 2e 2e 2e     PACE TO SKIP)...
     2f1:	0d 00                                               ..

000002f3 <Str_Calibrating>:
     2f3:	43 41 4c 49 42 52 41 54 49 4e 47 2e 2e 2e 0d 00     CALIBRATING.....

00000303 <Str_SD_Mode>:
     303:	53 44 20 43 41 52 44 20 53 54 4f 52 41 47 45 20     SD CARD STORAGE 
     313:	4d 4f 44 45 0d 00                                   MODE..

00000319 <Str_Combo_Mode>:
     319:	55 53 42 20 4b 45 59 42 4f 41 52 44 2f 43 41 52     USB KEYBOARD/CAR
     329:	44 20 52 45 41 44 45 52 20 4d 4f 44 45 0d 00        D READER MODE..

00000338 <Str_Light_Mode>:
     338:	4c 49 47 48 54 20 4d 4f 44 45 20 28 53 44 20 43     LIGHT MODE (SD C
     348:	41 52 44 20 52 45 41 44 45 52 20 44 49 53 41 42     ARD READER DISAB
     358:	4c 45 44 29 0d 00                                   LED)..

0000035e <Str_BT_Mode>:
     35e:	42 4c 55 45 54 4f 4f 54 48 20 4b 45 59 42 4f 41     BLUETOOTH KEYBOA
     36e:	52 44 20 4d 4f 44 45 0d 00                          RD MODE..

00000377 <Str_Typewriter_Mode>:
     377:	44 45 46 41 55 4c 54 20 53 45 54 54 49 4e 47 3a     DEFAULT SETTING:
     387:	20 00                                                .

00000389 <Str_Firmware_Ver>:
     389:	46 49 52 4d 57 41 52 45 20 56 45 52 20 35 2e 33     FIRMWARE VER 5.3
     399:	2e 30 2e 45 00                                      .0.E.

0000039e <Str_USB_Typewriter>:
     39e:	55 53 42 20 54 59 50 45 57 52 49 54 45 52 20 28     USB TYPEWRITER (
     3ae:	54 4d 29 0d 00                                      TM)..

000003b3 <ProductString>:
     3b3:	30 03 55 00 53 00 42 00 20 00 54 00 79 00 70 00     0.U.S.B. .T.y.p.
     3c3:	65 00 77 00 72 00 69 00 74 00 65 00 72 00 20 00     e.w.r.i.t.e.r. .
     3d3:	4b 00 65 00 79 00 62 00 6f 00 61 00 72 00 64 00     K.e.y.b.o.a.r.d.
	...

000003e5 <ManufacturerString>:
     3e5:	26 03 55 00 53 00 42 00 20 00 54 00 59 00 50 00     &.U.S.B. .T.Y.P.
     3f5:	45 00 57 00 52 00 49 00 54 00 45 00 52 00 20 00     E.W.R.I.T.E.R. .
     405:	4c 00 4c 00 43 00 00 00                             L.L.C...

0000040d <LanguageString>:
     40d:	04 03 09 04                                         ....

00000411 <ConfigurationDescriptor>:
     411:	09 02 39 00 02 01 00 80 07 09 04 00 00 02 08 06     ..9.............
     421:	50 00 07 05 83 02 40 00 05 07 05 04 02 40 00 05     P.....@......@..
     431:	09 04 01 00 01 03 01 01 00 09 21 11 01 00 01 22     ..........!...."
     441:	3f 00 07 05 81 03 08 00 05                          ?........

0000044a <DeviceDescriptor>:
     44a:	12 01 10 01 00 00 00 08 eb 03 61 20 86 00 01 02     ..........a ....
     45a:	dc 01                                               ..

0000045c <KeyboardReport>:
     45c:	05 01 09 06 a1 01 05 07 19 e0 29 e7 15 00 25 01     ..........)...%.
     46c:	75 01 95 08 81 02 95 01 75 08 81 01 05 08 19 01     u.......u.......
     47c:	29 05 95 05 75 01 91 02 95 01 75 03 91 01 15 00     )...u.....u.....
     48c:	25 ff 05 07 19 00 29 ff 95 06 75 08 81 00 c0 00     %.....)...u.....

0000049c <__ctors_end>:
     49c:	11 24       	eor	r1, r1
     49e:	1f be       	out	0x3f, r1	; 63
     4a0:	cf ef       	ldi	r28, 0xFF	; 255
     4a2:	da e0       	ldi	r29, 0x0A	; 10
     4a4:	de bf       	out	0x3e, r29	; 62
     4a6:	cd bf       	out	0x3d, r28	; 61

000004a8 <__do_copy_data>:
     4a8:	13 e0       	ldi	r17, 0x03	; 3
     4aa:	a0 e0       	ldi	r26, 0x00	; 0
     4ac:	b1 e0       	ldi	r27, 0x01	; 1
     4ae:	e8 ee       	ldi	r30, 0xE8	; 232
     4b0:	fe e6       	ldi	r31, 0x6E	; 110
     4b2:	02 c0       	rjmp	.+4      	; 0x4b8 <__do_copy_data+0x10>
     4b4:	05 90       	lpm	r0, Z+
     4b6:	0d 92       	st	X+, r0
     4b8:	ae 3d       	cpi	r26, 0xDE	; 222
     4ba:	b1 07       	cpc	r27, r17
     4bc:	d9 f7       	brne	.-10     	; 0x4b4 <__do_copy_data+0xc>

000004be <__do_clear_bss>:
     4be:	2a e0       	ldi	r18, 0x0A	; 10
     4c0:	ae ed       	ldi	r26, 0xDE	; 222
     4c2:	b3 e0       	ldi	r27, 0x03	; 3
     4c4:	01 c0       	rjmp	.+2      	; 0x4c8 <.do_clear_bss_start>

000004c6 <.do_clear_bss_loop>:
     4c6:	1d 92       	st	X+, r1

000004c8 <.do_clear_bss_start>:
     4c8:	a6 38       	cpi	r26, 0x86	; 134
     4ca:	b2 07       	cpc	r27, r18
     4cc:	e1 f7       	brne	.-8      	; 0x4c6 <.do_clear_bss_loop>
     4ce:	0e 94 af 24 	call	0x495e	; 0x495e <main>
     4d2:	0c 94 72 37 	jmp	0x6ee4	; 0x6ee4 <_exit>

000004d6 <__bad_interrupt>:
     4d6:	94 cd       	rjmp	.-1240   	; 0x0 <__vectors>

000004d8 <Bluetooth_Reset>:
     4d8:	8f 98       	cbi	0x11, 7	; 17
     4da:	2f e7       	ldi	r18, 0x7F	; 127
     4dc:	88 e3       	ldi	r24, 0x38	; 56
     4de:	91 e0       	ldi	r25, 0x01	; 1
     4e0:	21 50       	subi	r18, 0x01	; 1
     4e2:	80 40       	sbci	r24, 0x00	; 0
     4e4:	90 40       	sbci	r25, 0x00	; 0
     4e6:	e1 f7       	brne	.-8      	; 0x4e0 <Bluetooth_Reset+0x8>
     4e8:	00 c0       	rjmp	.+0      	; 0x4ea <Bluetooth_Reset+0x12>
     4ea:	00 00       	nop
     4ec:	8f 9a       	sbi	0x11, 7	; 17
     4ee:	2f ef       	ldi	r18, 0xFF	; 255
     4f0:	84 e3       	ldi	r24, 0x34	; 52
     4f2:	9c e0       	ldi	r25, 0x0C	; 12
     4f4:	21 50       	subi	r18, 0x01	; 1
     4f6:	80 40       	sbci	r24, 0x00	; 0
     4f8:	90 40       	sbci	r25, 0x00	; 0
     4fa:	e1 f7       	brne	.-8      	; 0x4f4 <Bluetooth_Reset+0x1c>
     4fc:	00 c0       	rjmp	.+0      	; 0x4fe <Bluetooth_Reset+0x26>
     4fe:	00 00       	nop
     500:	76 98       	cbi	0x0e, 6	; 14
     502:	8f e0       	ldi	r24, 0x0F	; 15
     504:	97 e2       	ldi	r25, 0x27	; 39
     506:	01 97       	sbiw	r24, 0x01	; 1
     508:	f1 f7       	brne	.-4      	; 0x506 <Bluetooth_Reset+0x2e>
     50a:	00 c0       	rjmp	.+0      	; 0x50c <Bluetooth_Reset+0x34>
     50c:	00 00       	nop
     50e:	08 95       	ret

00000510 <Get_Response>:
     510:	0f 93       	push	r16
     512:	1f 93       	push	r17
     514:	cf 93       	push	r28
     516:	81 11       	cpse	r24, r1
     518:	02 c0       	rjmp	.+4      	; 0x51e <Get_Response+0xe>
     51a:	81 e0       	ldi	r24, 0x01	; 1
     51c:	30 c0       	rjmp	.+96     	; 0x57e <Get_Response+0x6e>
     51e:	2f ef       	ldi	r18, 0xFF	; 255
     520:	80 e7       	ldi	r24, 0x70	; 112
     522:	92 e0       	ldi	r25, 0x02	; 2
     524:	21 50       	subi	r18, 0x01	; 1
     526:	80 40       	sbci	r24, 0x00	; 0
     528:	90 40       	sbci	r25, 0x00	; 0
     52a:	e1 f7       	brne	.-8      	; 0x524 <Get_Response+0x14>
     52c:	00 c0       	rjmp	.+0      	; 0x52e <Get_Response+0x1e>
     52e:	00 00       	nop
     530:	10 92 a3 06 	sts	0x06A3, r1
     534:	10 92 a4 06 	sts	0x06A4, r1
     538:	10 92 a5 06 	sts	0x06A5, r1
     53c:	10 92 a7 06 	sts	0x06A7, r1
     540:	03 ea       	ldi	r16, 0xA3	; 163
     542:	16 e0       	ldi	r17, 0x06	; 6
     544:	c0 e0       	ldi	r28, 0x00	; 0
     546:	0e 94 db 22 	call	0x45b6	; 0x45b6 <uart_getc>
     54a:	9c 01       	movw	r18, r24
     54c:	22 27       	eor	r18, r18
     54e:	23 2b       	or	r18, r19
     550:	31 f0       	breq	.+12     	; 0x55e <Get_Response+0x4e>
     552:	ec 2f       	mov	r30, r28
     554:	f0 e0       	ldi	r31, 0x00	; 0
     556:	ed 55       	subi	r30, 0x5D	; 93
     558:	f9 4f       	sbci	r31, 0xF9	; 249
     55a:	10 82       	st	Z, r1
     55c:	06 c0       	rjmp	.+12     	; 0x56a <Get_Response+0x5a>
     55e:	f8 01       	movw	r30, r16
     560:	81 93       	st	Z+, r24
     562:	8f 01       	movw	r16, r30
     564:	cf 5f       	subi	r28, 0xFF	; 255
     566:	c0 34       	cpi	r28, 0x40	; 64
     568:	71 f7       	brne	.-36     	; 0x546 <Get_Response+0x36>
     56a:	80 91 a3 06 	lds	r24, 0x06A3
     56e:	8f 34       	cpi	r24, 0x4F	; 79
     570:	a1 f2       	breq	.-88     	; 0x51a <Get_Response+0xa>
     572:	81 e0       	ldi	r24, 0x01	; 1
     574:	90 91 a5 06 	lds	r25, 0x06A5
     578:	9d 33       	cpi	r25, 0x3D	; 61
     57a:	09 f0       	breq	.+2      	; 0x57e <Get_Response+0x6e>
     57c:	80 e0       	ldi	r24, 0x00	; 0
     57e:	cf 91       	pop	r28
     580:	1f 91       	pop	r17
     582:	0f 91       	pop	r16
     584:	08 95       	ret

00000586 <Bluetooth_Send_CMD>:
     586:	ef 92       	push	r14
     588:	ff 92       	push	r15
     58a:	1f 93       	push	r17
     58c:	cf 93       	push	r28
     58e:	df 93       	push	r29
     590:	00 d0       	rcall	.+0      	; 0x592 <Bluetooth_Send_CMD+0xc>
     592:	cd b7       	in	r28, 0x3d	; 61
     594:	de b7       	in	r29, 0x3e	; 62
     596:	16 2f       	mov	r17, r22
     598:	89 83       	std	Y+1, r24	; 0x01
     59a:	9a 83       	std	Y+2, r25	; 0x02
     59c:	0e 94 f4 22 	call	0x45e8	; 0x45e8 <uart_clear_rx_buffer>
     5a0:	89 81       	ldd	r24, Y+1	; 0x01
     5a2:	e8 2e       	mov	r14, r24
     5a4:	9a 81       	ldd	r25, Y+2	; 0x02
     5a6:	f9 2e       	mov	r15, r25
     5a8:	f7 01       	movw	r30, r14
     5aa:	81 91       	ld	r24, Z+
     5ac:	7f 01       	movw	r14, r30
     5ae:	88 23       	and	r24, r24
     5b0:	19 f0       	breq	.+6      	; 0x5b8 <Bluetooth_Send_CMD+0x32>
     5b2:	0e 94 f9 22 	call	0x45f2	; 0x45f2 <uart_putc>
     5b6:	f8 cf       	rjmp	.-16     	; 0x5a8 <Bluetooth_Send_CMD+0x22>
     5b8:	8d e0       	ldi	r24, 0x0D	; 13
     5ba:	0e 94 f9 22 	call	0x45f2	; 0x45f2 <uart_putc>
     5be:	8a e0       	ldi	r24, 0x0A	; 10
     5c0:	0e 94 f9 22 	call	0x45f2	; 0x45f2 <uart_putc>
     5c4:	81 2f       	mov	r24, r17
     5c6:	0f 90       	pop	r0
     5c8:	0f 90       	pop	r0
     5ca:	df 91       	pop	r29
     5cc:	cf 91       	pop	r28
     5ce:	1f 91       	pop	r17
     5d0:	ff 90       	pop	r15
     5d2:	ef 90       	pop	r14
     5d4:	9d cf       	rjmp	.-198    	; 0x510 <Get_Response>

000005d6 <Bluetooth_Send>:
     5d6:	ef 92       	push	r14
     5d8:	ff 92       	push	r15
     5da:	0f 93       	push	r16
     5dc:	1f 93       	push	r17
     5de:	cf 93       	push	r28
     5e0:	df 93       	push	r29
     5e2:	cd b7       	in	r28, 0x3d	; 61
     5e4:	de b7       	in	r29, 0x3e	; 62
     5e6:	a4 97       	sbiw	r28, 0x24	; 36
     5e8:	0f b6       	in	r0, 0x3f	; 63
     5ea:	f8 94       	cli
     5ec:	de bf       	out	0x3e, r29	; 62
     5ee:	0f be       	out	0x3f, r0	; 63
     5f0:	cd bf       	out	0x3d, r28	; 61
     5f2:	18 2f       	mov	r17, r24
     5f4:	06 2f       	mov	r16, r22
     5f6:	84 e2       	ldi	r24, 0x24	; 36
     5f8:	ea e9       	ldi	r30, 0x9A	; 154
     5fa:	f1 e0       	ldi	r31, 0x01	; 1
     5fc:	9e 01       	movw	r18, r28
     5fe:	2f 5f       	subi	r18, 0xFF	; 255
     600:	3f 4f       	sbci	r19, 0xFF	; 255
     602:	79 01       	movw	r14, r18
     604:	d9 01       	movw	r26, r18
     606:	01 90       	ld	r0, Z+
     608:	0d 92       	st	X+, r0
     60a:	8a 95       	dec	r24
     60c:	e1 f7       	brne	.-8      	; 0x606 <Bluetooth_Send+0x30>
     60e:	60 e0       	ldi	r22, 0x00	; 0
     610:	89 e6       	ldi	r24, 0x69	; 105
     612:	91 e0       	ldi	r25, 0x01	; 1
     614:	b8 df       	rcall	.-144    	; 0x586 <Bluetooth_Send_CMD>
     616:	8f ec       	ldi	r24, 0xCF	; 207
     618:	97 e0       	ldi	r25, 0x07	; 7
     61a:	01 97       	sbiw	r24, 0x01	; 1
     61c:	f1 f7       	brne	.-4      	; 0x61a <Bluetooth_Send+0x44>
     61e:	00 c0       	rjmp	.+0      	; 0x620 <Bluetooth_Send+0x4a>
     620:	00 00       	nop
     622:	17 ff       	sbrs	r17, 7
     624:	02 c0       	rjmp	.+4      	; 0x62a <Bluetooth_Send+0x54>
     626:	1f 77       	andi	r17, 0x7F	; 127
     628:	02 e0       	ldi	r16, 0x02	; 2
     62a:	14 37       	cpi	r17, 0x74	; 116
     62c:	11 f4       	brne	.+4      	; 0x632 <Bluetooth_Send+0x5c>
     62e:	01 e0       	ldi	r16, 0x01	; 1
     630:	18 e2       	ldi	r17, 0x28	; 40
     632:	1f 92       	push	r1
     634:	1f 93       	push	r17
     636:	1f 92       	push	r1
     638:	0f 93       	push	r16
     63a:	02 e7       	ldi	r16, 0x72	; 114
     63c:	11 e0       	ldi	r17, 0x01	; 1
     63e:	1f 93       	push	r17
     640:	0f 93       	push	r16
     642:	ff 92       	push	r15
     644:	ef 92       	push	r14
     646:	0e 94 63 34 	call	0x68c6	; 0x68c6 <sprintf>
     64a:	60 e0       	ldi	r22, 0x00	; 0
     64c:	c7 01       	movw	r24, r14
     64e:	9b df       	rcall	.-202    	; 0x586 <Bluetooth_Send_CMD>
     650:	8f ec       	ldi	r24, 0xCF	; 207
     652:	97 e0       	ldi	r25, 0x07	; 7
     654:	01 97       	sbiw	r24, 0x01	; 1
     656:	f1 f7       	brne	.-4      	; 0x654 <Bluetooth_Send+0x7e>
     658:	00 c0       	rjmp	.+0      	; 0x65a <Bluetooth_Send+0x84>
     65a:	00 00       	nop
     65c:	1f 92       	push	r1
     65e:	1f 92       	push	r1
     660:	1f 92       	push	r1
     662:	1f 92       	push	r1
     664:	1f 93       	push	r17
     666:	0f 93       	push	r16
     668:	ff 92       	push	r15
     66a:	ef 92       	push	r14
     66c:	0e 94 63 34 	call	0x68c6	; 0x68c6 <sprintf>
     670:	60 e0       	ldi	r22, 0x00	; 0
     672:	c7 01       	movw	r24, r14
     674:	88 df       	rcall	.-240    	; 0x586 <Bluetooth_Send_CMD>
     676:	0f b6       	in	r0, 0x3f	; 63
     678:	f8 94       	cli
     67a:	de bf       	out	0x3e, r29	; 62
     67c:	0f be       	out	0x3f, r0	; 63
     67e:	cd bf       	out	0x3d, r28	; 61
     680:	a4 96       	adiw	r28, 0x24	; 36
     682:	0f b6       	in	r0, 0x3f	; 63
     684:	f8 94       	cli
     686:	de bf       	out	0x3e, r29	; 62
     688:	0f be       	out	0x3f, r0	; 63
     68a:	cd bf       	out	0x3d, r28	; 61
     68c:	df 91       	pop	r29
     68e:	cf 91       	pop	r28
     690:	1f 91       	pop	r17
     692:	0f 91       	pop	r16
     694:	ff 90       	pop	r15
     696:	ef 90       	pop	r14
     698:	08 95       	ret

0000069a <Bluetooth_Init>:
     69a:	1e df       	rcall	.-452    	; 0x4d8 <Bluetooth_Reset>
     69c:	2f ef       	ldi	r18, 0xFF	; 255
     69e:	89 e6       	ldi	r24, 0x69	; 105
     6a0:	98 e1       	ldi	r25, 0x18	; 24
     6a2:	21 50       	subi	r18, 0x01	; 1
     6a4:	80 40       	sbci	r24, 0x00	; 0
     6a6:	90 40       	sbci	r25, 0x00	; 0
     6a8:	e1 f7       	brne	.-8      	; 0x6a2 <Bluetooth_Init+0x8>
     6aa:	00 c0       	rjmp	.+0      	; 0x6ac <Bluetooth_Init+0x12>
     6ac:	00 00       	nop
     6ae:	81 e0       	ldi	r24, 0x01	; 1
     6b0:	2f df       	rcall	.-418    	; 0x510 <Get_Response>
     6b2:	61 e0       	ldi	r22, 0x01	; 1
     6b4:	8e eb       	ldi	r24, 0xBE	; 190
     6b6:	91 e0       	ldi	r25, 0x01	; 1
     6b8:	66 df       	rcall	.-308    	; 0x586 <Bluetooth_Send_CMD>
     6ba:	2f ef       	ldi	r18, 0xFF	; 255
     6bc:	89 e6       	ldi	r24, 0x69	; 105
     6be:	98 e1       	ldi	r25, 0x18	; 24
     6c0:	21 50       	subi	r18, 0x01	; 1
     6c2:	80 40       	sbci	r24, 0x00	; 0
     6c4:	90 40       	sbci	r25, 0x00	; 0
     6c6:	e1 f7       	brne	.-8      	; 0x6c0 <Bluetooth_Init+0x26>
     6c8:	00 c0       	rjmp	.+0      	; 0x6ca <Bluetooth_Init+0x30>
     6ca:	00 00       	nop
     6cc:	81 e0       	ldi	r24, 0x01	; 1
     6ce:	80 93 e3 06 	sts	0x06E3, r24
     6d2:	08 95       	ret

000006d4 <Bluetooth_Configure>:
     6d4:	cf 93       	push	r28
     6d6:	e1 df       	rcall	.-62     	; 0x69a <Bluetooth_Init>
     6d8:	61 e0       	ldi	r22, 0x01	; 1
     6da:	89 e6       	ldi	r24, 0x69	; 105
     6dc:	91 e0       	ldi	r25, 0x01	; 1
     6de:	53 df       	rcall	.-346    	; 0x586 <Bluetooth_Send_CMD>
     6e0:	c8 2f       	mov	r28, r24
     6e2:	61 e0       	ldi	r22, 0x01	; 1
     6e4:	8a ec       	ldi	r24, 0xCA	; 202
     6e6:	91 e0       	ldi	r25, 0x01	; 1
     6e8:	4e df       	rcall	.-356    	; 0x586 <Bluetooth_Send_CMD>
     6ea:	61 e0       	ldi	r22, 0x01	; 1
     6ec:	8e eb       	ldi	r24, 0xBE	; 190
     6ee:	91 e0       	ldi	r25, 0x01	; 1
     6f0:	4a df       	rcall	.-364    	; 0x586 <Bluetooth_Send_CMD>
     6f2:	61 e0       	ldi	r22, 0x01	; 1
     6f4:	82 ee       	ldi	r24, 0xE2	; 226
     6f6:	91 e0       	ldi	r25, 0x01	; 1
     6f8:	46 df       	rcall	.-372    	; 0x586 <Bluetooth_Send_CMD>
     6fa:	2f ef       	ldi	r18, 0xFF	; 255
     6fc:	84 e3       	ldi	r24, 0x34	; 52
     6fe:	9c e0       	ldi	r25, 0x0C	; 12
     700:	21 50       	subi	r18, 0x01	; 1
     702:	80 40       	sbci	r24, 0x00	; 0
     704:	90 40       	sbci	r25, 0x00	; 0
     706:	e1 f7       	brne	.-8      	; 0x700 <Bluetooth_Configure+0x2c>
     708:	00 c0       	rjmp	.+0      	; 0x70a <Bluetooth_Configure+0x36>
     70a:	00 00       	nop
     70c:	61 e0       	ldi	r22, 0x01	; 1
     70e:	87 ef       	ldi	r24, 0xF7	; 247
     710:	91 e0       	ldi	r25, 0x01	; 1
     712:	39 df       	rcall	.-398    	; 0x586 <Bluetooth_Send_CMD>
     714:	61 e0       	ldi	r22, 0x01	; 1
     716:	81 e1       	ldi	r24, 0x11	; 17
     718:	92 e0       	ldi	r25, 0x02	; 2
     71a:	35 df       	rcall	.-406    	; 0x586 <Bluetooth_Send_CMD>
     71c:	61 e0       	ldi	r22, 0x01	; 1
     71e:	8a e1       	ldi	r24, 0x1A	; 26
     720:	92 e0       	ldi	r25, 0x02	; 2
     722:	31 df       	rcall	.-414    	; 0x586 <Bluetooth_Send_CMD>
     724:	61 e0       	ldi	r22, 0x01	; 1
     726:	83 e2       	ldi	r24, 0x23	; 35
     728:	92 e0       	ldi	r25, 0x02	; 2
     72a:	2d df       	rcall	.-422    	; 0x586 <Bluetooth_Send_CMD>
     72c:	8c 2f       	mov	r24, r28
     72e:	cf 91       	pop	r28
     730:	08 95       	ret

00000732 <BluetoothInquire>:
     732:	61 e0       	ldi	r22, 0x01	; 1
     734:	83 e2       	ldi	r24, 0x23	; 35
     736:	92 e0       	ldi	r25, 0x02	; 2
     738:	26 cf       	rjmp	.-436    	; 0x586 <Bluetooth_Send_CMD>

0000073a <Get_Bluetooth_State>:
     73a:	80 91 e3 06 	lds	r24, 0x06E3
     73e:	08 95       	ret

00000740 <Bluetooth_Connect>:
     740:	cf 93       	push	r28
     742:	df 93       	push	r29
     744:	00 d0       	rcall	.+0      	; 0x746 <Bluetooth_Connect+0x6>
     746:	00 d0       	rcall	.+0      	; 0x748 <Bluetooth_Connect+0x8>
     748:	cd b7       	in	r28, 0x3d	; 61
     74a:	de b7       	in	r29, 0x3e	; 62
     74c:	8d e4       	ldi	r24, 0x4D	; 77
     74e:	94 e4       	ldi	r25, 0x44	; 68
     750:	ad e3       	ldi	r26, 0x3D	; 61
     752:	b0 e0       	ldi	r27, 0x00	; 0
     754:	89 83       	std	Y+1, r24	; 0x01
     756:	9a 83       	std	Y+2, r25	; 0x02
     758:	ab 83       	std	Y+3, r26	; 0x03
     75a:	bc 83       	std	Y+4, r27	; 0x04
     75c:	8b e3       	ldi	r24, 0x3B	; 59
     75e:	92 e0       	ldi	r25, 0x02	; 2
     760:	0e 94 f2 25 	call	0x4be4	; 0x4be4 <USBSendString>
     764:	2f ef       	ldi	r18, 0xFF	; 255
     766:	89 e6       	ldi	r24, 0x69	; 105
     768:	98 e1       	ldi	r25, 0x18	; 24
     76a:	21 50       	subi	r18, 0x01	; 1
     76c:	80 40       	sbci	r24, 0x00	; 0
     76e:	90 40       	sbci	r25, 0x00	; 0
     770:	e1 f7       	brne	.-8      	; 0x76a <Bluetooth_Connect+0x2a>
     772:	00 c0       	rjmp	.+0      	; 0x774 <Bluetooth_Connect+0x34>
     774:	00 00       	nop
     776:	60 e0       	ldi	r22, 0x00	; 0
     778:	89 e6       	ldi	r24, 0x69	; 105
     77a:	91 e0       	ldi	r25, 0x01	; 1
     77c:	04 df       	rcall	.-504    	; 0x586 <Bluetooth_Send_CMD>
     77e:	61 e0       	ldi	r22, 0x01	; 1
     780:	84 e4       	ldi	r24, 0x44	; 68
     782:	92 e0       	ldi	r25, 0x02	; 2
     784:	00 df       	rcall	.-512    	; 0x586 <Bluetooth_Send_CMD>
     786:	be 01       	movw	r22, r28
     788:	6f 5f       	subi	r22, 0xFF	; 255
     78a:	7f 4f       	sbci	r23, 0xFF	; 255
     78c:	83 ea       	ldi	r24, 0xA3	; 163
     78e:	96 e0       	ldi	r25, 0x06	; 6
     790:	0e 94 15 34 	call	0x682a	; 0x682a <strtok>
     794:	be 01       	movw	r22, r28
     796:	6f 5f       	subi	r22, 0xFF	; 255
     798:	7f 4f       	sbci	r23, 0xFF	; 255
     79a:	80 e0       	ldi	r24, 0x00	; 0
     79c:	90 e0       	ldi	r25, 0x00	; 0
     79e:	0e 94 15 34 	call	0x682a	; 0x682a <strtok>
     7a2:	00 97       	sbiw	r24, 0x00	; 0
     7a4:	41 f0       	breq	.+16     	; 0x7b6 <Bluetooth_Connect+0x76>
     7a6:	fc 01       	movw	r30, r24
     7a8:	81 81       	ldd	r24, Z+1	; 0x01
     7aa:	80 33       	cpi	r24, 0x30	; 48
     7ac:	21 f4       	brne	.+8      	; 0x7b6 <Bluetooth_Connect+0x76>
     7ae:	61 e0       	ldi	r22, 0x01	; 1
     7b0:	8a e4       	ldi	r24, 0x4A	; 74
     7b2:	92 e0       	ldi	r25, 0x02	; 2
     7b4:	e8 de       	rcall	.-560    	; 0x586 <Bluetooth_Send_CMD>
     7b6:	81 e0       	ldi	r24, 0x01	; 1
     7b8:	0f 90       	pop	r0
     7ba:	0f 90       	pop	r0
     7bc:	0f 90       	pop	r0
     7be:	0f 90       	pop	r0
     7c0:	df 91       	pop	r29
     7c2:	cf 91       	pop	r28
     7c4:	08 95       	ret

000007c6 <SaveCalibration>:
     7c6:	80 e5       	ldi	r24, 0x50	; 80
     7c8:	92 e0       	ldi	r25, 0x02	; 2
     7ca:	0e 94 f2 25 	call	0x4be4	; 0x4be4 <USBSendString>
     7ce:	40 e4       	ldi	r20, 0x40	; 64
     7d0:	50 e0       	ldi	r21, 0x00	; 0
     7d2:	60 e0       	ldi	r22, 0x00	; 0
     7d4:	70 e0       	ldi	r23, 0x00	; 0
     7d6:	8c ee       	ldi	r24, 0xEC	; 236
     7d8:	96 e0       	ldi	r25, 0x06	; 6
     7da:	0e 94 21 37 	call	0x6e42	; 0x6e42 <eeprom_write_block>
     7de:	40 e4       	ldi	r20, 0x40	; 64
     7e0:	50 e0       	ldi	r21, 0x00	; 0
     7e2:	60 e4       	ldi	r22, 0x40	; 64
     7e4:	70 e0       	ldi	r23, 0x00	; 0
     7e6:	89 e3       	ldi	r24, 0x39	; 57
     7e8:	9a e0       	ldi	r25, 0x0A	; 10
     7ea:	0e 94 21 37 	call	0x6e42	; 0x6e42 <eeprom_write_block>
     7ee:	40 e4       	ldi	r20, 0x40	; 64
     7f0:	50 e0       	ldi	r21, 0x00	; 0
     7f2:	60 e8       	ldi	r22, 0x80	; 128
     7f4:	70 e0       	ldi	r23, 0x00	; 0
     7f6:	88 e3       	ldi	r24, 0x38	; 56
     7f8:	97 e0       	ldi	r25, 0x07	; 7
     7fa:	0e 94 21 37 	call	0x6e42	; 0x6e42 <eeprom_write_block>
     7fe:	40 e4       	ldi	r20, 0x40	; 64
     800:	50 e0       	ldi	r21, 0x00	; 0
     802:	60 ec       	ldi	r22, 0xC0	; 192
     804:	70 e0       	ldi	r23, 0x00	; 0
     806:	88 ef       	ldi	r24, 0xF8	; 248
     808:	97 e0       	ldi	r25, 0x07	; 7
     80a:	0e 94 21 37 	call	0x6e42	; 0x6e42 <eeprom_write_block>
     80e:	40 e4       	ldi	r20, 0x40	; 64
     810:	50 e0       	ldi	r21, 0x00	; 0
     812:	60 e0       	ldi	r22, 0x00	; 0
     814:	71 e0       	ldi	r23, 0x01	; 1
     816:	89 e7       	ldi	r24, 0x79	; 121
     818:	97 e0       	ldi	r25, 0x07	; 7
     81a:	0e 94 21 37 	call	0x6e42	; 0x6e42 <eeprom_write_block>
     81e:	60 91 2e 07 	lds	r22, 0x072E
     822:	85 e0       	ldi	r24, 0x05	; 5
     824:	92 e0       	ldi	r25, 0x02	; 2
     826:	0e 94 0f 37 	call	0x6e1e	; 0x6e1e <eeprom_update_byte>
     82a:	60 91 37 07 	lds	r22, 0x0737
     82e:	86 e0       	ldi	r24, 0x06	; 6
     830:	92 e0       	ldi	r25, 0x02	; 2
     832:	0e 94 0f 37 	call	0x6e1e	; 0x6e1e <eeprom_update_byte>
     836:	60 91 e6 06 	lds	r22, 0x06E6
     83a:	87 e0       	ldi	r24, 0x07	; 7
     83c:	92 e0       	ldi	r25, 0x02	; 2
     83e:	0e 94 0f 37 	call	0x6e1e	; 0x6e1e <eeprom_update_byte>
     842:	60 91 b9 07 	lds	r22, 0x07B9
     846:	88 e0       	ldi	r24, 0x08	; 8
     848:	92 e0       	ldi	r25, 0x02	; 2
     84a:	0e 94 0f 37 	call	0x6e1e	; 0x6e1e <eeprom_update_byte>
     84e:	60 91 f7 07 	lds	r22, 0x07F7
     852:	89 e0       	ldi	r24, 0x09	; 9
     854:	92 e0       	ldi	r25, 0x02	; 2
     856:	0c 94 0f 37 	jmp	0x6e1e	; 0x6e1e <eeprom_update_byte>

0000085a <DetectHallSensor>:
     85a:	cf 93       	push	r28
     85c:	df 93       	push	r29
     85e:	10 92 ba 07 	sts	0x07BA, r1
     862:	0e 94 23 29 	call	0x5246	; 0x5246 <getHallState>
     866:	d8 2f       	mov	r29, r24
     868:	8e ee       	ldi	r24, 0xEE	; 238
     86a:	91 e0       	ldi	r25, 0x01	; 1
     86c:	0e 94 63 26 	call	0x4cc6	; 0x4cc6 <USBSendPROGString>
     870:	2f ef       	ldi	r18, 0xFF	; 255
     872:	87 ea       	ldi	r24, 0xA7	; 167
     874:	91 e6       	ldi	r25, 0x61	; 97
     876:	21 50       	subi	r18, 0x01	; 1
     878:	80 40       	sbci	r24, 0x00	; 0
     87a:	90 40       	sbci	r25, 0x00	; 0
     87c:	e1 f7       	brne	.-8      	; 0x876 <DetectHallSensor+0x1c>
     87e:	00 c0       	rjmp	.+0      	; 0x880 <DetectHallSensor+0x26>
     880:	00 00       	nop
     882:	0e 94 23 29 	call	0x5246	; 0x5246 <getHallState>
     886:	c8 2f       	mov	r28, r24
     888:	d8 13       	cpse	r29, r24
     88a:	07 c0       	rjmp	.+14     	; 0x89a <DetectHallSensor+0x40>
     88c:	8d eb       	ldi	r24, 0xBD	; 189
     88e:	91 e0       	ldi	r25, 0x01	; 1
     890:	0e 94 63 26 	call	0x4cc6	; 0x4cc6 <USBSendPROGString>
     894:	10 92 ba 07 	sts	0x07BA, r1
     898:	23 c0       	rjmp	.+70     	; 0x8e0 <DetectHallSensor+0x86>
     89a:	8b e5       	ldi	r24, 0x5B	; 91
     89c:	92 e0       	ldi	r25, 0x02	; 2
     89e:	0e 94 f2 25 	call	0x4be4	; 0x4be4 <USBSendString>
     8a2:	81 e0       	ldi	r24, 0x01	; 1
     8a4:	80 93 ba 07 	sts	0x07BA, r24
     8a8:	c0 93 36 07 	sts	0x0736, r28
     8ac:	82 e7       	ldi	r24, 0x72	; 114
     8ae:	92 e0       	ldi	r25, 0x02	; 2
     8b0:	0e 94 f2 25 	call	0x4be4	; 0x4be4 <USBSendString>
     8b4:	83 e6       	ldi	r24, 0x63	; 99
     8b6:	90 e0       	ldi	r25, 0x00	; 0
     8b8:	22 e0       	ldi	r18, 0x02	; 2
     8ba:	7c 9b       	sbis	0x0f, 4	; 15
     8bc:	20 93 ba 07 	sts	0x07BA, r18
     8c0:	ef e5       	ldi	r30, 0x5F	; 95
     8c2:	fa ee       	ldi	r31, 0xEA	; 234
     8c4:	31 97       	sbiw	r30, 0x01	; 1
     8c6:	f1 f7       	brne	.-4      	; 0x8c4 <DetectHallSensor+0x6a>
     8c8:	00 c0       	rjmp	.+0      	; 0x8ca <DetectHallSensor+0x70>
     8ca:	00 00       	nop
     8cc:	01 97       	sbiw	r24, 0x01	; 1
     8ce:	a9 f7       	brne	.-22     	; 0x8ba <DetectHallSensor+0x60>
     8d0:	80 91 ba 07 	lds	r24, 0x07BA
     8d4:	82 30       	cpi	r24, 0x02	; 2
     8d6:	21 f4       	brne	.+8      	; 0x8e0 <DetectHallSensor+0x86>
     8d8:	80 ea       	ldi	r24, 0xA0	; 160
     8da:	92 e0       	ldi	r25, 0x02	; 2
     8dc:	0e 94 f2 25 	call	0x4be4	; 0x4be4 <USBSendString>
     8e0:	7e 99       	sbic	0x0f, 6	; 15
     8e2:	03 c0       	rjmp	.+6      	; 0x8ea <DetectHallSensor+0x90>
     8e4:	81 e0       	ldi	r24, 0x01	; 1
     8e6:	80 93 ba 07 	sts	0x07BA, r24
     8ea:	60 91 ba 07 	lds	r22, 0x07BA
     8ee:	83 e0       	ldi	r24, 0x03	; 3
     8f0:	92 e0       	ldi	r25, 0x02	; 2
     8f2:	0e 94 0f 37 	call	0x6e1e	; 0x6e1e <eeprom_update_byte>
     8f6:	60 91 36 07 	lds	r22, 0x0736
     8fa:	84 e0       	ldi	r24, 0x04	; 4
     8fc:	92 e0       	ldi	r25, 0x02	; 2
     8fe:	0e 94 0f 37 	call	0x6e1e	; 0x6e1e <eeprom_update_byte>
     902:	81 e0       	ldi	r24, 0x01	; 1
     904:	90 91 ba 07 	lds	r25, 0x07BA
     908:	91 11       	cpse	r25, r1
     90a:	01 c0       	rjmp	.+2      	; 0x90e <DetectHallSensor+0xb4>
     90c:	80 e0       	ldi	r24, 0x00	; 0
     90e:	df 91       	pop	r29
     910:	cf 91       	pop	r28
     912:	08 95       	ret

00000914 <WaitForKeypress>:
     914:	2f ef       	ldi	r18, 0xFF	; 255
     916:	81 ee       	ldi	r24, 0xE1	; 225
     918:	94 e0       	ldi	r25, 0x04	; 4
     91a:	21 50       	subi	r18, 0x01	; 1
     91c:	80 40       	sbci	r24, 0x00	; 0
     91e:	90 40       	sbci	r25, 0x00	; 0
     920:	e1 f7       	brne	.-8      	; 0x91a <WaitForKeypress+0x6>
     922:	00 c0       	rjmp	.+0      	; 0x924 <WaitForKeypress+0x10>
     924:	00 00       	nop
     926:	0e 94 93 27 	call	0x4f26	; 0x4f26 <GetKeySimple>
     92a:	90 e0       	ldi	r25, 0x00	; 0
     92c:	00 97       	sbiw	r24, 0x00	; 0
     92e:	d9 f3       	breq	.-10     	; 0x926 <WaitForKeypress+0x12>
     930:	08 95       	ret

00000932 <TeachHIDKey>:
     932:	cf 93       	push	r28
     934:	df 93       	push	r29
     936:	eb 01       	movw	r28, r22
     938:	fb 01       	movw	r30, r22
     93a:	42 30       	cpi	r20, 0x02	; 2
     93c:	31 f4       	brne	.+12     	; 0x94a <TeachHIDKey+0x18>
     93e:	e8 5c       	subi	r30, 0xC8	; 200
     940:	f8 4f       	sbci	r31, 0xF8	; 248
     942:	80 83       	st	Z, r24
     944:	89 eb       	ldi	r24, 0xB9	; 185
     946:	92 e0       	ldi	r25, 0x02	; 2
     948:	07 c0       	rjmp	.+14     	; 0x958 <TeachHIDKey+0x26>
     94a:	44 30       	cpi	r20, 0x04	; 4
     94c:	61 f4       	brne	.+24     	; 0x966 <TeachHIDKey+0x34>
     94e:	e7 5c       	subi	r30, 0xC7	; 199
     950:	f5 4f       	sbci	r31, 0xF5	; 245
     952:	80 83       	st	Z, r24
     954:	8f eb       	ldi	r24, 0xBF	; 191
     956:	92 e0       	ldi	r25, 0x02	; 2
     958:	0e 94 f2 25 	call	0x4be4	; 0x4be4 <USBSendString>
     95c:	62 e0       	ldi	r22, 0x02	; 2
     95e:	8e e2       	ldi	r24, 0x2E	; 46
     960:	0e 94 a7 25 	call	0x4b4e	; 0x4b4e <USBSend>
     964:	03 c0       	rjmp	.+6      	; 0x96c <TeachHIDKey+0x3a>
     966:	e4 51       	subi	r30, 0x14	; 20
     968:	f9 4f       	sbci	r31, 0xF9	; 249
     96a:	80 83       	st	Z, r24
     96c:	8c 2f       	mov	r24, r28
     96e:	0e 94 6b 26 	call	0x4cd6	; 0x4cd6 <USBSendNumber>
     972:	2f ef       	ldi	r18, 0xFF	; 255
     974:	84 e3       	ldi	r24, 0x34	; 52
     976:	9c e0       	ldi	r25, 0x0C	; 12
     978:	21 50       	subi	r18, 0x01	; 1
     97a:	80 40       	sbci	r24, 0x00	; 0
     97c:	90 40       	sbci	r25, 0x00	; 0
     97e:	e1 f7       	brne	.-8      	; 0x978 <TeachHIDKey+0x46>
     980:	00 c0       	rjmp	.+0      	; 0x982 <TeachHIDKey+0x50>
     982:	00 00       	nop
     984:	df 91       	pop	r29
     986:	cf 91       	pop	r28
     988:	08 95       	ret

0000098a <CalibrateReeds>:
     98a:	1f 93       	push	r17
     98c:	cf 93       	push	r28
     98e:	df 93       	push	r29
     990:	84 e2       	ldi	r24, 0x24	; 36
     992:	92 e0       	ldi	r25, 0x02	; 2
     994:	0e 94 63 26 	call	0x4cc6	; 0x4cc6 <USBSendPROGString>
     998:	60 e0       	ldi	r22, 0x00	; 0
     99a:	8c e2       	ldi	r24, 0x2C	; 44
     99c:	0e 94 a7 25 	call	0x4b4e	; 0x4b4e <USBSend>
     9a0:	b9 df       	rcall	.-142    	; 0x914 <WaitForKeypress>
     9a2:	ec 01       	movw	r28, r24
     9a4:	0e 94 b1 26 	call	0x4d62	; 0x4d62 <GetModifier>
     9a8:	18 2f       	mov	r17, r24
     9aa:	dd 27       	eor	r29, r29
     9ac:	48 2f       	mov	r20, r24
     9ae:	be 01       	movw	r22, r28
     9b0:	8a e2       	ldi	r24, 0x2A	; 42
     9b2:	bf df       	rcall	.-130    	; 0x932 <TeachHIDKey>
     9b4:	12 fd       	sbrc	r17, 2
     9b6:	04 c0       	rjmp	.+8      	; 0x9c0 <CalibrateReeds+0x36>
     9b8:	c8 50       	subi	r28, 0x08	; 8
     9ba:	d8 4f       	sbci	r29, 0xF8	; 248
     9bc:	88 e0       	ldi	r24, 0x08	; 8
     9be:	88 83       	st	Y, r24
     9c0:	60 e0       	ldi	r22, 0x00	; 0
     9c2:	88 e2       	ldi	r24, 0x28	; 40
     9c4:	0e 94 a7 25 	call	0x4b4e	; 0x4b4e <USBSend>
     9c8:	82 ec       	ldi	r24, 0xC2	; 194
     9ca:	92 e0       	ldi	r25, 0x02	; 2
     9cc:	0e 94 f2 25 	call	0x4be4	; 0x4be4 <USBSendString>
     9d0:	60 e0       	ldi	r22, 0x00	; 0
     9d2:	8c e2       	ldi	r24, 0x2C	; 44
     9d4:	0e 94 a7 25 	call	0x4b4e	; 0x4b4e <USBSend>
     9d8:	9d df       	rcall	.-198    	; 0x914 <WaitForKeypress>
     9da:	ec 01       	movw	r28, r24
     9dc:	0e 94 b1 26 	call	0x4d62	; 0x4d62 <GetModifier>
     9e0:	be 01       	movw	r22, r28
     9e2:	77 27       	eor	r23, r23
     9e4:	48 2f       	mov	r20, r24
     9e6:	89 e2       	ldi	r24, 0x29	; 41
     9e8:	a4 df       	rcall	.-184    	; 0x932 <TeachHIDKey>
     9ea:	60 e0       	ldi	r22, 0x00	; 0
     9ec:	88 e2       	ldi	r24, 0x28	; 40
     9ee:	0e 94 a7 25 	call	0x4b4e	; 0x4b4e <USBSend>
     9f2:	86 ec       	ldi	r24, 0xC6	; 198
     9f4:	92 e0       	ldi	r25, 0x02	; 2
     9f6:	0e 94 f2 25 	call	0x4be4	; 0x4be4 <USBSendString>
     9fa:	60 e0       	ldi	r22, 0x00	; 0
     9fc:	8c e2       	ldi	r24, 0x2C	; 44
     9fe:	0e 94 a7 25 	call	0x4b4e	; 0x4b4e <USBSend>
     a02:	88 df       	rcall	.-240    	; 0x914 <WaitForKeypress>
     a04:	ec 01       	movw	r28, r24
     a06:	0e 94 b1 26 	call	0x4d62	; 0x4d62 <GetModifier>
     a0a:	18 2f       	mov	r17, r24
     a0c:	dd 27       	eor	r29, r29
     a0e:	48 2f       	mov	r20, r24
     a10:	be 01       	movw	r22, r28
     a12:	8b e2       	ldi	r24, 0x2B	; 43
     a14:	8e df       	rcall	.-228    	; 0x932 <TeachHIDKey>
     a16:	12 fd       	sbrc	r17, 2
     a18:	09 c0       	rjmp	.+18     	; 0xa2c <CalibrateReeds+0xa2>
     a1a:	fe 01       	movw	r30, r28
     a1c:	e8 50       	subi	r30, 0x08	; 8
     a1e:	f8 4f       	sbci	r31, 0xF8	; 248
     a20:	89 e0       	ldi	r24, 0x09	; 9
     a22:	80 83       	st	Z, r24
     a24:	c7 58       	subi	r28, 0x87	; 135
     a26:	d8 4f       	sbci	r29, 0xF8	; 248
     a28:	84 e7       	ldi	r24, 0x74	; 116
     a2a:	88 83       	st	Y, r24
     a2c:	60 e0       	ldi	r22, 0x00	; 0
     a2e:	88 e2       	ldi	r24, 0x28	; 40
     a30:	0e 94 a7 25 	call	0x4b4e	; 0x4b4e <USBSend>
     a34:	83 e4       	ldi	r24, 0x43	; 67
     a36:	92 e0       	ldi	r25, 0x02	; 2
     a38:	0e 94 63 26 	call	0x4cc6	; 0x4cc6 <USBSendPROGString>
     a3c:	60 e0       	ldi	r22, 0x00	; 0
     a3e:	8c e2       	ldi	r24, 0x2C	; 44
     a40:	0e 94 a7 25 	call	0x4b4e	; 0x4b4e <USBSend>
     a44:	67 df       	rcall	.-306    	; 0x914 <WaitForKeypress>
     a46:	ec 01       	movw	r28, r24
     a48:	dd 27       	eor	r29, r29
     a4a:	fe 01       	movw	r30, r28
     a4c:	e4 51       	subi	r30, 0x14	; 20
     a4e:	f9 4f       	sbci	r31, 0xF9	; 249
     a50:	18 e2       	ldi	r17, 0x28	; 40
     a52:	10 83       	st	Z, r17
     a54:	8c 2f       	mov	r24, r28
     a56:	0e 94 6b 26 	call	0x4cd6	; 0x4cd6 <USBSendNumber>
     a5a:	2f ef       	ldi	r18, 0xFF	; 255
     a5c:	84 e3       	ldi	r24, 0x34	; 52
     a5e:	9c e0       	ldi	r25, 0x0C	; 12
     a60:	21 50       	subi	r18, 0x01	; 1
     a62:	80 40       	sbci	r24, 0x00	; 0
     a64:	90 40       	sbci	r25, 0x00	; 0
     a66:	e1 f7       	brne	.-8      	; 0xa60 <CalibrateReeds+0xd6>
     a68:	00 c0       	rjmp	.+0      	; 0xa6a <CalibrateReeds+0xe0>
     a6a:	00 00       	nop
     a6c:	c8 50       	subi	r28, 0x08	; 8
     a6e:	d8 4f       	sbci	r29, 0xF8	; 248
     a70:	8d e0       	ldi	r24, 0x0D	; 13
     a72:	88 83       	st	Y, r24
     a74:	60 e0       	ldi	r22, 0x00	; 0
     a76:	88 e2       	ldi	r24, 0x28	; 40
     a78:	0e 94 a7 25 	call	0x4b4e	; 0x4b4e <USBSend>
     a7c:	83 e3       	ldi	r24, 0x33	; 51
     a7e:	92 e0       	ldi	r25, 0x02	; 2
     a80:	0e 94 63 26 	call	0x4cc6	; 0x4cc6 <USBSendPROGString>
     a84:	60 e0       	ldi	r22, 0x00	; 0
     a86:	8c e2       	ldi	r24, 0x2C	; 44
     a88:	0e 94 a7 25 	call	0x4b4e	; 0x4b4e <USBSend>
     a8c:	84 e7       	ldi	r24, 0x74	; 116
     a8e:	90 e0       	ldi	r25, 0x00	; 0
     a90:	41 df       	rcall	.-382    	; 0x914 <WaitForKeypress>
     a92:	99 27       	eor	r25, r25
     a94:	fc 01       	movw	r30, r24
     a96:	e4 51       	subi	r30, 0x14	; 20
     a98:	f9 4f       	sbci	r31, 0xF9	; 249
     a9a:	10 83       	st	Z, r17
     a9c:	0e 94 6b 26 	call	0x4cd6	; 0x4cd6 <USBSendNumber>
     aa0:	2f ef       	ldi	r18, 0xFF	; 255
     aa2:	84 e3       	ldi	r24, 0x34	; 52
     aa4:	9c e0       	ldi	r25, 0x0C	; 12
     aa6:	21 50       	subi	r18, 0x01	; 1
     aa8:	80 40       	sbci	r24, 0x00	; 0
     aaa:	90 40       	sbci	r25, 0x00	; 0
     aac:	e1 f7       	brne	.-8      	; 0xaa6 <CalibrateReeds+0x11c>
     aae:	00 c0       	rjmp	.+0      	; 0xab0 <CalibrateReeds+0x126>
     ab0:	00 00       	nop
     ab2:	60 e0       	ldi	r22, 0x00	; 0
     ab4:	88 e2       	ldi	r24, 0x28	; 40
     ab6:	0e 94 a7 25 	call	0x4b4e	; 0x4b4e <USBSend>
     aba:	8e e2       	ldi	r24, 0x2E	; 46
     abc:	92 e0       	ldi	r25, 0x02	; 2
     abe:	0e 94 63 26 	call	0x4cc6	; 0x4cc6 <USBSendPROGString>
     ac2:	60 e0       	ldi	r22, 0x00	; 0
     ac4:	8c e2       	ldi	r24, 0x2C	; 44
     ac6:	0e 94 a7 25 	call	0x4b4e	; 0x4b4e <USBSend>
     aca:	24 df       	rcall	.-440    	; 0x914 <WaitForKeypress>
     acc:	99 27       	eor	r25, r25
     ace:	fc 01       	movw	r30, r24
     ad0:	e4 51       	subi	r30, 0x14	; 20
     ad2:	f9 4f       	sbci	r31, 0xF9	; 249
     ad4:	94 e7       	ldi	r25, 0x74	; 116
     ad6:	90 83       	st	Z, r25
     ad8:	0e 94 6b 26 	call	0x4cd6	; 0x4cd6 <USBSendNumber>
     adc:	2f ef       	ldi	r18, 0xFF	; 255
     ade:	84 e3       	ldi	r24, 0x34	; 52
     ae0:	9c e0       	ldi	r25, 0x0C	; 12
     ae2:	21 50       	subi	r18, 0x01	; 1
     ae4:	80 40       	sbci	r24, 0x00	; 0
     ae6:	90 40       	sbci	r25, 0x00	; 0
     ae8:	e1 f7       	brne	.-8      	; 0xae2 <CalibrateReeds+0x158>
     aea:	00 c0       	rjmp	.+0      	; 0xaec <CalibrateReeds+0x162>
     aec:	00 00       	nop
     aee:	60 e0       	ldi	r22, 0x00	; 0
     af0:	88 e2       	ldi	r24, 0x28	; 40
     af2:	0e 94 a7 25 	call	0x4b4e	; 0x4b4e <USBSend>
     af6:	89 e4       	ldi	r24, 0x49	; 73
     af8:	92 e0       	ldi	r25, 0x02	; 2
     afa:	0e 94 63 26 	call	0x4cc6	; 0x4cc6 <USBSendPROGString>
     afe:	60 e0       	ldi	r22, 0x00	; 0
     b00:	8c e2       	ldi	r24, 0x2C	; 44
     b02:	0e 94 a7 25 	call	0x4b4e	; 0x4b4e <USBSend>
     b06:	06 df       	rcall	.-500    	; 0x914 <WaitForKeypress>
     b08:	ec 01       	movw	r28, r24
     b0a:	dd 27       	eor	r29, r29
     b0c:	fe 01       	movw	r30, r28
     b0e:	e4 51       	subi	r30, 0x14	; 20
     b10:	f9 4f       	sbci	r31, 0xF9	; 249
     b12:	8c e2       	ldi	r24, 0x2C	; 44
     b14:	80 83       	st	Z, r24
     b16:	8c 2f       	mov	r24, r28
     b18:	0e 94 6b 26 	call	0x4cd6	; 0x4cd6 <USBSendNumber>
     b1c:	2f ef       	ldi	r18, 0xFF	; 255
     b1e:	84 e3       	ldi	r24, 0x34	; 52
     b20:	9c e0       	ldi	r25, 0x0C	; 12
     b22:	21 50       	subi	r18, 0x01	; 1
     b24:	80 40       	sbci	r24, 0x00	; 0
     b26:	90 40       	sbci	r25, 0x00	; 0
     b28:	e1 f7       	brne	.-8      	; 0xb22 <__stack+0x23>
     b2a:	00 c0       	rjmp	.+0      	; 0xb2c <__stack+0x2d>
     b2c:	00 00       	nop
     b2e:	c8 50       	subi	r28, 0x08	; 8
     b30:	d8 4f       	sbci	r29, 0xF8	; 248
     b32:	80 e2       	ldi	r24, 0x20	; 32
     b34:	88 83       	st	Y, r24
     b36:	60 e0       	ldi	r22, 0x00	; 0
     b38:	88 e2       	ldi	r24, 0x28	; 40
     b3a:	df 91       	pop	r29
     b3c:	cf 91       	pop	r28
     b3e:	1f 91       	pop	r17
     b40:	0c 94 a7 25 	jmp	0x4b4e	; 0x4b4e <USBSend>

00000b44 <QuickCalibrate>:
     b44:	80 91 7d 0a 	lds	r24, 0x0A7D
     b48:	84 30       	cpi	r24, 0x04	; 4
     b4a:	e1 f7       	brne	.-8      	; 0xb44 <QuickCalibrate>
     b4c:	2f ef       	ldi	r18, 0xFF	; 255
     b4e:	89 e6       	ldi	r24, 0x69	; 105
     b50:	98 e1       	ldi	r25, 0x18	; 24
     b52:	21 50       	subi	r18, 0x01	; 1
     b54:	80 40       	sbci	r24, 0x00	; 0
     b56:	90 40       	sbci	r25, 0x00	; 0
     b58:	e1 f7       	brne	.-8      	; 0xb52 <QuickCalibrate+0xe>
     b5a:	00 c0       	rjmp	.+0      	; 0xb5c <QuickCalibrate+0x18>
     b5c:	00 00       	nop
     b5e:	82 e5       	ldi	r24, 0x52	; 82
     b60:	92 e0       	ldi	r25, 0x02	; 2
     b62:	0e 94 63 26 	call	0x4cc6	; 0x4cc6 <USBSendPROGString>
     b66:	99 b1       	in	r25, 0x09	; 9
     b68:	81 e0       	ldi	r24, 0x01	; 1
     b6a:	92 95       	swap	r25
     b6c:	91 70       	andi	r25, 0x01	; 1
     b6e:	98 27       	eor	r25, r24
     b70:	90 93 37 07 	sts	0x0737, r25
     b74:	99 b1       	in	r25, 0x09	; 9
     b76:	96 fb       	bst	r25, 6
     b78:	99 27       	eor	r25, r25
     b7a:	90 f9       	bld	r25, 0
     b7c:	98 27       	eor	r25, r24
     b7e:	90 93 e6 06 	sts	0x06E6, r25
     b82:	99 b1       	in	r25, 0x09	; 9
     b84:	90 95       	com	r25
     b86:	99 1f       	adc	r25, r25
     b88:	99 27       	eor	r25, r25
     b8a:	99 1f       	adc	r25, r25
     b8c:	90 93 b9 07 	sts	0x07B9, r25
     b90:	93 b1       	in	r25, 0x03	; 3
     b92:	92 95       	swap	r25
     b94:	91 70       	andi	r25, 0x01	; 1
     b96:	89 27       	eor	r24, r25
     b98:	80 93 f7 07 	sts	0x07F7, r24
     b9c:	5e de       	rcall	.-836    	; 0x85a <DetectHallSensor>
     b9e:	81 ec       	ldi	r24, 0xC1	; 193
     ba0:	92 e0       	ldi	r25, 0x02	; 2
     ba2:	0e 94 63 26 	call	0x4cc6	; 0x4cc6 <USBSendPROGString>
     ba6:	89 eb       	ldi	r24, 0xB9	; 185
     ba8:	92 e0       	ldi	r25, 0x02	; 2
     baa:	0e 94 f2 25 	call	0x4be4	; 0x4be4 <USBSendString>
     bae:	10 92 2e 07 	sts	0x072E, r1
     bb2:	60 e0       	ldi	r22, 0x00	; 0
     bb4:	8c e2       	ldi	r24, 0x2C	; 44
     bb6:	0e 94 a7 25 	call	0x4b4e	; 0x4b4e <USBSend>
     bba:	ac de       	rcall	.-680    	; 0x914 <WaitForKeypress>
     bbc:	9f ef       	ldi	r25, 0xFF	; 255
     bbe:	98 0f       	add	r25, r24
     bc0:	98 30       	cpi	r25, 0x08	; 8
     bc2:	28 f4       	brcc	.+10     	; 0xbce <QuickCalibrate+0x8a>
     bc4:	80 93 2e 07 	sts	0x072E, r24
     bc8:	0e 94 6b 26 	call	0x4cd6	; 0x4cd6 <USBSendNumber>
     bcc:	04 c0       	rjmp	.+8      	; 0xbd6 <QuickCalibrate+0x92>
     bce:	8b e9       	ldi	r24, 0x9B	; 155
     bd0:	92 e0       	ldi	r25, 0x02	; 2
     bd2:	0e 94 63 26 	call	0x4cc6	; 0x4cc6 <USBSendPROGString>
     bd6:	60 e0       	ldi	r22, 0x00	; 0
     bd8:	88 e2       	ldi	r24, 0x28	; 40
     bda:	0e 94 a7 25 	call	0x4b4e	; 0x4b4e <USBSend>
     bde:	d5 de       	rcall	.-598    	; 0x98a <CalibrateReeds>
     be0:	f2 dd       	rcall	.-1052   	; 0x7c6 <SaveCalibration>
     be2:	8c ea       	ldi	r24, 0xAC	; 172
     be4:	90 e0       	ldi	r25, 0x00	; 0
     be6:	0c 94 63 26 	jmp	0x4cc6	; 0x4cc6 <USBSendPROGString>

00000bea <TeachASCIIKey>:
     bea:	42 30       	cpi	r20, 0x02	; 2
     bec:	21 f4       	brne	.+8      	; 0xbf6 <TeachASCIIKey+0xc>
     bee:	fb 01       	movw	r30, r22
     bf0:	e7 58       	subi	r30, 0x87	; 135
     bf2:	f8 4f       	sbci	r31, 0xF8	; 248
     bf4:	05 c0       	rjmp	.+10     	; 0xc00 <TeachASCIIKey+0x16>
     bf6:	42 fd       	sbrc	r20, 2
     bf8:	04 c0       	rjmp	.+8      	; 0xc02 <TeachASCIIKey+0x18>
     bfa:	fb 01       	movw	r30, r22
     bfc:	e8 50       	subi	r30, 0x08	; 8
     bfe:	f8 4f       	sbci	r31, 0xF8	; 248
     c00:	80 83       	st	Z, r24
     c02:	08 95       	ret

00000c04 <Calibrate>:
     c04:	6f 92       	push	r6
     c06:	7f 92       	push	r7
     c08:	8f 92       	push	r8
     c0a:	9f 92       	push	r9
     c0c:	af 92       	push	r10
     c0e:	bf 92       	push	r11
     c10:	cf 92       	push	r12
     c12:	df 92       	push	r13
     c14:	ef 92       	push	r14
     c16:	ff 92       	push	r15
     c18:	0f 93       	push	r16
     c1a:	1f 93       	push	r17
     c1c:	cf 93       	push	r28
     c1e:	df 93       	push	r29
     c20:	0e 94 8b 29 	call	0x5316	; 0x5316 <ClearKeyCodeTables>
     c24:	80 91 7d 0a 	lds	r24, 0x0A7D
     c28:	84 30       	cpi	r24, 0x04	; 4
     c2a:	e1 f7       	brne	.-8      	; 0xc24 <Calibrate+0x20>
     c2c:	2f ef       	ldi	r18, 0xFF	; 255
     c2e:	89 e6       	ldi	r24, 0x69	; 105
     c30:	98 e1       	ldi	r25, 0x18	; 24
     c32:	21 50       	subi	r18, 0x01	; 1
     c34:	80 40       	sbci	r24, 0x00	; 0
     c36:	90 40       	sbci	r25, 0x00	; 0
     c38:	e1 f7       	brne	.-8      	; 0xc32 <Calibrate+0x2e>
     c3a:	00 c0       	rjmp	.+0      	; 0xc3c <Calibrate+0x38>
     c3c:	00 00       	nop
     c3e:	8e e9       	ldi	r24, 0x9E	; 158
     c40:	93 e0       	ldi	r25, 0x03	; 3
     c42:	0e 94 63 26 	call	0x4cc6	; 0x4cc6 <USBSendPROGString>
     c46:	89 e8       	ldi	r24, 0x89	; 137
     c48:	93 e0       	ldi	r25, 0x03	; 3
     c4a:	0e 94 63 26 	call	0x4cc6	; 0x4cc6 <USBSendPROGString>
     c4e:	60 e0       	ldi	r22, 0x00	; 0
     c50:	88 e2       	ldi	r24, 0x28	; 40
     c52:	0e 94 a7 25 	call	0x4b4e	; 0x4b4e <USBSend>
     c56:	8d e0       	ldi	r24, 0x0D	; 13
     c58:	92 e0       	ldi	r25, 0x02	; 2
     c5a:	0e 94 02 37 	call	0x6e04	; 0x6e04 <eeprom_read_byte>
     c5e:	c8 2f       	mov	r28, r24
     c60:	87 e7       	ldi	r24, 0x77	; 119
     c62:	93 e0       	ldi	r25, 0x03	; 3
     c64:	0e 94 63 26 	call	0x4cc6	; 0x4cc6 <USBSendPROGString>
     c68:	c2 30       	cpi	r28, 0x02	; 2
     c6a:	91 f0       	breq	.+36     	; 0xc90 <Calibrate+0x8c>
     c6c:	28 f4       	brcc	.+10     	; 0xc78 <Calibrate+0x74>
     c6e:	c1 30       	cpi	r28, 0x01	; 1
     c70:	91 f4       	brne	.+36     	; 0xc96 <Calibrate+0x92>
     c72:	89 e1       	ldi	r24, 0x19	; 25
     c74:	93 e0       	ldi	r25, 0x03	; 3
     c76:	09 c0       	rjmp	.+18     	; 0xc8a <Calibrate+0x86>
     c78:	c9 30       	cpi	r28, 0x09	; 9
     c7a:	29 f0       	breq	.+10     	; 0xc86 <Calibrate+0x82>
     c7c:	cd 30       	cpi	r28, 0x0D	; 13
     c7e:	59 f4       	brne	.+22     	; 0xc96 <Calibrate+0x92>
     c80:	88 e3       	ldi	r24, 0x38	; 56
     c82:	93 e0       	ldi	r25, 0x03	; 3
     c84:	02 c0       	rjmp	.+4      	; 0xc8a <Calibrate+0x86>
     c86:	8e e5       	ldi	r24, 0x5E	; 94
     c88:	93 e0       	ldi	r25, 0x03	; 3
     c8a:	0e 94 63 26 	call	0x4cc6	; 0x4cc6 <USBSendPROGString>
     c8e:	07 c0       	rjmp	.+14     	; 0xc9e <Calibrate+0x9a>
     c90:	83 e0       	ldi	r24, 0x03	; 3
     c92:	93 e0       	ldi	r25, 0x03	; 3
     c94:	fa cf       	rjmp	.-12     	; 0xc8a <Calibrate+0x86>
     c96:	8a ec       	ldi	r24, 0xCA	; 202
     c98:	92 e0       	ldi	r25, 0x02	; 2
     c9a:	0e 94 f2 25 	call	0x4be4	; 0x4be4 <USBSendString>
     c9e:	83 ef       	ldi	r24, 0xF3	; 243
     ca0:	92 e0       	ldi	r25, 0x02	; 2
     ca2:	0e 94 63 26 	call	0x4cc6	; 0x4cc6 <USBSendPROGString>
     ca6:	89 b1       	in	r24, 0x09	; 9
     ca8:	c1 e0       	ldi	r28, 0x01	; 1
     caa:	82 95       	swap	r24
     cac:	81 70       	andi	r24, 0x01	; 1
     cae:	8c 27       	eor	r24, r28
     cb0:	80 93 37 07 	sts	0x0737, r24
     cb4:	89 b1       	in	r24, 0x09	; 9
     cb6:	86 fb       	bst	r24, 6
     cb8:	88 27       	eor	r24, r24
     cba:	80 f9       	bld	r24, 0
     cbc:	8c 27       	eor	r24, r28
     cbe:	80 93 e6 06 	sts	0x06E6, r24
     cc2:	89 b1       	in	r24, 0x09	; 9
     cc4:	80 95       	com	r24
     cc6:	88 1f       	adc	r24, r24
     cc8:	88 27       	eor	r24, r24
     cca:	88 1f       	adc	r24, r24
     ccc:	80 93 b9 07 	sts	0x07B9, r24
     cd0:	83 b1       	in	r24, 0x03	; 3
     cd2:	82 95       	swap	r24
     cd4:	81 70       	andi	r24, 0x01	; 1
     cd6:	8c 27       	eor	r24, r28
     cd8:	80 93 f7 07 	sts	0x07F7, r24
     cdc:	be dd       	rcall	.-1156   	; 0x85a <DetectHallSensor>
     cde:	7d 99       	sbic	0x0f, 5	; 15
     ce0:	15 c0       	rjmp	.+42     	; 0xd0c <Calibrate+0x108>
     ce2:	80 91 e7 06 	lds	r24, 0x06E7
     ce6:	88 23       	and	r24, r24
     ce8:	29 f0       	breq	.+10     	; 0xcf4 <Calibrate+0xf0>
     cea:	10 92 e7 06 	sts	0x06E7, r1
     cee:	8d e6       	ldi	r24, 0x6D	; 109
     cf0:	92 e0       	ldi	r25, 0x02	; 2
     cf2:	04 c0       	rjmp	.+8      	; 0xcfc <Calibrate+0xf8>
     cf4:	c0 93 e7 06 	sts	0x06E7, r28
     cf8:	85 e8       	ldi	r24, 0x85	; 133
     cfa:	92 e0       	ldi	r25, 0x02	; 2
     cfc:	0e 94 63 26 	call	0x4cc6	; 0x4cc6 <USBSendPROGString>
     d00:	60 91 e7 06 	lds	r22, 0x06E7
     d04:	8f e0       	ldi	r24, 0x0F	; 15
     d06:	92 e0       	ldi	r25, 0x02	; 2
     d08:	0e 94 0f 37 	call	0x6e1e	; 0x6e1e <eeprom_update_byte>
     d0c:	81 ec       	ldi	r24, 0xC1	; 193
     d0e:	92 e0       	ldi	r25, 0x02	; 2
     d10:	0e 94 63 26 	call	0x4cc6	; 0x4cc6 <USBSendPROGString>
     d14:	c4 e0       	ldi	r28, 0x04	; 4
     d16:	ae e1       	ldi	r26, 0x1E	; 30
     d18:	fa 2e       	mov	r15, r26
     d1a:	62 e0       	ldi	r22, 0x02	; 2
     d1c:	8c 2f       	mov	r24, r28
     d1e:	0e 94 a7 25 	call	0x4b4e	; 0x4b4e <USBSend>
     d22:	60 e0       	ldi	r22, 0x00	; 0
     d24:	8c e2       	ldi	r24, 0x2C	; 44
     d26:	0e 94 a7 25 	call	0x4b4e	; 0x4b4e <USBSend>
     d2a:	f4 dd       	rcall	.-1048   	; 0x914 <WaitForKeypress>
     d2c:	8c 01       	movw	r16, r24
     d2e:	0e 94 b1 26 	call	0x4d62	; 0x4d62 <GetModifier>
     d32:	d8 2f       	mov	r29, r24
     d34:	11 27       	eor	r17, r17
     d36:	48 2f       	mov	r20, r24
     d38:	4d 7f       	andi	r20, 0xFD	; 253
     d3a:	b8 01       	movw	r22, r16
     d3c:	8c 2f       	mov	r24, r28
     d3e:	f9 dd       	rcall	.-1038   	; 0x932 <TeachHIDKey>
     d40:	cf 30       	cpi	r28, 0x0F	; 15
     d42:	21 f4       	brne	.+8      	; 0xd4c <Calibrate+0x148>
     d44:	f8 01       	movw	r30, r16
     d46:	e7 5c       	subi	r30, 0xC7	; 199
     d48:	f5 4f       	sbci	r31, 0xF5	; 245
     d4a:	f0 82       	st	Z, r15
     d4c:	d2 fd       	sbrc	r29, 2
     d4e:	0c c0       	rjmp	.+24     	; 0xd68 <Calibrate+0x164>
     d50:	f8 01       	movw	r30, r16
     d52:	e7 58       	subi	r30, 0x87	; 135
     d54:	f8 4f       	sbci	r31, 0xF8	; 248
     d56:	8d e3       	ldi	r24, 0x3D	; 61
     d58:	8c 0f       	add	r24, r28
     d5a:	80 83       	st	Z, r24
     d5c:	f8 01       	movw	r30, r16
     d5e:	e8 50       	subi	r30, 0x08	; 8
     d60:	f8 4f       	sbci	r31, 0xF8	; 248
     d62:	8d e5       	ldi	r24, 0x5D	; 93
     d64:	8c 0f       	add	r24, r28
     d66:	80 83       	st	Z, r24
     d68:	60 e0       	ldi	r22, 0x00	; 0
     d6a:	88 e2       	ldi	r24, 0x28	; 40
     d6c:	0e 94 a7 25 	call	0x4b4e	; 0x4b4e <USBSend>
     d70:	cf 5f       	subi	r28, 0xFF	; 255
     d72:	ce 31       	cpi	r28, 0x1E	; 30
     d74:	91 f6       	brne	.-92     	; 0xd1a <Calibrate+0x116>
     d76:	fa ef       	ldi	r31, 0xFA	; 250
     d78:	ef 2e       	mov	r14, r31
     d7a:	f2 e0       	ldi	r31, 0x02	; 2
     d7c:	ff 2e       	mov	r15, r31
     d7e:	00 e0       	ldi	r16, 0x00	; 0
     d80:	10 e0       	ldi	r17, 0x00	; 0
     d82:	f7 01       	movw	r30, r14
     d84:	c1 90       	ld	r12, Z+
     d86:	7f 01       	movw	r14, r30
     d88:	60 e0       	ldi	r22, 0x00	; 0
     d8a:	8c 2d       	mov	r24, r12
     d8c:	0e 94 a7 25 	call	0x4b4e	; 0x4b4e <USBSend>
     d90:	60 e0       	ldi	r22, 0x00	; 0
     d92:	8c e2       	ldi	r24, 0x2C	; 44
     d94:	0e 94 a7 25 	call	0x4b4e	; 0x4b4e <USBSend>
     d98:	bd dd       	rcall	.-1158   	; 0x914 <WaitForKeypress>
     d9a:	ec 01       	movw	r28, r24
     d9c:	0e 94 b1 26 	call	0x4d62	; 0x4d62 <GetModifier>
     da0:	d8 2e       	mov	r13, r24
     da2:	dd 27       	eor	r29, r29
     da4:	48 2f       	mov	r20, r24
     da6:	4d 7f       	andi	r20, 0xFD	; 253
     da8:	be 01       	movw	r22, r28
     daa:	8c 2d       	mov	r24, r12
     dac:	c2 dd       	rcall	.-1148   	; 0x932 <TeachHIDKey>
     dae:	d2 fc       	sbrc	r13, 2
     db0:	15 c0       	rjmp	.+42     	; 0xddc <Calibrate+0x1d8>
     db2:	fe 01       	movw	r30, r28
     db4:	e8 50       	subi	r30, 0x08	; 8
     db6:	f8 4f       	sbci	r31, 0xF8	; 248
     db8:	d8 01       	movw	r26, r16
     dba:	a0 51       	subi	r26, 0x10	; 16
     dbc:	bd 4f       	sbci	r27, 0xFD	; 253
     dbe:	8c 91       	ld	r24, X
     dc0:	80 83       	st	Z, r24
     dc2:	fe 01       	movw	r30, r28
     dc4:	e7 58       	subi	r30, 0x87	; 135
     dc6:	f8 4f       	sbci	r31, 0xF8	; 248
     dc8:	d8 01       	movw	r26, r16
     dca:	aa 51       	subi	r26, 0x1A	; 26
     dcc:	bd 4f       	sbci	r27, 0xFD	; 253
     dce:	8c 91       	ld	r24, X
     dd0:	80 83       	st	Z, r24
     dd2:	c7 5c       	subi	r28, 0xC7	; 199
     dd4:	d5 4f       	sbci	r29, 0xF5	; 245
     dd6:	8a e3       	ldi	r24, 0x3A	; 58
     dd8:	80 0f       	add	r24, r16
     dda:	88 83       	st	Y, r24
     ddc:	60 e0       	ldi	r22, 0x00	; 0
     dde:	88 e2       	ldi	r24, 0x28	; 40
     de0:	0e 94 a7 25 	call	0x4b4e	; 0x4b4e <USBSend>
     de4:	0f 5f       	subi	r16, 0xFF	; 255
     de6:	1f 4f       	sbci	r17, 0xFF	; 255
     de8:	0a 30       	cpi	r16, 0x0A	; 10
     dea:	11 05       	cpc	r17, r1
     dec:	51 f6       	brne	.-108    	; 0xd82 <Calibrate+0x17e>
     dee:	82 ed       	ldi	r24, 0xD2	; 210
     df0:	92 e0       	ldi	r25, 0x02	; 2
     df2:	0e 94 f2 25 	call	0x4be4	; 0x4be4 <USBSendString>
     df6:	60 e0       	ldi	r22, 0x00	; 0
     df8:	8c e2       	ldi	r24, 0x2C	; 44
     dfa:	0e 94 a7 25 	call	0x4b4e	; 0x4b4e <USBSend>
     dfe:	8a dd       	rcall	.-1260   	; 0x914 <WaitForKeypress>
     e00:	ec 01       	movw	r28, r24
     e02:	0e 94 b1 26 	call	0x4d62	; 0x4d62 <GetModifier>
     e06:	be 01       	movw	r22, r28
     e08:	77 27       	eor	r23, r23
     e0a:	48 2f       	mov	r20, r24
     e0c:	8a e3       	ldi	r24, 0x3A	; 58
     e0e:	91 dd       	rcall	.-1246   	; 0x932 <TeachHIDKey>
     e10:	60 e0       	ldi	r22, 0x00	; 0
     e12:	88 e2       	ldi	r24, 0x28	; 40
     e14:	0e 94 a7 25 	call	0x4b4e	; 0x4b4e <USBSend>
     e18:	85 ed       	ldi	r24, 0xD5	; 213
     e1a:	92 e0       	ldi	r25, 0x02	; 2
     e1c:	0e 94 f2 25 	call	0x4be4	; 0x4be4 <USBSendString>
     e20:	60 e0       	ldi	r22, 0x00	; 0
     e22:	8c e2       	ldi	r24, 0x2C	; 44
     e24:	0e 94 a7 25 	call	0x4b4e	; 0x4b4e <USBSend>
     e28:	75 dd       	rcall	.-1302   	; 0x914 <WaitForKeypress>
     e2a:	ec 01       	movw	r28, r24
     e2c:	0e 94 b1 26 	call	0x4d62	; 0x4d62 <GetModifier>
     e30:	be 01       	movw	r22, r28
     e32:	77 27       	eor	r23, r23
     e34:	48 2f       	mov	r20, r24
     e36:	84 e4       	ldi	r24, 0x44	; 68
     e38:	7c dd       	rcall	.-1288   	; 0x932 <TeachHIDKey>
     e3a:	60 e0       	ldi	r22, 0x00	; 0
     e3c:	88 e2       	ldi	r24, 0x28	; 40
     e3e:	0e 94 a7 25 	call	0x4b4e	; 0x4b4e <USBSend>
     e42:	89 ed       	ldi	r24, 0xD9	; 217
     e44:	92 e0       	ldi	r25, 0x02	; 2
     e46:	0e 94 f2 25 	call	0x4be4	; 0x4be4 <USBSendString>
     e4a:	60 e0       	ldi	r22, 0x00	; 0
     e4c:	8c e2       	ldi	r24, 0x2C	; 44
     e4e:	0e 94 a7 25 	call	0x4b4e	; 0x4b4e <USBSend>
     e52:	60 dd       	rcall	.-1344   	; 0x914 <WaitForKeypress>
     e54:	ec 01       	movw	r28, r24
     e56:	0e 94 b1 26 	call	0x4d62	; 0x4d62 <GetModifier>
     e5a:	be 01       	movw	r22, r28
     e5c:	77 27       	eor	r23, r23
     e5e:	48 2f       	mov	r20, r24
     e60:	85 e4       	ldi	r24, 0x45	; 69
     e62:	67 dd       	rcall	.-1330   	; 0x932 <TeachHIDKey>
     e64:	60 e0       	ldi	r22, 0x00	; 0
     e66:	88 e2       	ldi	r24, 0x28	; 40
     e68:	0e 94 a7 25 	call	0x4b4e	; 0x4b4e <USBSend>
     e6c:	89 eb       	ldi	r24, 0xB9	; 185
     e6e:	92 e0       	ldi	r25, 0x02	; 2
     e70:	0e 94 f2 25 	call	0x4be4	; 0x4be4 <USBSendString>
     e74:	60 e0       	ldi	r22, 0x00	; 0
     e76:	8c e2       	ldi	r24, 0x2C	; 44
     e78:	0e 94 a7 25 	call	0x4b4e	; 0x4b4e <USBSend>
     e7c:	4b dd       	rcall	.-1386   	; 0x914 <WaitForKeypress>
     e7e:	9f ef       	ldi	r25, 0xFF	; 255
     e80:	98 0f       	add	r25, r24
     e82:	98 30       	cpi	r25, 0x08	; 8
     e84:	28 f4       	brcc	.+10     	; 0xe90 <Calibrate+0x28c>
     e86:	80 93 2e 07 	sts	0x072E, r24
     e8a:	0e 94 6b 26 	call	0x4cd6	; 0x4cd6 <USBSendNumber>
     e8e:	04 c0       	rjmp	.+8      	; 0xe98 <Calibrate+0x294>
     e90:	8b e9       	ldi	r24, 0x9B	; 155
     e92:	92 e0       	ldi	r25, 0x02	; 2
     e94:	0e 94 63 26 	call	0x4cc6	; 0x4cc6 <USBSendPROGString>
     e98:	ff ef       	ldi	r31, 0xFF	; 255
     e9a:	24 e3       	ldi	r18, 0x34	; 52
     e9c:	8c e0       	ldi	r24, 0x0C	; 12
     e9e:	f1 50       	subi	r31, 0x01	; 1
     ea0:	20 40       	sbci	r18, 0x00	; 0
     ea2:	80 40       	sbci	r24, 0x00	; 0
     ea4:	e1 f7       	brne	.-8      	; 0xe9e <Calibrate+0x29a>
     ea6:	00 c0       	rjmp	.+0      	; 0xea8 <Calibrate+0x2a4>
     ea8:	00 00       	nop
     eaa:	60 e0       	ldi	r22, 0x00	; 0
     eac:	88 e2       	ldi	r24, 0x28	; 40
     eae:	0e 94 a7 25 	call	0x4b4e	; 0x4b4e <USBSend>
     eb2:	1d e2       	ldi	r17, 0x2D	; 45
     eb4:	0e e2       	ldi	r16, 0x2E	; 46
     eb6:	8f e3       	ldi	r24, 0x3F	; 63
     eb8:	f8 2e       	mov	r15, r24
     eba:	9f e2       	ldi	r25, 0x2F	; 47
     ebc:	d9 2e       	mov	r13, r25
     ebe:	2a e2       	ldi	r18, 0x2A	; 42
     ec0:	c2 2e       	mov	r12, r18
     ec2:	30 e6       	ldi	r19, 0x60	; 96
     ec4:	b3 2e       	mov	r11, r19
     ec6:	4e e7       	ldi	r20, 0x7E	; 126
     ec8:	a4 2e       	mov	r10, r20
     eca:	5d e3       	ldi	r21, 0x3D	; 61
     ecc:	95 2e       	mov	r9, r21
     ece:	6b e2       	ldi	r22, 0x2B	; 43
     ed0:	86 2e       	mov	r8, r22
     ed2:	7b e3       	ldi	r23, 0x3B	; 59
     ed4:	77 2e       	mov	r7, r23
     ed6:	ea e3       	ldi	r30, 0x3A	; 58
     ed8:	6e 2e       	mov	r6, r30
     eda:	12 33       	cpi	r17, 0x32	; 50
     edc:	09 f4       	brne	.+2      	; 0xee0 <Calibrate+0x2dc>
     ede:	5b c0       	rjmp	.+182    	; 0xf96 <Calibrate+0x392>
     ee0:	60 e0       	ldi	r22, 0x00	; 0
     ee2:	81 2f       	mov	r24, r17
     ee4:	0e 94 a7 25 	call	0x4b4e	; 0x4b4e <USBSend>
     ee8:	60 e0       	ldi	r22, 0x00	; 0
     eea:	8c e2       	ldi	r24, 0x2C	; 44
     eec:	0e 94 a7 25 	call	0x4b4e	; 0x4b4e <USBSend>
     ef0:	11 dd       	rcall	.-1502   	; 0x914 <WaitForKeypress>
     ef2:	ec 01       	movw	r28, r24
     ef4:	0e 94 b1 26 	call	0x4d62	; 0x4d62 <GetModifier>
     ef8:	e8 2e       	mov	r14, r24
     efa:	dd 27       	eor	r29, r29
     efc:	48 2f       	mov	r20, r24
     efe:	be 01       	movw	r22, r28
     f00:	81 2f       	mov	r24, r17
     f02:	17 dd       	rcall	.-1490   	; 0x932 <TeachHIDKey>
     f04:	e2 fc       	sbrc	r14, 2
     f06:	43 c0       	rjmp	.+134    	; 0xf8e <Calibrate+0x38a>
     f08:	13 33       	cpi	r17, 0x33	; 51
     f0a:	41 f4       	brne	.+16     	; 0xf1c <Calibrate+0x318>
     f0c:	fe 01       	movw	r30, r28
     f0e:	e8 50       	subi	r30, 0x08	; 8
     f10:	f8 4f       	sbci	r31, 0xF8	; 248
     f12:	70 82       	st	Z, r7
     f14:	c7 58       	subi	r28, 0x87	; 135
     f16:	d8 4f       	sbci	r29, 0xF8	; 248
     f18:	68 82       	st	Y, r6
     f1a:	39 c0       	rjmp	.+114    	; 0xf8e <Calibrate+0x38a>
     f1c:	1e 32       	cpi	r17, 0x2E	; 46
     f1e:	41 f4       	brne	.+16     	; 0xf30 <Calibrate+0x32c>
     f20:	fe 01       	movw	r30, r28
     f22:	e8 50       	subi	r30, 0x08	; 8
     f24:	f8 4f       	sbci	r31, 0xF8	; 248
     f26:	90 82       	st	Z, r9
     f28:	c7 58       	subi	r28, 0x87	; 135
     f2a:	d8 4f       	sbci	r29, 0xF8	; 248
     f2c:	88 82       	st	Y, r8
     f2e:	2f c0       	rjmp	.+94     	; 0xf8e <Calibrate+0x38a>
     f30:	15 33       	cpi	r17, 0x35	; 53
     f32:	41 f4       	brne	.+16     	; 0xf44 <Calibrate+0x340>
     f34:	fe 01       	movw	r30, r28
     f36:	e8 50       	subi	r30, 0x08	; 8
     f38:	f8 4f       	sbci	r31, 0xF8	; 248
     f3a:	b0 82       	st	Z, r11
     f3c:	c7 58       	subi	r28, 0x87	; 135
     f3e:	d8 4f       	sbci	r29, 0xF8	; 248
     f40:	a8 82       	st	Y, r10
     f42:	25 c0       	rjmp	.+74     	; 0xf8e <Calibrate+0x38a>
     f44:	1d 32       	cpi	r17, 0x2D	; 45
     f46:	41 f4       	brne	.+16     	; 0xf58 <Calibrate+0x354>
     f48:	fe 01       	movw	r30, r28
     f4a:	e8 50       	subi	r30, 0x08	; 8
     f4c:	f8 4f       	sbci	r31, 0xF8	; 248
     f4e:	10 83       	st	Z, r17
     f50:	c7 58       	subi	r28, 0x87	; 135
     f52:	d8 4f       	sbci	r29, 0xF8	; 248
     f54:	c8 82       	st	Y, r12
     f56:	1b c0       	rjmp	.+54     	; 0xf8e <Calibrate+0x38a>
     f58:	18 33       	cpi	r17, 0x38	; 56
     f5a:	29 f4       	brne	.+10     	; 0xf66 <Calibrate+0x362>
     f5c:	fe 01       	movw	r30, r28
     f5e:	e8 50       	subi	r30, 0x08	; 8
     f60:	f8 4f       	sbci	r31, 0xF8	; 248
     f62:	d0 82       	st	Z, r13
     f64:	07 c0       	rjmp	.+14     	; 0xf74 <Calibrate+0x370>
     f66:	16 33       	cpi	r17, 0x36	; 54
     f68:	49 f4       	brne	.+18     	; 0xf7c <Calibrate+0x378>
     f6a:	fe 01       	movw	r30, r28
     f6c:	e8 50       	subi	r30, 0x08	; 8
     f6e:	f8 4f       	sbci	r31, 0xF8	; 248
     f70:	8c e2       	ldi	r24, 0x2C	; 44
     f72:	80 83       	st	Z, r24
     f74:	c7 58       	subi	r28, 0x87	; 135
     f76:	d8 4f       	sbci	r29, 0xF8	; 248
     f78:	f8 82       	st	Y, r15
     f7a:	09 c0       	rjmp	.+18     	; 0xf8e <Calibrate+0x38a>
     f7c:	17 33       	cpi	r17, 0x37	; 55
     f7e:	39 f4       	brne	.+14     	; 0xf8e <Calibrate+0x38a>
     f80:	fe 01       	movw	r30, r28
     f82:	e8 50       	subi	r30, 0x08	; 8
     f84:	f8 4f       	sbci	r31, 0xF8	; 248
     f86:	00 83       	st	Z, r16
     f88:	c7 58       	subi	r28, 0x87	; 135
     f8a:	d8 4f       	sbci	r29, 0xF8	; 248
     f8c:	08 83       	st	Y, r16
     f8e:	60 e0       	ldi	r22, 0x00	; 0
     f90:	88 e2       	ldi	r24, 0x28	; 40
     f92:	0e 94 a7 25 	call	0x4b4e	; 0x4b4e <USBSend>
     f96:	1f 5f       	subi	r17, 0xFF	; 255
     f98:	19 33       	cpi	r17, 0x39	; 57
     f9a:	09 f0       	breq	.+2      	; 0xf9e <Calibrate+0x39a>
     f9c:	9e cf       	rjmp	.-196    	; 0xeda <Calibrate+0x2d6>
     f9e:	62 e0       	ldi	r22, 0x02	; 2
     fa0:	8f e1       	ldi	r24, 0x1F	; 31
     fa2:	0e 94 a7 25 	call	0x4b4e	; 0x4b4e <USBSend>
     fa6:	60 e0       	ldi	r22, 0x00	; 0
     fa8:	8c e2       	ldi	r24, 0x2C	; 44
     faa:	0e 94 a7 25 	call	0x4b4e	; 0x4b4e <USBSend>
     fae:	b2 dc       	rcall	.-1692   	; 0x914 <WaitForKeypress>
     fb0:	ec 01       	movw	r28, r24
     fb2:	0e 94 b1 26 	call	0x4d62	; 0x4d62 <GetModifier>
     fb6:	18 2f       	mov	r17, r24
     fb8:	be 01       	movw	r22, r28
     fba:	77 27       	eor	r23, r23
     fbc:	48 2f       	mov	r20, r24
     fbe:	80 e4       	ldi	r24, 0x40	; 64
     fc0:	14 de       	rcall	.-984    	; 0xbea <TeachASCIIKey>
     fc2:	12 30       	cpi	r17, 0x02	; 2
     fc4:	41 f4       	brne	.+16     	; 0xfd6 <Calibrate+0x3d2>
     fc6:	89 eb       	ldi	r24, 0xB9	; 185
     fc8:	92 e0       	ldi	r25, 0x02	; 2
     fca:	0e 94 f2 25 	call	0x4be4	; 0x4be4 <USBSendString>
     fce:	62 e0       	ldi	r22, 0x02	; 2
     fd0:	8e e2       	ldi	r24, 0x2E	; 46
     fd2:	0e 94 a7 25 	call	0x4b4e	; 0x4b4e <USBSend>
     fd6:	8c 2f       	mov	r24, r28
     fd8:	0e 94 6b 26 	call	0x4cd6	; 0x4cd6 <USBSendNumber>
     fdc:	60 e0       	ldi	r22, 0x00	; 0
     fde:	88 e2       	ldi	r24, 0x28	; 40
     fe0:	0e 94 a7 25 	call	0x4b4e	; 0x4b4e <USBSend>
     fe4:	9f ef       	ldi	r25, 0xFF	; 255
     fe6:	e4 e3       	ldi	r30, 0x34	; 52
     fe8:	fc e0       	ldi	r31, 0x0C	; 12
     fea:	91 50       	subi	r25, 0x01	; 1
     fec:	e0 40       	sbci	r30, 0x00	; 0
     fee:	f0 40       	sbci	r31, 0x00	; 0
     ff0:	e1 f7       	brne	.-8      	; 0xfea <Calibrate+0x3e6>
     ff2:	00 c0       	rjmp	.+0      	; 0xff4 <Calibrate+0x3f0>
     ff4:	00 00       	nop
     ff6:	62 e0       	ldi	r22, 0x02	; 2
     ff8:	88 e3       	ldi	r24, 0x38	; 56
     ffa:	0e 94 a7 25 	call	0x4b4e	; 0x4b4e <USBSend>
     ffe:	60 e0       	ldi	r22, 0x00	; 0
    1000:	8c e2       	ldi	r24, 0x2C	; 44
    1002:	0e 94 a7 25 	call	0x4b4e	; 0x4b4e <USBSend>
    1006:	86 dc       	rcall	.-1780   	; 0x914 <WaitForKeypress>
    1008:	ec 01       	movw	r28, r24
    100a:	0e 94 b1 26 	call	0x4d62	; 0x4d62 <GetModifier>
    100e:	18 2f       	mov	r17, r24
    1010:	be 01       	movw	r22, r28
    1012:	77 27       	eor	r23, r23
    1014:	48 2f       	mov	r20, r24
    1016:	8f e3       	ldi	r24, 0x3F	; 63
    1018:	e8 dd       	rcall	.-1072   	; 0xbea <TeachASCIIKey>
    101a:	12 30       	cpi	r17, 0x02	; 2
    101c:	41 f4       	brne	.+16     	; 0x102e <Calibrate+0x42a>
    101e:	89 eb       	ldi	r24, 0xB9	; 185
    1020:	92 e0       	ldi	r25, 0x02	; 2
    1022:	0e 94 f2 25 	call	0x4be4	; 0x4be4 <USBSendString>
    1026:	62 e0       	ldi	r22, 0x02	; 2
    1028:	8e e2       	ldi	r24, 0x2E	; 46
    102a:	0e 94 a7 25 	call	0x4b4e	; 0x4b4e <USBSend>
    102e:	8c 2f       	mov	r24, r28
    1030:	0e 94 6b 26 	call	0x4cd6	; 0x4cd6 <USBSendNumber>
    1034:	60 e0       	ldi	r22, 0x00	; 0
    1036:	88 e2       	ldi	r24, 0x28	; 40
    1038:	0e 94 a7 25 	call	0x4b4e	; 0x4b4e <USBSend>
    103c:	2f ef       	ldi	r18, 0xFF	; 255
    103e:	84 e3       	ldi	r24, 0x34	; 52
    1040:	9c e0       	ldi	r25, 0x0C	; 12
    1042:	21 50       	subi	r18, 0x01	; 1
    1044:	80 40       	sbci	r24, 0x00	; 0
    1046:	90 40       	sbci	r25, 0x00	; 0
    1048:	e1 f7       	brne	.-8      	; 0x1042 <Calibrate+0x43e>
    104a:	00 c0       	rjmp	.+0      	; 0x104c <Calibrate+0x448>
    104c:	00 00       	nop
    104e:	62 e0       	ldi	r22, 0x02	; 2
    1050:	8e e9       	ldi	r24, 0x9E	; 158
    1052:	0e 94 a7 25 	call	0x4b4e	; 0x4b4e <USBSend>
    1056:	60 e0       	ldi	r22, 0x00	; 0
    1058:	8c e2       	ldi	r24, 0x2C	; 44
    105a:	0e 94 a7 25 	call	0x4b4e	; 0x4b4e <USBSend>
    105e:	5a dc       	rcall	.-1868   	; 0x914 <WaitForKeypress>
    1060:	ec 01       	movw	r28, r24
    1062:	0e 94 b1 26 	call	0x4d62	; 0x4d62 <GetModifier>
    1066:	18 2f       	mov	r17, r24
    1068:	dd 27       	eor	r29, r29
    106a:	48 2f       	mov	r20, r24
    106c:	be 01       	movw	r22, r28
    106e:	8e e9       	ldi	r24, 0x9E	; 158
    1070:	60 dc       	rcall	.-1856   	; 0x932 <TeachHIDKey>
    1072:	41 2f       	mov	r20, r17
    1074:	be 01       	movw	r22, r28
    1076:	81 e2       	ldi	r24, 0x21	; 33
    1078:	b8 dd       	rcall	.-1168   	; 0xbea <TeachASCIIKey>
    107a:	60 e0       	ldi	r22, 0x00	; 0
    107c:	88 e2       	ldi	r24, 0x28	; 40
    107e:	0e 94 a7 25 	call	0x4b4e	; 0x4b4e <USBSend>
    1082:	83 dc       	rcall	.-1786   	; 0x98a <CalibrateReeds>
    1084:	a0 db       	rcall	.-2240   	; 0x7c6 <SaveCalibration>
    1086:	8c ea       	ldi	r24, 0xAC	; 172
    1088:	90 e0       	ldi	r25, 0x00	; 0
    108a:	df 91       	pop	r29
    108c:	cf 91       	pop	r28
    108e:	1f 91       	pop	r17
    1090:	0f 91       	pop	r16
    1092:	ff 90       	pop	r15
    1094:	ef 90       	pop	r14
    1096:	df 90       	pop	r13
    1098:	cf 90       	pop	r12
    109a:	bf 90       	pop	r11
    109c:	af 90       	pop	r10
    109e:	9f 90       	pop	r9
    10a0:	8f 90       	pop	r8
    10a2:	7f 90       	pop	r7
    10a4:	6f 90       	pop	r6
    10a6:	0c 94 63 26 	jmp	0x4cc6	; 0x4cc6 <USBSendPROGString>

000010aa <Adjust_Sensitivity>:
    10aa:	cf 93       	push	r28
    10ac:	81 e0       	ldi	r24, 0x01	; 1
    10ae:	92 e0       	ldi	r25, 0x02	; 2
    10b0:	0e 94 02 37 	call	0x6e04	; 0x6e04 <eeprom_read_byte>
    10b4:	80 93 78 07 	sts	0x0778, r24
    10b8:	82 e0       	ldi	r24, 0x02	; 2
    10ba:	92 e0       	ldi	r25, 0x02	; 2
    10bc:	0e 94 02 37 	call	0x6e04	; 0x6e04 <eeprom_read_byte>
    10c0:	80 93 ea 06 	sts	0x06EA, r24
    10c4:	80 e0       	ldi	r24, 0x00	; 0
    10c6:	92 e0       	ldi	r25, 0x02	; 2
    10c8:	0e 94 02 37 	call	0x6e04	; 0x6e04 <eeprom_read_byte>
    10cc:	80 93 2d 07 	sts	0x072D, r24
    10d0:	80 91 7d 0a 	lds	r24, 0x0A7D
    10d4:	84 30       	cpi	r24, 0x04	; 4
    10d6:	e1 f7       	brne	.-8      	; 0x10d0 <Adjust_Sensitivity+0x26>
    10d8:	2f ef       	ldi	r18, 0xFF	; 255
    10da:	89 e6       	ldi	r24, 0x69	; 105
    10dc:	98 e1       	ldi	r25, 0x18	; 24
    10de:	21 50       	subi	r18, 0x01	; 1
    10e0:	80 40       	sbci	r24, 0x00	; 0
    10e2:	90 40       	sbci	r25, 0x00	; 0
    10e4:	e1 f7       	brne	.-8      	; 0x10de <Adjust_Sensitivity+0x34>
    10e6:	00 c0       	rjmp	.+0      	; 0x10e8 <Adjust_Sensitivity+0x3e>
    10e8:	00 00       	nop
    10ea:	81 ea       	ldi	r24, 0xA1	; 161
    10ec:	91 e0       	ldi	r25, 0x01	; 1
    10ee:	0e 94 63 26 	call	0x4cc6	; 0x4cc6 <USBSendPROGString>
    10f2:	83 e8       	ldi	r24, 0x83	; 131
    10f4:	91 e0       	ldi	r25, 0x01	; 1
    10f6:	0e 94 63 26 	call	0x4cc6	; 0x4cc6 <USBSendPROGString>
    10fa:	7e 99       	sbic	0x0f, 6	; 15
    10fc:	fe cf       	rjmp	.-4      	; 0x10fa <Adjust_Sensitivity+0x50>
    10fe:	83 e5       	ldi	r24, 0x53	; 83
    1100:	91 e0       	ldi	r25, 0x01	; 1
    1102:	0e 94 63 26 	call	0x4cc6	; 0x4cc6 <USBSendPROGString>
    1106:	80 91 78 07 	lds	r24, 0x0778
    110a:	0e 94 6b 26 	call	0x4cd6	; 0x4cd6 <USBSendNumber>
    110e:	60 e0       	ldi	r22, 0x00	; 0
    1110:	88 e2       	ldi	r24, 0x28	; 40
    1112:	0e 94 a7 25 	call	0x4b4e	; 0x4b4e <USBSend>
    1116:	7e 9b       	sbis	0x0f, 6	; 15
    1118:	15 c0       	rjmp	.+42     	; 0x1144 <Adjust_Sensitivity+0x9a>
    111a:	7c 99       	sbic	0x0f, 4	; 15
    111c:	0b c0       	rjmp	.+22     	; 0x1134 <Adjust_Sensitivity+0x8a>
    111e:	80 91 78 07 	lds	r24, 0x0778
    1122:	8f 5f       	subi	r24, 0xFF	; 255
    1124:	80 93 78 07 	sts	0x0778, r24
    1128:	0e 94 6b 26 	call	0x4cd6	; 0x4cd6 <USBSendNumber>
    112c:	60 e0       	ldi	r22, 0x00	; 0
    112e:	88 e2       	ldi	r24, 0x28	; 40
    1130:	0e 94 a7 25 	call	0x4b4e	; 0x4b4e <USBSend>
    1134:	7d 99       	sbic	0x0f, 5	; 15
    1136:	ef cf       	rjmp	.-34     	; 0x1116 <Adjust_Sensitivity+0x6c>
    1138:	80 91 78 07 	lds	r24, 0x0778
    113c:	81 50       	subi	r24, 0x01	; 1
    113e:	80 93 78 07 	sts	0x0778, r24
    1142:	e3 cf       	rjmp	.-58     	; 0x110a <Adjust_Sensitivity+0x60>
    1144:	85 e3       	ldi	r24, 0x35	; 53
    1146:	91 e0       	ldi	r25, 0x01	; 1
    1148:	0e 94 63 26 	call	0x4cc6	; 0x4cc6 <USBSendPROGString>
    114c:	80 91 ea 06 	lds	r24, 0x06EA
    1150:	0e 94 6b 26 	call	0x4cd6	; 0x4cd6 <USBSendNumber>
    1154:	60 e0       	ldi	r22, 0x00	; 0
    1156:	88 e2       	ldi	r24, 0x28	; 40
    1158:	0e 94 a7 25 	call	0x4b4e	; 0x4b4e <USBSend>
    115c:	7e 9b       	sbis	0x0f, 6	; 15
    115e:	15 c0       	rjmp	.+42     	; 0x118a <Adjust_Sensitivity+0xe0>
    1160:	7c 99       	sbic	0x0f, 4	; 15
    1162:	0b c0       	rjmp	.+22     	; 0x117a <Adjust_Sensitivity+0xd0>
    1164:	80 91 ea 06 	lds	r24, 0x06EA
    1168:	8f 5f       	subi	r24, 0xFF	; 255
    116a:	80 93 ea 06 	sts	0x06EA, r24
    116e:	0e 94 6b 26 	call	0x4cd6	; 0x4cd6 <USBSendNumber>
    1172:	60 e0       	ldi	r22, 0x00	; 0
    1174:	88 e2       	ldi	r24, 0x28	; 40
    1176:	0e 94 a7 25 	call	0x4b4e	; 0x4b4e <USBSend>
    117a:	7d 99       	sbic	0x0f, 5	; 15
    117c:	ef cf       	rjmp	.-34     	; 0x115c <Adjust_Sensitivity+0xb2>
    117e:	80 91 ea 06 	lds	r24, 0x06EA
    1182:	81 50       	subi	r24, 0x01	; 1
    1184:	80 93 ea 06 	sts	0x06EA, r24
    1188:	e3 cf       	rjmp	.-58     	; 0x1150 <Adjust_Sensitivity+0xa6>
    118a:	87 e0       	ldi	r24, 0x07	; 7
    118c:	91 e0       	ldi	r25, 0x01	; 1
    118e:	0e 94 63 26 	call	0x4cc6	; 0x4cc6 <USBSendPROGString>
    1192:	80 91 2d 07 	lds	r24, 0x072D
    1196:	0e 94 6b 26 	call	0x4cd6	; 0x4cd6 <USBSendNumber>
    119a:	60 e0       	ldi	r22, 0x00	; 0
    119c:	88 e2       	ldi	r24, 0x28	; 40
    119e:	0e 94 a7 25 	call	0x4b4e	; 0x4b4e <USBSend>
    11a2:	7e 9b       	sbis	0x0f, 6	; 15
    11a4:	15 c0       	rjmp	.+42     	; 0x11d0 <Adjust_Sensitivity+0x126>
    11a6:	7c 99       	sbic	0x0f, 4	; 15
    11a8:	0b c0       	rjmp	.+22     	; 0x11c0 <Adjust_Sensitivity+0x116>
    11aa:	80 91 2d 07 	lds	r24, 0x072D
    11ae:	8f 5f       	subi	r24, 0xFF	; 255
    11b0:	80 93 2d 07 	sts	0x072D, r24
    11b4:	0e 94 6b 26 	call	0x4cd6	; 0x4cd6 <USBSendNumber>
    11b8:	60 e0       	ldi	r22, 0x00	; 0
    11ba:	88 e2       	ldi	r24, 0x28	; 40
    11bc:	0e 94 a7 25 	call	0x4b4e	; 0x4b4e <USBSend>
    11c0:	7d 99       	sbic	0x0f, 5	; 15
    11c2:	ef cf       	rjmp	.-34     	; 0x11a2 <Adjust_Sensitivity+0xf8>
    11c4:	80 91 2d 07 	lds	r24, 0x072D
    11c8:	81 50       	subi	r24, 0x01	; 1
    11ca:	80 93 2d 07 	sts	0x072D, r24
    11ce:	e3 cf       	rjmp	.-58     	; 0x1196 <Adjust_Sensitivity+0xec>
    11d0:	87 ee       	ldi	r24, 0xE7	; 231
    11d2:	90 e0       	ldi	r25, 0x00	; 0
    11d4:	0e 94 63 26 	call	0x4cc6	; 0x4cc6 <USBSendPROGString>
    11d8:	80 91 2c 07 	lds	r24, 0x072C
    11dc:	0e 94 6b 26 	call	0x4cd6	; 0x4cd6 <USBSendNumber>
    11e0:	60 e0       	ldi	r22, 0x00	; 0
    11e2:	88 e2       	ldi	r24, 0x28	; 40
    11e4:	0e 94 a7 25 	call	0x4b4e	; 0x4b4e <USBSend>
    11e8:	7e 9b       	sbis	0x0f, 6	; 15
    11ea:	15 c0       	rjmp	.+42     	; 0x1216 <Adjust_Sensitivity+0x16c>
    11ec:	7c 99       	sbic	0x0f, 4	; 15
    11ee:	0b c0       	rjmp	.+22     	; 0x1206 <Adjust_Sensitivity+0x15c>
    11f0:	80 91 2c 07 	lds	r24, 0x072C
    11f4:	8f 5f       	subi	r24, 0xFF	; 255
    11f6:	80 93 2c 07 	sts	0x072C, r24
    11fa:	0e 94 6b 26 	call	0x4cd6	; 0x4cd6 <USBSendNumber>
    11fe:	60 e0       	ldi	r22, 0x00	; 0
    1200:	88 e2       	ldi	r24, 0x28	; 40
    1202:	0e 94 a7 25 	call	0x4b4e	; 0x4b4e <USBSend>
    1206:	7d 99       	sbic	0x0f, 5	; 15
    1208:	ef cf       	rjmp	.-34     	; 0x11e8 <Adjust_Sensitivity+0x13e>
    120a:	80 91 2c 07 	lds	r24, 0x072C
    120e:	81 50       	subi	r24, 0x01	; 1
    1210:	80 93 2c 07 	sts	0x072C, r24
    1214:	e3 cf       	rjmp	.-58     	; 0x11dc <Adjust_Sensitivity+0x132>
    1216:	8d eb       	ldi	r24, 0xBD	; 189
    1218:	90 e0       	ldi	r25, 0x00	; 0
    121a:	0e 94 63 26 	call	0x4cc6	; 0x4cc6 <USBSendPROGString>
    121e:	80 91 e8 06 	lds	r24, 0x06E8
    1222:	88 23       	and	r24, r24
    1224:	19 f0       	breq	.+6      	; 0x122c <Adjust_Sensitivity+0x182>
    1226:	8d ed       	ldi	r24, 0xDD	; 221
    1228:	92 e0       	ldi	r25, 0x02	; 2
    122a:	02 c0       	rjmp	.+4      	; 0x1230 <Adjust_Sensitivity+0x186>
    122c:	81 ee       	ldi	r24, 0xE1	; 225
    122e:	92 e0       	ldi	r25, 0x02	; 2
    1230:	0e 94 f2 25 	call	0x4be4	; 0x4be4 <USBSendString>
    1234:	c1 e0       	ldi	r28, 0x01	; 1
    1236:	7e 9b       	sbis	0x0f, 6	; 15
    1238:	15 c0       	rjmp	.+42     	; 0x1264 <Adjust_Sensitivity+0x1ba>
    123a:	7c 99       	sbic	0x0f, 4	; 15
    123c:	06 c0       	rjmp	.+12     	; 0x124a <Adjust_Sensitivity+0x1a0>
    123e:	10 92 e8 06 	sts	0x06E8, r1
    1242:	81 ee       	ldi	r24, 0xE1	; 225
    1244:	92 e0       	ldi	r25, 0x02	; 2
    1246:	0e 94 f2 25 	call	0x4be4	; 0x4be4 <USBSendString>
    124a:	7d 99       	sbic	0x0f, 5	; 15
    124c:	06 c0       	rjmp	.+12     	; 0x125a <Adjust_Sensitivity+0x1b0>
    124e:	c0 93 e8 06 	sts	0x06E8, r28
    1252:	8d ed       	ldi	r24, 0xDD	; 221
    1254:	92 e0       	ldi	r25, 0x02	; 2
    1256:	0e 94 f2 25 	call	0x4be4	; 0x4be4 <USBSendString>
    125a:	7c 9b       	sbis	0x0f, 4	; 15
    125c:	fe cf       	rjmp	.-4      	; 0x125a <Adjust_Sensitivity+0x1b0>
    125e:	7d 9b       	sbis	0x0f, 5	; 15
    1260:	fc cf       	rjmp	.-8      	; 0x125a <Adjust_Sensitivity+0x1b0>
    1262:	e9 cf       	rjmp	.-46     	; 0x1236 <Adjust_Sensitivity+0x18c>
    1264:	60 91 2d 07 	lds	r22, 0x072D
    1268:	80 e0       	ldi	r24, 0x00	; 0
    126a:	92 e0       	ldi	r25, 0x02	; 2
    126c:	0e 94 0f 37 	call	0x6e1e	; 0x6e1e <eeprom_update_byte>
    1270:	60 91 ea 06 	lds	r22, 0x06EA
    1274:	82 e0       	ldi	r24, 0x02	; 2
    1276:	92 e0       	ldi	r25, 0x02	; 2
    1278:	0e 94 0f 37 	call	0x6e1e	; 0x6e1e <eeprom_update_byte>
    127c:	60 91 78 07 	lds	r22, 0x0778
    1280:	81 e0       	ldi	r24, 0x01	; 1
    1282:	92 e0       	ldi	r25, 0x02	; 2
    1284:	0e 94 0f 37 	call	0x6e1e	; 0x6e1e <eeprom_update_byte>
    1288:	60 91 2c 07 	lds	r22, 0x072C
    128c:	8c e0       	ldi	r24, 0x0C	; 12
    128e:	92 e0       	ldi	r25, 0x02	; 2
    1290:	0e 94 0f 37 	call	0x6e1e	; 0x6e1e <eeprom_update_byte>
    1294:	60 91 e8 06 	lds	r22, 0x06E8
    1298:	8e e0       	ldi	r24, 0x0E	; 14
    129a:	92 e0       	ldi	r25, 0x02	; 2
    129c:	0e 94 0f 37 	call	0x6e1e	; 0x6e1e <eeprom_update_byte>
    12a0:	8c ea       	ldi	r24, 0xAC	; 172
    12a2:	90 e0       	ldi	r25, 0x00	; 0
    12a4:	cf 91       	pop	r28
    12a6:	0c 94 63 26 	jmp	0x4cc6	; 0x4cc6 <USBSendPROGString>

000012aa <Config_Interrupts>:
    12aa:	e4 e6       	ldi	r30, 0x64	; 100
    12ac:	f0 e0       	ldi	r31, 0x00	; 0
    12ae:	80 81       	ld	r24, Z
    12b0:	87 7f       	andi	r24, 0xF7	; 247
    12b2:	80 83       	st	Z, r24
    12b4:	8a e0       	ldi	r24, 0x0A	; 10
    12b6:	80 93 81 00 	sts	0x0081, r24
    12ba:	87 e2       	ldi	r24, 0x27	; 39
    12bc:	80 93 89 00 	sts	0x0089, r24
    12c0:	80 e1       	ldi	r24, 0x10	; 16
    12c2:	80 93 88 00 	sts	0x0088, r24
    12c6:	ef e6       	ldi	r30, 0x6F	; 111
    12c8:	f0 e0       	ldi	r31, 0x00	; 0
    12ca:	80 81       	ld	r24, Z
    12cc:	82 60       	ori	r24, 0x02	; 2
    12ce:	80 83       	st	Z, r24
    12d0:	08 95       	ret

000012d2 <Config_IO>:
    12d2:	20 98       	cbi	0x04, 0	; 4
    12d4:	28 9a       	sbi	0x05, 0	; 5
    12d6:	54 98       	cbi	0x0a, 4	; 10
    12d8:	5c 9a       	sbi	0x0b, 4	; 11
    12da:	56 98       	cbi	0x0a, 6	; 10
    12dc:	5e 9a       	sbi	0x0b, 6	; 11
    12de:	57 98       	cbi	0x0a, 7	; 10
    12e0:	5f 9a       	sbi	0x0b, 7	; 11
    12e2:	24 98       	cbi	0x04, 4	; 4
    12e4:	2c 9a       	sbi	0x05, 4	; 5
    12e6:	2b 9a       	sbi	0x05, 3	; 5
    12e8:	23 98       	cbi	0x04, 3	; 4
    12ea:	2b 9a       	sbi	0x05, 3	; 5
    12ec:	2a 9a       	sbi	0x05, 2	; 5
    12ee:	22 98       	cbi	0x04, 2	; 4
    12f0:	2a 9a       	sbi	0x05, 2	; 5
    12f2:	6a 9a       	sbi	0x0d, 2	; 13
    12f4:	25 98       	cbi	0x04, 5	; 4
    12f6:	2d 9a       	sbi	0x05, 5	; 5
    12f8:	29 9a       	sbi	0x05, 1	; 5
    12fa:	21 98       	cbi	0x04, 1	; 4
    12fc:	29 9a       	sbi	0x05, 1	; 5
    12fe:	59 9a       	sbi	0x0b, 1	; 11
    1300:	51 9a       	sbi	0x0a, 1	; 10
    1302:	55 98       	cbi	0x0a, 5	; 10
    1304:	5b 9a       	sbi	0x0b, 3	; 11
    1306:	53 9a       	sbi	0x0a, 3	; 10
    1308:	52 98       	cbi	0x0a, 2	; 10
    130a:	5a 9a       	sbi	0x0b, 2	; 11
    130c:	84 98       	cbi	0x10, 4	; 16
    130e:	8c 9a       	sbi	0x11, 4	; 17
    1310:	85 98       	cbi	0x10, 5	; 16
    1312:	8d 9a       	sbi	0x11, 5	; 17
    1314:	86 98       	cbi	0x10, 6	; 16
    1316:	8e 9a       	sbi	0x11, 6	; 17
    1318:	8f 98       	cbi	0x11, 7	; 17
    131a:	87 9a       	sbi	0x10, 7	; 16
    131c:	47 9a       	sbi	0x08, 7	; 8
    131e:	3f 9a       	sbi	0x07, 7	; 7
    1320:	81 98       	cbi	0x10, 1	; 16
    1322:	89 9a       	sbi	0x11, 1	; 17
    1324:	76 9a       	sbi	0x0e, 6	; 14
    1326:	6e 9a       	sbi	0x0d, 6	; 13
    1328:	46 9a       	sbi	0x08, 6	; 8
    132a:	3e 9a       	sbi	0x07, 6	; 7
    132c:	2e 9a       	sbi	0x05, 6	; 5
    132e:	26 9a       	sbi	0x04, 6	; 4
    1330:	08 95       	ret

00001332 <GlowGreenLED>:
    1332:	f8 94       	cli
    1334:	9f ef       	ldi	r25, 0xFF	; 255
    1336:	90 93 d1 00 	sts	0x00D1, r25
    133a:	10 92 bf 00 	sts	0x00BF, r1
    133e:	90 e2       	ldi	r25, 0x20	; 32
    1340:	90 93 cf 00 	sts	0x00CF, r25
    1344:	90 91 c4 00 	lds	r25, 0x00C4
    1348:	61 30       	cpi	r22, 0x01	; 1
    134a:	51 f4       	brne	.+20     	; 0x1360 <GlowGreenLED+0x2e>
    134c:	9e 7f       	andi	r25, 0xFE	; 254
    134e:	90 93 c4 00 	sts	0x00C4, r25
    1352:	90 91 c0 00 	lds	r25, 0x00C0
    1356:	9f 7b       	andi	r25, 0xBF	; 191
    1358:	90 93 c0 00 	sts	0x00C0, r25
    135c:	46 98       	cbi	0x08, 6	; 8
    135e:	08 c0       	rjmp	.+16     	; 0x1370 <GlowGreenLED+0x3e>
    1360:	91 60       	ori	r25, 0x01	; 1
    1362:	90 93 c4 00 	sts	0x00C4, r25
    1366:	90 91 c0 00 	lds	r25, 0x00C0
    136a:	90 64       	ori	r25, 0x40	; 64
    136c:	90 93 c0 00 	sts	0x00C0, r25
    1370:	90 91 c0 00 	lds	r25, 0x00C0
    1374:	92 60       	ori	r25, 0x02	; 2
    1376:	90 93 c0 00 	sts	0x00C0, r25
    137a:	90 91 72 00 	lds	r25, 0x0072
    137e:	94 60       	ori	r25, 0x04	; 4
    1380:	90 93 72 00 	sts	0x0072, r25
    1384:	81 30       	cpi	r24, 0x01	; 1
    1386:	69 f0       	breq	.+26     	; 0x13a2 <GlowGreenLED+0x70>
    1388:	30 f0       	brcs	.+12     	; 0x1396 <GlowGreenLED+0x64>
    138a:	82 30       	cpi	r24, 0x02	; 2
    138c:	41 f0       	breq	.+16     	; 0x139e <GlowGreenLED+0x6c>
    138e:	83 30       	cpi	r24, 0x03	; 3
    1390:	41 f4       	brne	.+16     	; 0x13a2 <GlowGreenLED+0x70>
    1392:	86 e0       	ldi	r24, 0x06	; 6
    1394:	09 c0       	rjmp	.+18     	; 0x13a8 <GlowGreenLED+0x76>
    1396:	89 e0       	ldi	r24, 0x09	; 9
    1398:	80 93 c1 00 	sts	0x00C1, r24
    139c:	02 c0       	rjmp	.+4      	; 0x13a2 <GlowGreenLED+0x70>
    139e:	87 e0       	ldi	r24, 0x07	; 7
    13a0:	03 c0       	rjmp	.+6      	; 0x13a8 <GlowGreenLED+0x76>
    13a2:	80 91 c1 00 	lds	r24, 0x00C1
    13a6:	88 60       	ori	r24, 0x08	; 8
    13a8:	80 93 c1 00 	sts	0x00C1, r24
    13ac:	10 92 e5 06 	sts	0x06E5, r1
    13b0:	10 92 bf 00 	sts	0x00BF, r1
    13b4:	10 92 be 00 	sts	0x00BE, r1
    13b8:	78 94       	sei
    13ba:	08 95       	ret

000013bc <__vector_41>:
    13bc:	1f 92       	push	r1
    13be:	0f 92       	push	r0
    13c0:	0f b6       	in	r0, 0x3f	; 63
    13c2:	0f 92       	push	r0
    13c4:	11 24       	eor	r1, r1
    13c6:	8f 93       	push	r24
    13c8:	9f 93       	push	r25
    13ca:	80 91 cf 00 	lds	r24, 0x00CF
    13ce:	90 91 e5 06 	lds	r25, 0x06E5
    13d2:	99 23       	and	r25, r25
    13d4:	19 f0       	breq	.+6      	; 0x13dc <__vector_41+0x20>
    13d6:	92 30       	cpi	r25, 0x02	; 2
    13d8:	39 f0       	breq	.+14     	; 0x13e8 <__vector_41+0x2c>
    13da:	0a c0       	rjmp	.+20     	; 0x13f0 <__vector_41+0x34>
    13dc:	8f 3f       	cpi	r24, 0xFF	; 255
    13de:	31 f4       	brne	.+12     	; 0x13ec <__vector_41+0x30>
    13e0:	91 e0       	ldi	r25, 0x01	; 1
    13e2:	90 93 e5 06 	sts	0x06E5, r25
    13e6:	10 c0       	rjmp	.+32     	; 0x1408 <__vector_41+0x4c>
    13e8:	8f 3f       	cpi	r24, 0xFF	; 255
    13ea:	71 f0       	breq	.+28     	; 0x1408 <__vector_41+0x4c>
    13ec:	8f 5f       	subi	r24, 0xFF	; 255
    13ee:	0c c0       	rjmp	.+24     	; 0x1408 <__vector_41+0x4c>
    13f0:	81 11       	cpse	r24, r1
    13f2:	09 c0       	rjmp	.+18     	; 0x1406 <__vector_41+0x4a>
    13f4:	90 91 c0 00 	lds	r25, 0x00C0
    13f8:	9f 7b       	andi	r25, 0xBF	; 191
    13fa:	90 93 c0 00 	sts	0x00C0, r25
    13fe:	10 92 c1 00 	sts	0x00C1, r1
    1402:	46 9a       	sbi	0x08, 6	; 8
    1404:	01 c0       	rjmp	.+2      	; 0x1408 <__vector_41+0x4c>
    1406:	81 50       	subi	r24, 0x01	; 1
    1408:	80 93 cf 00 	sts	0x00CF, r24
    140c:	9f 91       	pop	r25
    140e:	8f 91       	pop	r24
    1410:	0f 90       	pop	r0
    1412:	0f be       	out	0x3f, r0	; 63
    1414:	0f 90       	pop	r0
    1416:	1f 90       	pop	r1
    1418:	18 95       	reti

0000141a <CALLBACK_USB_GetDescriptor>:
    141a:	29 2f       	mov	r18, r25
    141c:	33 27       	eor	r19, r19
    141e:	23 30       	cpi	r18, 0x03	; 3
    1420:	31 05       	cpc	r19, r1
    1422:	e1 f0       	breq	.+56     	; 0x145c <CALLBACK_USB_GetDescriptor+0x42>
    1424:	5c f4       	brge	.+22     	; 0x143c <CALLBACK_USB_GetDescriptor+0x22>
    1426:	21 30       	cpi	r18, 0x01	; 1
    1428:	31 05       	cpc	r19, r1
    142a:	99 f0       	breq	.+38     	; 0x1452 <CALLBACK_USB_GetDescriptor+0x38>
    142c:	22 30       	cpi	r18, 0x02	; 2
    142e:	31 05       	cpc	r19, r1
    1430:	79 f5       	brne	.+94     	; 0x1490 <CALLBACK_USB_GetDescriptor+0x76>
    1432:	89 e3       	ldi	r24, 0x39	; 57
    1434:	90 e0       	ldi	r25, 0x00	; 0
    1436:	21 e1       	ldi	r18, 0x11	; 17
    1438:	34 e0       	ldi	r19, 0x04	; 4
    143a:	2e c0       	rjmp	.+92     	; 0x1498 <CALLBACK_USB_GetDescriptor+0x7e>
    143c:	21 32       	cpi	r18, 0x21	; 33
    143e:	31 05       	cpc	r19, r1
    1440:	11 f1       	breq	.+68     	; 0x1486 <CALLBACK_USB_GetDescriptor+0x6c>
    1442:	22 32       	cpi	r18, 0x22	; 34
    1444:	31 05       	cpc	r19, r1
    1446:	21 f5       	brne	.+72     	; 0x1490 <CALLBACK_USB_GetDescriptor+0x76>
    1448:	8f e3       	ldi	r24, 0x3F	; 63
    144a:	90 e0       	ldi	r25, 0x00	; 0
    144c:	2c e5       	ldi	r18, 0x5C	; 92
    144e:	34 e0       	ldi	r19, 0x04	; 4
    1450:	23 c0       	rjmp	.+70     	; 0x1498 <CALLBACK_USB_GetDescriptor+0x7e>
    1452:	82 e1       	ldi	r24, 0x12	; 18
    1454:	90 e0       	ldi	r25, 0x00	; 0
    1456:	2a e4       	ldi	r18, 0x4A	; 74
    1458:	34 e0       	ldi	r19, 0x04	; 4
    145a:	1e c0       	rjmp	.+60     	; 0x1498 <CALLBACK_USB_GetDescriptor+0x7e>
    145c:	99 27       	eor	r25, r25
    145e:	81 30       	cpi	r24, 0x01	; 1
    1460:	91 05       	cpc	r25, r1
    1462:	41 f0       	breq	.+16     	; 0x1474 <CALLBACK_USB_GetDescriptor+0x5a>
    1464:	82 30       	cpi	r24, 0x02	; 2
    1466:	91 05       	cpc	r25, r1
    1468:	41 f0       	breq	.+16     	; 0x147a <CALLBACK_USB_GetDescriptor+0x60>
    146a:	89 2b       	or	r24, r25
    146c:	89 f4       	brne	.+34     	; 0x1490 <CALLBACK_USB_GetDescriptor+0x76>
    146e:	ed e0       	ldi	r30, 0x0D	; 13
    1470:	f4 e0       	ldi	r31, 0x04	; 4
    1472:	05 c0       	rjmp	.+10     	; 0x147e <CALLBACK_USB_GetDescriptor+0x64>
    1474:	e5 ee       	ldi	r30, 0xE5	; 229
    1476:	f3 e0       	ldi	r31, 0x03	; 3
    1478:	02 c0       	rjmp	.+4      	; 0x147e <CALLBACK_USB_GetDescriptor+0x64>
    147a:	e3 eb       	ldi	r30, 0xB3	; 179
    147c:	f3 e0       	ldi	r31, 0x03	; 3
    147e:	84 91       	lpm	r24, Z
    1480:	90 e0       	ldi	r25, 0x00	; 0
    1482:	9f 01       	movw	r18, r30
    1484:	09 c0       	rjmp	.+18     	; 0x1498 <CALLBACK_USB_GetDescriptor+0x7e>
    1486:	89 e0       	ldi	r24, 0x09	; 9
    1488:	90 e0       	ldi	r25, 0x00	; 0
    148a:	2a e3       	ldi	r18, 0x3A	; 58
    148c:	34 e0       	ldi	r19, 0x04	; 4
    148e:	04 c0       	rjmp	.+8      	; 0x1498 <CALLBACK_USB_GetDescriptor+0x7e>
    1490:	80 e0       	ldi	r24, 0x00	; 0
    1492:	90 e0       	ldi	r25, 0x00	; 0
    1494:	20 e0       	ldi	r18, 0x00	; 0
    1496:	30 e0       	ldi	r19, 0x00	; 0
    1498:	fa 01       	movw	r30, r20
    149a:	31 83       	std	Z+1, r19	; 0x01
    149c:	20 83       	st	Z, r18
    149e:	08 95       	ret

000014a0 <OpenLogFile>:
    14a0:	cf 93       	push	r28
    14a2:	42 e1       	ldi	r20, 0x12	; 18
    14a4:	60 e0       	ldi	r22, 0x00	; 0
    14a6:	71 e0       	ldi	r23, 0x01	; 1
    14a8:	85 ee       	ldi	r24, 0xE5	; 229
    14aa:	93 e0       	ldi	r25, 0x03	; 3
    14ac:	0e 94 79 1a 	call	0x34f2	; 0x34f2 <f_open>
    14b0:	85 ee       	ldi	r24, 0xE5	; 229
    14b2:	93 e0       	ldi	r25, 0x03	; 3
    14b4:	0e 94 35 1d 	call	0x3a6a	; 0x3a6a <f_sync>
    14b8:	85 ee       	ldi	r24, 0xE5	; 229
    14ba:	93 e0       	ldi	r25, 0x03	; 3
    14bc:	0e 94 78 1d 	call	0x3af0	; 0x3af0 <f_close>
    14c0:	42 e1       	ldi	r20, 0x12	; 18
    14c2:	60 e0       	ldi	r22, 0x00	; 0
    14c4:	71 e0       	ldi	r23, 0x01	; 1
    14c6:	85 ee       	ldi	r24, 0xE5	; 229
    14c8:	93 e0       	ldi	r25, 0x03	; 3
    14ca:	0e 94 79 1a 	call	0x34f2	; 0x34f2 <f_open>
    14ce:	c8 2f       	mov	r28, r24
    14d0:	40 91 ef 03 	lds	r20, 0x03EF
    14d4:	50 91 f0 03 	lds	r21, 0x03F0
    14d8:	60 91 f1 03 	lds	r22, 0x03F1
    14dc:	70 91 f2 03 	lds	r23, 0x03F2
    14e0:	85 ee       	ldi	r24, 0xE5	; 229
    14e2:	93 e0       	ldi	r25, 0x03	; 3
    14e4:	0e 94 88 1d 	call	0x3b10	; 0x3b10 <f_lseek>
    14e8:	8c 2f       	mov	r24, r28
    14ea:	cf 91       	pop	r28
    14ec:	08 95       	ret

000014ee <CloseLogFile>:
    14ee:	85 ee       	ldi	r24, 0xE5	; 229
    14f0:	93 e0       	ldi	r25, 0x03	; 3
    14f2:	0e 94 35 1d 	call	0x3a6a	; 0x3a6a <f_sync>
    14f6:	85 ee       	ldi	r24, 0xE5	; 229
    14f8:	93 e0       	ldi	r25, 0x03	; 3
    14fa:	0c 94 78 1d 	jmp	0x3af0	; 0x3af0 <f_close>

000014fe <MountFilesystem>:
    14fe:	41 e0       	ldi	r20, 0x01	; 1
    1500:	68 e1       	ldi	r22, 0x18	; 24
    1502:	73 e0       	ldi	r23, 0x03	; 3
    1504:	85 e0       	ldi	r24, 0x05	; 5
    1506:	94 e0       	ldi	r25, 0x04	; 4
    1508:	0e 94 31 1a 	call	0x3462	; 0x3462 <f_mount>
    150c:	91 e0       	ldi	r25, 0x01	; 1
    150e:	81 11       	cpse	r24, r1
    1510:	01 c0       	rjmp	.+2      	; 0x1514 <MountFilesystem+0x16>
    1512:	90 e0       	ldi	r25, 0x00	; 0
    1514:	89 2f       	mov	r24, r25
    1516:	08 95       	ret

00001518 <get_num_of_sectors>:
    1518:	80 91 e1 03 	lds	r24, 0x03E1
    151c:	90 91 e2 03 	lds	r25, 0x03E2
    1520:	a0 91 e3 03 	lds	r26, 0x03E3
    1524:	b0 91 e4 03 	lds	r27, 0x03E4
    1528:	89 2b       	or	r24, r25
    152a:	8a 2b       	or	r24, r26
    152c:	8b 2b       	or	r24, r27
    152e:	d9 f4       	brne	.+54     	; 0x1566 <get_num_of_sectors+0x4e>
    1530:	a0 91 07 04 	lds	r26, 0x0407
    1534:	40 91 17 04 	lds	r20, 0x0417
    1538:	50 91 18 04 	lds	r21, 0x0418
    153c:	60 91 19 04 	lds	r22, 0x0419
    1540:	70 91 1a 04 	lds	r23, 0x041A
    1544:	9a 01       	movw	r18, r20
    1546:	ab 01       	movw	r20, r22
    1548:	22 50       	subi	r18, 0x02	; 2
    154a:	31 09       	sbc	r19, r1
    154c:	41 09       	sbc	r20, r1
    154e:	51 09       	sbc	r21, r1
    1550:	b0 e0       	ldi	r27, 0x00	; 0
    1552:	0e 94 75 33 	call	0x66ea	; 0x66ea <__muluhisi3>
    1556:	60 93 e1 03 	sts	0x03E1, r22
    155a:	70 93 e2 03 	sts	0x03E2, r23
    155e:	80 93 e3 03 	sts	0x03E3, r24
    1562:	90 93 e4 03 	sts	0x03E4, r25
    1566:	60 91 e1 03 	lds	r22, 0x03E1
    156a:	70 91 e2 03 	lds	r23, 0x03E2
    156e:	80 91 e3 03 	lds	r24, 0x03E3
    1572:	90 91 e4 03 	lds	r25, 0x03E4
    1576:	08 95       	ret

00001578 <WriteToLogFile>:
    1578:	1f 93       	push	r17
    157a:	cf 93       	push	r28
    157c:	df 93       	push	r29
    157e:	00 d0       	rcall	.+0      	; 0x1580 <WriteToLogFile+0x8>
    1580:	cd b7       	in	r28, 0x3d	; 61
    1582:	de b7       	in	r29, 0x3e	; 62
    1584:	e9 e3       	ldi	r30, 0x39	; 57
    1586:	f8 e0       	ldi	r31, 0x08	; 8
    1588:	01 90       	ld	r0, Z+
    158a:	00 20       	and	r0, r0
    158c:	e9 f7       	brne	.-6      	; 0x1588 <WriteToLogFile+0x10>
    158e:	31 97       	sbiw	r30, 0x01	; 1
    1590:	e9 53       	subi	r30, 0x39	; 57
    1592:	f8 40       	sbci	r31, 0x08	; 8
    1594:	fa 83       	std	Y+2, r31	; 0x02
    1596:	e9 83       	std	Y+1, r30	; 0x01
    1598:	40 91 ef 03 	lds	r20, 0x03EF
    159c:	50 91 f0 03 	lds	r21, 0x03F0
    15a0:	60 91 f1 03 	lds	r22, 0x03F1
    15a4:	70 91 f2 03 	lds	r23, 0x03F2
    15a8:	85 ee       	ldi	r24, 0xE5	; 229
    15aa:	93 e0       	ldi	r25, 0x03	; 3
    15ac:	0e 94 88 1d 	call	0x3b10	; 0x3b10 <f_lseek>
    15b0:	49 81       	ldd	r20, Y+1	; 0x01
    15b2:	5a 81       	ldd	r21, Y+2	; 0x02
    15b4:	9e 01       	movw	r18, r28
    15b6:	2f 5f       	subi	r18, 0xFF	; 255
    15b8:	3f 4f       	sbci	r19, 0xFF	; 255
    15ba:	69 e3       	ldi	r22, 0x39	; 57
    15bc:	78 e0       	ldi	r23, 0x08	; 8
    15be:	85 ee       	ldi	r24, 0xE5	; 229
    15c0:	93 e0       	ldi	r25, 0x03	; 3
    15c2:	0e 94 a3 1b 	call	0x3746	; 0x3746 <f_write>
    15c6:	18 2f       	mov	r17, r24
    15c8:	10 92 39 08 	sts	0x0839, r1
    15cc:	85 ee       	ldi	r24, 0xE5	; 229
    15ce:	93 e0       	ldi	r25, 0x03	; 3
    15d0:	0e 94 35 1d 	call	0x3a6a	; 0x3a6a <f_sync>
    15d4:	81 e0       	ldi	r24, 0x01	; 1
    15d6:	11 11       	cpse	r17, r1
    15d8:	01 c0       	rjmp	.+2      	; 0x15dc <WriteToLogFile+0x64>
    15da:	80 e0       	ldi	r24, 0x00	; 0
    15dc:	0f 90       	pop	r0
    15de:	0f 90       	pop	r0
    15e0:	df 91       	pop	r29
    15e2:	cf 91       	pop	r28
    15e4:	1f 91       	pop	r17
    15e6:	08 95       	ret

000015e8 <TestSDHardware>:
    15e8:	8a df       	rcall	.-236    	; 0x14fe <MountFilesystem>
    15ea:	88 23       	and	r24, r24
    15ec:	21 f0       	breq	.+8      	; 0x15f6 <TestSDHardware+0xe>
    15ee:	8a e0       	ldi	r24, 0x0A	; 10
    15f0:	80 93 38 08 	sts	0x0838, r24
    15f4:	08 95       	ret
    15f6:	64 e0       	ldi	r22, 0x04	; 4
    15f8:	73 e0       	ldi	r23, 0x03	; 3
    15fa:	80 e0       	ldi	r24, 0x00	; 0
    15fc:	91 e0       	ldi	r25, 0x01	; 1
    15fe:	0e 94 35 34 	call	0x686a	; 0x686a <strcpy>
    1602:	4e df       	rcall	.-356    	; 0x14a0 <OpenLogFile>
    1604:	6d e0       	ldi	r22, 0x0D	; 13
    1606:	73 e0       	ldi	r23, 0x03	; 3
    1608:	89 e3       	ldi	r24, 0x39	; 57
    160a:	98 e0       	ldi	r25, 0x08	; 8
    160c:	0e 94 35 34 	call	0x686a	; 0x686a <strcpy>
    1610:	b3 df       	rcall	.-154    	; 0x1578 <WriteToLogFile>
    1612:	6d df       	rcall	.-294    	; 0x14ee <CloseLogFile>
    1614:	2f ef       	ldi	r18, 0xFF	; 255
    1616:	80 e7       	ldi	r24, 0x70	; 112
    1618:	92 e0       	ldi	r25, 0x02	; 2
    161a:	21 50       	subi	r18, 0x01	; 1
    161c:	80 40       	sbci	r24, 0x00	; 0
    161e:	90 40       	sbci	r25, 0x00	; 0
    1620:	e1 f7       	brne	.-8      	; 0x161a <TestSDHardware+0x32>
    1622:	00 c0       	rjmp	.+0      	; 0x1624 <TestSDHardware+0x3c>
    1624:	00 00       	nop
    1626:	ed cf       	rjmp	.-38     	; 0x1602 <TestSDHardware+0x1a>

00001628 <AddToSDBuffer>:
    1628:	e9 e3       	ldi	r30, 0x39	; 57
    162a:	f8 e0       	ldi	r31, 0x08	; 8
    162c:	01 90       	ld	r0, Z+
    162e:	00 20       	and	r0, r0
    1630:	e9 f7       	brne	.-6      	; 0x162c <AddToSDBuffer+0x4>
    1632:	31 97       	sbiw	r30, 0x01	; 1
    1634:	9f 01       	movw	r18, r30
    1636:	29 53       	subi	r18, 0x39	; 57
    1638:	38 40       	sbci	r19, 0x08	; 8
    163a:	26 3f       	cpi	r18, 0xF6	; 246
    163c:	91 e0       	ldi	r25, 0x01	; 1
    163e:	39 07       	cpc	r19, r25
    1640:	08 f0       	brcs	.+2      	; 0x1644 <AddToSDBuffer+0x1c>
    1642:	41 c0       	rjmp	.+130    	; 0x16c6 <AddToSDBuffer+0x9e>
    1644:	8d 30       	cpi	r24, 0x0D	; 13
    1646:	81 f5       	brne	.+96     	; 0x16a8 <AddToSDBuffer+0x80>
    1648:	90 91 e0 03 	lds	r25, 0x03E0
    164c:	f9 01       	movw	r30, r18
    164e:	e7 5c       	subi	r30, 0xC7	; 199
    1650:	f7 4f       	sbci	r31, 0xF7	; 247
    1652:	a9 01       	movw	r20, r18
    1654:	4f 5f       	subi	r20, 0xFF	; 255
    1656:	5f 4f       	sbci	r21, 0xFF	; 255
    1658:	9d 30       	cpi	r25, 0x0D	; 13
    165a:	21 f0       	breq	.+8      	; 0x1664 <AddToSDBuffer+0x3c>
    165c:	90 e2       	ldi	r25, 0x20	; 32
    165e:	90 83       	st	Z, r25
    1660:	fa 01       	movw	r30, r20
    1662:	1f c0       	rjmp	.+62     	; 0x16a2 <AddToSDBuffer+0x7a>
    1664:	d9 01       	movw	r26, r18
    1666:	a8 5c       	subi	r26, 0xC8	; 200
    1668:	b7 4f       	sbci	r27, 0xF7	; 247
    166a:	9c 91       	ld	r25, X
    166c:	b9 01       	movw	r22, r18
    166e:	6e 5f       	subi	r22, 0xFE	; 254
    1670:	7f 4f       	sbci	r23, 0xFF	; 255
    1672:	90 32       	cpi	r25, 0x20	; 32
    1674:	79 f4       	brne	.+30     	; 0x1694 <AddToSDBuffer+0x6c>
    1676:	8c 93       	st	X, r24
    1678:	9a e0       	ldi	r25, 0x0A	; 10
    167a:	90 83       	st	Z, r25
    167c:	fa 01       	movw	r30, r20
    167e:	e7 5c       	subi	r30, 0xC7	; 199
    1680:	f7 4f       	sbci	r31, 0xF7	; 247
    1682:	80 83       	st	Z, r24
    1684:	fb 01       	movw	r30, r22
    1686:	e7 5c       	subi	r30, 0xC7	; 199
    1688:	f7 4f       	sbci	r31, 0xF7	; 247
    168a:	90 83       	st	Z, r25
    168c:	f9 01       	movw	r30, r18
    168e:	e4 5c       	subi	r30, 0xC4	; 196
    1690:	f7 4f       	sbci	r31, 0xF7	; 247
    1692:	16 c0       	rjmp	.+44     	; 0x16c0 <AddToSDBuffer+0x98>
    1694:	80 83       	st	Z, r24
    1696:	fa 01       	movw	r30, r20
    1698:	e7 5c       	subi	r30, 0xC7	; 199
    169a:	f7 4f       	sbci	r31, 0xF7	; 247
    169c:	9a e0       	ldi	r25, 0x0A	; 10
    169e:	90 83       	st	Z, r25
    16a0:	fb 01       	movw	r30, r22
    16a2:	e7 5c       	subi	r30, 0xC7	; 199
    16a4:	f7 4f       	sbci	r31, 0xF7	; 247
    16a6:	0c c0       	rjmp	.+24     	; 0x16c0 <AddToSDBuffer+0x98>
    16a8:	f9 01       	movw	r30, r18
    16aa:	88 30       	cpi	r24, 0x08	; 8
    16ac:	19 f4       	brne	.+6      	; 0x16b4 <AddToSDBuffer+0x8c>
    16ae:	e8 5c       	subi	r30, 0xC8	; 200
    16b0:	f7 4f       	sbci	r31, 0xF7	; 247
    16b2:	06 c0       	rjmp	.+12     	; 0x16c0 <AddToSDBuffer+0x98>
    16b4:	e7 5c       	subi	r30, 0xC7	; 199
    16b6:	f7 4f       	sbci	r31, 0xF7	; 247
    16b8:	80 83       	st	Z, r24
    16ba:	f9 01       	movw	r30, r18
    16bc:	e6 5c       	subi	r30, 0xC6	; 198
    16be:	f7 4f       	sbci	r31, 0xF7	; 247
    16c0:	10 82       	st	Z, r1
    16c2:	80 93 e0 03 	sts	0x03E0, r24
    16c6:	08 95       	ret

000016c8 <LogKeystrokes>:
    16c8:	cf 92       	push	r12
    16ca:	df 92       	push	r13
    16cc:	ef 92       	push	r14
    16ce:	ff 92       	push	r15
    16d0:	0f 93       	push	r16
    16d2:	1f 93       	push	r17
    16d4:	cf 93       	push	r28
    16d6:	df 93       	push	r29
    16d8:	cd b7       	in	r28, 0x3d	; 61
    16da:	de b7       	in	r29, 0x3e	; 62
    16dc:	66 97       	sbiw	r28, 0x16	; 22
    16de:	0f b6       	in	r0, 0x3f	; 63
    16e0:	f8 94       	cli
    16e2:	de bf       	out	0x3e, r29	; 62
    16e4:	0f be       	out	0x3f, r0	; 63
    16e6:	cd bf       	out	0x3d, r28	; 61
    16e8:	10 92 39 08 	sts	0x0839, r1
    16ec:	08 df       	rcall	.-496    	; 0x14fe <MountFilesystem>
    16ee:	81 11       	cpse	r24, r1
    16f0:	3f c0       	rjmp	.+126    	; 0x1770 <LogKeystrokes+0xa8>
    16f2:	61 e0       	ldi	r22, 0x01	; 1
    16f4:	80 e0       	ldi	r24, 0x00	; 0
    16f6:	1d de       	rcall	.-966    	; 0x1332 <GlowGreenLED>
    16f8:	8a e0       	ldi	r24, 0x0A	; 10
    16fa:	92 e0       	ldi	r25, 0x02	; 2
    16fc:	0e 94 0a 37 	call	0x6e14	; 0x6e14 <eeprom_read_word>
    1700:	8c 01       	movw	r16, r24
    1702:	80 31       	cpi	r24, 0x10	; 16
    1704:	97 42       	sbci	r25, 0x27	; 39
    1706:	10 f0       	brcs	.+4      	; 0x170c <LogKeystrokes+0x44>
    1708:	00 e0       	ldi	r16, 0x00	; 0
    170a:	10 e0       	ldi	r17, 0x00	; 0
    170c:	89 e1       	ldi	r24, 0x19	; 25
    170e:	c8 2e       	mov	r12, r24
    1710:	83 e0       	ldi	r24, 0x03	; 3
    1712:	d8 2e       	mov	r13, r24
    1714:	90 e0       	ldi	r25, 0x00	; 0
    1716:	e9 2e       	mov	r14, r25
    1718:	91 e0       	ldi	r25, 0x01	; 1
    171a:	f9 2e       	mov	r15, r25
    171c:	0f 5f       	subi	r16, 0xFF	; 255
    171e:	1f 4f       	sbci	r17, 0xFF	; 255
    1720:	1f 93       	push	r17
    1722:	0f 93       	push	r16
    1724:	df 92       	push	r13
    1726:	cf 92       	push	r12
    1728:	ff 92       	push	r15
    172a:	ef 92       	push	r14
    172c:	0e 94 63 34 	call	0x68c6	; 0x68c6 <sprintf>
    1730:	be 01       	movw	r22, r28
    1732:	6f 5f       	subi	r22, 0xFF	; 255
    1734:	7f 4f       	sbci	r23, 0xFF	; 255
    1736:	80 e0       	ldi	r24, 0x00	; 0
    1738:	91 e0       	ldi	r25, 0x01	; 1
    173a:	0e 94 27 1f 	call	0x3e4e	; 0x3e4e <f_stat>
    173e:	0f 90       	pop	r0
    1740:	0f 90       	pop	r0
    1742:	0f 90       	pop	r0
    1744:	0f 90       	pop	r0
    1746:	0f 90       	pop	r0
    1748:	0f 90       	pop	r0
    174a:	88 23       	and	r24, r24
    174c:	39 f3       	breq	.-50     	; 0x171c <LogKeystrokes+0x54>
    174e:	84 30       	cpi	r24, 0x04	; 4
    1750:	79 f4       	brne	.+30     	; 0x1770 <LogKeystrokes+0xa8>
    1752:	0e 94 bb 27 	call	0x4f76	; 0x4f76 <GetKey>
    1756:	f8 2e       	mov	r15, r24
    1758:	0e 94 b1 26 	call	0x4d62	; 0x4d62 <GetModifier>
    175c:	68 2f       	mov	r22, r24
    175e:	8f 2d       	mov	r24, r15
    1760:	0e 94 10 29 	call	0x5220	; 0x5220 <GetASCIIKeyCode>
    1764:	88 23       	and	r24, r24
    1766:	a9 f3       	breq	.-22     	; 0x1752 <LogKeystrokes+0x8a>
    1768:	5f df       	rcall	.-322    	; 0x1628 <AddToSDBuffer>
    176a:	9a de       	rcall	.-716    	; 0x14a0 <OpenLogFile>
    176c:	88 23       	and	r24, r24
    176e:	21 f0       	breq	.+8      	; 0x1778 <LogKeystrokes+0xb0>
    1770:	8a e0       	ldi	r24, 0x0A	; 10
    1772:	80 93 38 08 	sts	0x0838, r24
    1776:	62 c0       	rjmp	.+196    	; 0x183c <LogKeystrokes+0x174>
    1778:	b8 01       	movw	r22, r16
    177a:	8a e0       	ldi	r24, 0x0A	; 10
    177c:	92 e0       	ldi	r25, 0x02	; 2
    177e:	0e 94 38 37 	call	0x6e70	; 0x6e70 <eeprom_write_word>
    1782:	10 92 32 07 	sts	0x0732, r1
    1786:	10 92 31 07 	sts	0x0731, r1
    178a:	80 91 31 07 	lds	r24, 0x0731
    178e:	90 91 32 07 	lds	r25, 0x0732
    1792:	80 32       	cpi	r24, 0x20	; 32
    1794:	9f 4b       	sbci	r25, 0xBF	; 191
    1796:	08 f0       	brcs	.+2      	; 0x179a <LogKeystrokes+0xd2>
    1798:	4c c0       	rjmp	.+152    	; 0x1832 <LogKeystrokes+0x16a>
    179a:	0e 94 bb 27 	call	0x4f76	; 0x4f76 <GetKey>
    179e:	18 2f       	mov	r17, r24
    17a0:	0e 94 b1 26 	call	0x4d62	; 0x4d62 <GetModifier>
    17a4:	68 2f       	mov	r22, r24
    17a6:	81 2f       	mov	r24, r17
    17a8:	0e 94 10 29 	call	0x5220	; 0x5220 <GetASCIIKeyCode>
    17ac:	18 2f       	mov	r17, r24
    17ae:	88 23       	and	r24, r24
    17b0:	01 f1       	breq	.+64     	; 0x17f2 <LogKeystrokes+0x12a>
    17b2:	83 37       	cpi	r24, 0x73	; 115
    17b4:	21 f4       	brne	.+8      	; 0x17be <LogKeystrokes+0xf6>
    17b6:	80 91 33 07 	lds	r24, 0x0733
    17ba:	81 11       	cpse	r24, r1
    17bc:	10 e0       	ldi	r17, 0x00	; 0
    17be:	10 92 33 07 	sts	0x0733, r1
    17c2:	81 2f       	mov	r24, r17
    17c4:	31 df       	rcall	.-414    	; 0x1628 <AddToSDBuffer>
    17c6:	10 92 32 07 	sts	0x0732, r1
    17ca:	10 92 31 07 	sts	0x0731, r1
    17ce:	1d 30       	cpi	r17, 0x0D	; 13
    17d0:	61 f0       	breq	.+24     	; 0x17ea <LogKeystrokes+0x122>
    17d2:	81 2f       	mov	r24, r17
    17d4:	8d 7f       	andi	r24, 0xFD	; 253
    17d6:	8c 32       	cpi	r24, 0x2C	; 44
    17d8:	41 f0       	breq	.+16     	; 0x17ea <LogKeystrokes+0x122>
    17da:	8f ed       	ldi	r24, 0xDF	; 223
    17dc:	81 0f       	add	r24, r17
    17de:	82 30       	cpi	r24, 0x02	; 2
    17e0:	20 f0       	brcs	.+8      	; 0x17ea <LogKeystrokes+0x122>
    17e2:	1f 33       	cpi	r17, 0x3F	; 63
    17e4:	11 f0       	breq	.+4      	; 0x17ea <LogKeystrokes+0x122>
    17e6:	1a 33       	cpi	r17, 0x3A	; 58
    17e8:	21 f4       	brne	.+8      	; 0x17f2 <LogKeystrokes+0x12a>
    17ea:	60 e0       	ldi	r22, 0x00	; 0
    17ec:	82 e0       	ldi	r24, 0x02	; 2
    17ee:	a1 dd       	rcall	.-1214   	; 0x1332 <GlowGreenLED>
    17f0:	c3 de       	rcall	.-634    	; 0x1578 <WriteToLogFile>
    17f2:	8f ec       	ldi	r24, 0xCF	; 207
    17f4:	97 e0       	ldi	r25, 0x07	; 7
    17f6:	01 97       	sbiw	r24, 0x01	; 1
    17f8:	f1 f7       	brne	.-4      	; 0x17f6 <LogKeystrokes+0x12e>
    17fa:	00 c0       	rjmp	.+0      	; 0x17fc <LogKeystrokes+0x134>
    17fc:	00 00       	nop
    17fe:	80 91 31 07 	lds	r24, 0x0731
    1802:	90 91 32 07 	lds	r25, 0x0732
    1806:	89 3b       	cpi	r24, 0xB9	; 185
    1808:	9b 40       	sbci	r25, 0x0B	; 11
    180a:	08 f4       	brcc	.+2      	; 0x180e <LogKeystrokes+0x146>
    180c:	be cf       	rjmp	.-132    	; 0x178a <LogKeystrokes+0xc2>
    180e:	80 91 39 08 	lds	r24, 0x0839
    1812:	88 23       	and	r24, r24
    1814:	09 f4       	brne	.+2      	; 0x1818 <LogKeystrokes+0x150>
    1816:	b9 cf       	rjmp	.-142    	; 0x178a <LogKeystrokes+0xc2>
    1818:	46 98       	cbi	0x08, 6	; 8
    181a:	8f ef       	ldi	r24, 0xFF	; 255
    181c:	9d e3       	ldi	r25, 0x3D	; 61
    181e:	29 e4       	ldi	r18, 0x49	; 73
    1820:	81 50       	subi	r24, 0x01	; 1
    1822:	90 40       	sbci	r25, 0x00	; 0
    1824:	20 40       	sbci	r18, 0x00	; 0
    1826:	e1 f7       	brne	.-8      	; 0x1820 <LogKeystrokes+0x158>
    1828:	00 c0       	rjmp	.+0      	; 0x182a <LogKeystrokes+0x162>
    182a:	00 00       	nop
    182c:	a5 de       	rcall	.-694    	; 0x1578 <WriteToLogFile>
    182e:	46 9a       	sbi	0x08, 6	; 8
    1830:	ac cf       	rjmp	.-168    	; 0x178a <LogKeystrokes+0xc2>
    1832:	60 e0       	ldi	r22, 0x00	; 0
    1834:	82 e0       	ldi	r24, 0x02	; 2
    1836:	7d dd       	rcall	.-1286   	; 0x1332 <GlowGreenLED>
    1838:	9f de       	rcall	.-706    	; 0x1578 <WriteToLogFile>
    183a:	59 de       	rcall	.-846    	; 0x14ee <CloseLogFile>
    183c:	66 96       	adiw	r28, 0x16	; 22
    183e:	0f b6       	in	r0, 0x3f	; 63
    1840:	f8 94       	cli
    1842:	de bf       	out	0x3e, r29	; 62
    1844:	0f be       	out	0x3f, r0	; 63
    1846:	cd bf       	out	0x3d, r28	; 61
    1848:	df 91       	pop	r29
    184a:	cf 91       	pop	r28
    184c:	1f 91       	pop	r17
    184e:	0f 91       	pop	r16
    1850:	ff 90       	pop	r15
    1852:	ef 90       	pop	r14
    1854:	df 90       	pop	r13
    1856:	cf 90       	pop	r12
    1858:	08 95       	ret

0000185a <dly_us>:
    185a:	23 b1       	in	r18, 0x03	; 3
    185c:	23 b1       	in	r18, 0x03	; 3
    185e:	01 97       	sbiw	r24, 0x01	; 1
    1860:	e1 f7       	brne	.-8      	; 0x185a <dly_us>
    1862:	08 95       	ret

00001864 <xmit_mmc>:
    1864:	fc 01       	movw	r30, r24
    1866:	68 0f       	add	r22, r24
    1868:	79 1f       	adc	r23, r25
    186a:	91 91       	ld	r25, Z+
    186c:	97 ff       	sbrs	r25, 7
    186e:	02 c0       	rjmp	.+4      	; 0x1874 <xmit_mmc+0x10>
    1870:	2a 9a       	sbi	0x05, 2	; 5
    1872:	01 c0       	rjmp	.+2      	; 0x1876 <xmit_mmc+0x12>
    1874:	2a 98       	cbi	0x05, 2	; 5
    1876:	29 9a       	sbi	0x05, 1	; 5
    1878:	29 98       	cbi	0x05, 1	; 5
    187a:	96 ff       	sbrs	r25, 6
    187c:	02 c0       	rjmp	.+4      	; 0x1882 <xmit_mmc+0x1e>
    187e:	2a 9a       	sbi	0x05, 2	; 5
    1880:	01 c0       	rjmp	.+2      	; 0x1884 <xmit_mmc+0x20>
    1882:	2a 98       	cbi	0x05, 2	; 5
    1884:	29 9a       	sbi	0x05, 1	; 5
    1886:	29 98       	cbi	0x05, 1	; 5
    1888:	95 ff       	sbrs	r25, 5
    188a:	02 c0       	rjmp	.+4      	; 0x1890 <xmit_mmc+0x2c>
    188c:	2a 9a       	sbi	0x05, 2	; 5
    188e:	01 c0       	rjmp	.+2      	; 0x1892 <xmit_mmc+0x2e>
    1890:	2a 98       	cbi	0x05, 2	; 5
    1892:	29 9a       	sbi	0x05, 1	; 5
    1894:	29 98       	cbi	0x05, 1	; 5
    1896:	94 ff       	sbrs	r25, 4
    1898:	02 c0       	rjmp	.+4      	; 0x189e <xmit_mmc+0x3a>
    189a:	2a 9a       	sbi	0x05, 2	; 5
    189c:	01 c0       	rjmp	.+2      	; 0x18a0 <xmit_mmc+0x3c>
    189e:	2a 98       	cbi	0x05, 2	; 5
    18a0:	29 9a       	sbi	0x05, 1	; 5
    18a2:	29 98       	cbi	0x05, 1	; 5
    18a4:	93 ff       	sbrs	r25, 3
    18a6:	02 c0       	rjmp	.+4      	; 0x18ac <xmit_mmc+0x48>
    18a8:	2a 9a       	sbi	0x05, 2	; 5
    18aa:	01 c0       	rjmp	.+2      	; 0x18ae <xmit_mmc+0x4a>
    18ac:	2a 98       	cbi	0x05, 2	; 5
    18ae:	29 9a       	sbi	0x05, 1	; 5
    18b0:	29 98       	cbi	0x05, 1	; 5
    18b2:	92 ff       	sbrs	r25, 2
    18b4:	02 c0       	rjmp	.+4      	; 0x18ba <xmit_mmc+0x56>
    18b6:	2a 9a       	sbi	0x05, 2	; 5
    18b8:	01 c0       	rjmp	.+2      	; 0x18bc <xmit_mmc+0x58>
    18ba:	2a 98       	cbi	0x05, 2	; 5
    18bc:	29 9a       	sbi	0x05, 1	; 5
    18be:	29 98       	cbi	0x05, 1	; 5
    18c0:	91 ff       	sbrs	r25, 1
    18c2:	02 c0       	rjmp	.+4      	; 0x18c8 <xmit_mmc+0x64>
    18c4:	2a 9a       	sbi	0x05, 2	; 5
    18c6:	01 c0       	rjmp	.+2      	; 0x18ca <xmit_mmc+0x66>
    18c8:	2a 98       	cbi	0x05, 2	; 5
    18ca:	29 9a       	sbi	0x05, 1	; 5
    18cc:	29 98       	cbi	0x05, 1	; 5
    18ce:	90 ff       	sbrs	r25, 0
    18d0:	02 c0       	rjmp	.+4      	; 0x18d6 <xmit_mmc+0x72>
    18d2:	2a 9a       	sbi	0x05, 2	; 5
    18d4:	01 c0       	rjmp	.+2      	; 0x18d8 <xmit_mmc+0x74>
    18d6:	2a 98       	cbi	0x05, 2	; 5
    18d8:	29 9a       	sbi	0x05, 1	; 5
    18da:	29 98       	cbi	0x05, 1	; 5
    18dc:	e6 17       	cp	r30, r22
    18de:	f7 07       	cpc	r31, r23
    18e0:	21 f6       	brne	.-120    	; 0x186a <xmit_mmc+0x6>
    18e2:	08 95       	ret

000018e4 <rcvr_mmc>:
    18e4:	2a 9a       	sbi	0x05, 2	; 5
    18e6:	fc 01       	movw	r30, r24
    18e8:	68 0f       	add	r22, r24
    18ea:	79 1f       	adc	r23, r25
    18ec:	93 b1       	in	r25, 0x03	; 3
    18ee:	29 9a       	sbi	0x05, 1	; 5
    18f0:	29 98       	cbi	0x05, 1	; 5
    18f2:	93 fb       	bst	r25, 3
    18f4:	99 27       	eor	r25, r25
    18f6:	90 f9       	bld	r25, 0
    18f8:	99 0f       	add	r25, r25
    18fa:	1b 99       	sbic	0x03, 3	; 3
    18fc:	9f 5f       	subi	r25, 0xFF	; 255
    18fe:	29 9a       	sbi	0x05, 1	; 5
    1900:	29 98       	cbi	0x05, 1	; 5
    1902:	99 0f       	add	r25, r25
    1904:	1b 99       	sbic	0x03, 3	; 3
    1906:	9f 5f       	subi	r25, 0xFF	; 255
    1908:	29 9a       	sbi	0x05, 1	; 5
    190a:	29 98       	cbi	0x05, 1	; 5
    190c:	99 0f       	add	r25, r25
    190e:	1b 99       	sbic	0x03, 3	; 3
    1910:	9f 5f       	subi	r25, 0xFF	; 255
    1912:	29 9a       	sbi	0x05, 1	; 5
    1914:	29 98       	cbi	0x05, 1	; 5
    1916:	99 0f       	add	r25, r25
    1918:	1b 99       	sbic	0x03, 3	; 3
    191a:	9f 5f       	subi	r25, 0xFF	; 255
    191c:	29 9a       	sbi	0x05, 1	; 5
    191e:	29 98       	cbi	0x05, 1	; 5
    1920:	99 0f       	add	r25, r25
    1922:	1b 99       	sbic	0x03, 3	; 3
    1924:	9f 5f       	subi	r25, 0xFF	; 255
    1926:	29 9a       	sbi	0x05, 1	; 5
    1928:	29 98       	cbi	0x05, 1	; 5
    192a:	99 0f       	add	r25, r25
    192c:	1b 99       	sbic	0x03, 3	; 3
    192e:	9f 5f       	subi	r25, 0xFF	; 255
    1930:	29 9a       	sbi	0x05, 1	; 5
    1932:	29 98       	cbi	0x05, 1	; 5
    1934:	99 0f       	add	r25, r25
    1936:	1b 99       	sbic	0x03, 3	; 3
    1938:	9f 5f       	subi	r25, 0xFF	; 255
    193a:	29 9a       	sbi	0x05, 1	; 5
    193c:	29 98       	cbi	0x05, 1	; 5
    193e:	91 93       	st	Z+, r25
    1940:	e6 17       	cp	r30, r22
    1942:	f7 07       	cpc	r31, r23
    1944:	99 f6       	brne	.-90     	; 0x18ec <rcvr_mmc+0x8>
    1946:	08 95       	ret

00001948 <wait_ready>:
    1948:	0f 93       	push	r16
    194a:	1f 93       	push	r17
    194c:	cf 93       	push	r28
    194e:	df 93       	push	r29
    1950:	1f 92       	push	r1
    1952:	cd b7       	in	r28, 0x3d	; 61
    1954:	de b7       	in	r29, 0x3e	; 62
    1956:	08 e8       	ldi	r16, 0x88	; 136
    1958:	13 e1       	ldi	r17, 0x13	; 19
    195a:	61 e0       	ldi	r22, 0x01	; 1
    195c:	70 e0       	ldi	r23, 0x00	; 0
    195e:	ce 01       	movw	r24, r28
    1960:	01 96       	adiw	r24, 0x01	; 1
    1962:	c0 df       	rcall	.-128    	; 0x18e4 <rcvr_mmc>
    1964:	89 81       	ldd	r24, Y+1	; 0x01
    1966:	8f 3f       	cpi	r24, 0xFF	; 255
    1968:	31 f0       	breq	.+12     	; 0x1976 <wait_ready+0x2e>
    196a:	84 e6       	ldi	r24, 0x64	; 100
    196c:	90 e0       	ldi	r25, 0x00	; 0
    196e:	75 df       	rcall	.-278    	; 0x185a <dly_us>
    1970:	01 50       	subi	r16, 0x01	; 1
    1972:	11 09       	sbc	r17, r1
    1974:	91 f7       	brne	.-28     	; 0x195a <wait_ready+0x12>
    1976:	81 e0       	ldi	r24, 0x01	; 1
    1978:	90 e0       	ldi	r25, 0x00	; 0
    197a:	01 2b       	or	r16, r17
    197c:	11 f4       	brne	.+4      	; 0x1982 <wait_ready+0x3a>
    197e:	80 e0       	ldi	r24, 0x00	; 0
    1980:	90 e0       	ldi	r25, 0x00	; 0
    1982:	0f 90       	pop	r0
    1984:	df 91       	pop	r29
    1986:	cf 91       	pop	r28
    1988:	1f 91       	pop	r17
    198a:	0f 91       	pop	r16
    198c:	08 95       	ret

0000198e <deselect>:
    198e:	cf 93       	push	r28
    1990:	df 93       	push	r29
    1992:	1f 92       	push	r1
    1994:	cd b7       	in	r28, 0x3d	; 61
    1996:	de b7       	in	r29, 0x3e	; 62
    1998:	59 9a       	sbi	0x0b, 1	; 11
    199a:	61 e0       	ldi	r22, 0x01	; 1
    199c:	70 e0       	ldi	r23, 0x00	; 0
    199e:	ce 01       	movw	r24, r28
    19a0:	01 96       	adiw	r24, 0x01	; 1
    19a2:	a0 df       	rcall	.-192    	; 0x18e4 <rcvr_mmc>
    19a4:	0f 90       	pop	r0
    19a6:	df 91       	pop	r29
    19a8:	cf 91       	pop	r28
    19aa:	08 95       	ret

000019ac <select>:
    19ac:	cf 93       	push	r28
    19ae:	df 93       	push	r29
    19b0:	00 d0       	rcall	.+0      	; 0x19b2 <select+0x6>
    19b2:	1f 92       	push	r1
    19b4:	cd b7       	in	r28, 0x3d	; 61
    19b6:	de b7       	in	r29, 0x3e	; 62
    19b8:	59 98       	cbi	0x0b, 1	; 11
    19ba:	61 e0       	ldi	r22, 0x01	; 1
    19bc:	70 e0       	ldi	r23, 0x00	; 0
    19be:	ce 01       	movw	r24, r28
    19c0:	01 96       	adiw	r24, 0x01	; 1
    19c2:	90 df       	rcall	.-224    	; 0x18e4 <rcvr_mmc>
    19c4:	c1 df       	rcall	.-126    	; 0x1948 <wait_ready>
    19c6:	00 97       	sbiw	r24, 0x00	; 0
    19c8:	31 f4       	brne	.+12     	; 0x19d6 <select+0x2a>
    19ca:	8a 83       	std	Y+2, r24	; 0x02
    19cc:	9b 83       	std	Y+3, r25	; 0x03
    19ce:	df df       	rcall	.-66     	; 0x198e <deselect>
    19d0:	8a 81       	ldd	r24, Y+2	; 0x02
    19d2:	9b 81       	ldd	r25, Y+3	; 0x03
    19d4:	02 c0       	rjmp	.+4      	; 0x19da <select+0x2e>
    19d6:	81 e0       	ldi	r24, 0x01	; 1
    19d8:	90 e0       	ldi	r25, 0x00	; 0
    19da:	0f 90       	pop	r0
    19dc:	0f 90       	pop	r0
    19de:	0f 90       	pop	r0
    19e0:	df 91       	pop	r29
    19e2:	cf 91       	pop	r28
    19e4:	08 95       	ret

000019e6 <rcvr_datablock>:
    19e6:	cf 92       	push	r12
    19e8:	df 92       	push	r13
    19ea:	ef 92       	push	r14
    19ec:	ff 92       	push	r15
    19ee:	0f 93       	push	r16
    19f0:	1f 93       	push	r17
    19f2:	cf 93       	push	r28
    19f4:	df 93       	push	r29
    19f6:	00 d0       	rcall	.+0      	; 0x19f8 <rcvr_datablock+0x12>
    19f8:	cd b7       	in	r28, 0x3d	; 61
    19fa:	de b7       	in	r29, 0x3e	; 62
    19fc:	7c 01       	movw	r14, r24
    19fe:	6b 01       	movw	r12, r22
    1a00:	08 ee       	ldi	r16, 0xE8	; 232
    1a02:	13 e0       	ldi	r17, 0x03	; 3
    1a04:	61 e0       	ldi	r22, 0x01	; 1
    1a06:	70 e0       	ldi	r23, 0x00	; 0
    1a08:	ce 01       	movw	r24, r28
    1a0a:	01 96       	adiw	r24, 0x01	; 1
    1a0c:	6b df       	rcall	.-298    	; 0x18e4 <rcvr_mmc>
    1a0e:	89 81       	ldd	r24, Y+1	; 0x01
    1a10:	8f 3f       	cpi	r24, 0xFF	; 255
    1a12:	71 f0       	breq	.+28     	; 0x1a30 <rcvr_datablock+0x4a>
    1a14:	89 81       	ldd	r24, Y+1	; 0x01
    1a16:	8e 3f       	cpi	r24, 0xFE	; 254
    1a18:	91 f4       	brne	.+36     	; 0x1a3e <rcvr_datablock+0x58>
    1a1a:	b6 01       	movw	r22, r12
    1a1c:	c7 01       	movw	r24, r14
    1a1e:	62 df       	rcall	.-316    	; 0x18e4 <rcvr_mmc>
    1a20:	62 e0       	ldi	r22, 0x02	; 2
    1a22:	70 e0       	ldi	r23, 0x00	; 0
    1a24:	ce 01       	movw	r24, r28
    1a26:	01 96       	adiw	r24, 0x01	; 1
    1a28:	5d df       	rcall	.-326    	; 0x18e4 <rcvr_mmc>
    1a2a:	81 e0       	ldi	r24, 0x01	; 1
    1a2c:	90 e0       	ldi	r25, 0x00	; 0
    1a2e:	09 c0       	rjmp	.+18     	; 0x1a42 <rcvr_datablock+0x5c>
    1a30:	84 e6       	ldi	r24, 0x64	; 100
    1a32:	90 e0       	ldi	r25, 0x00	; 0
    1a34:	12 df       	rcall	.-476    	; 0x185a <dly_us>
    1a36:	01 50       	subi	r16, 0x01	; 1
    1a38:	11 09       	sbc	r17, r1
    1a3a:	21 f7       	brne	.-56     	; 0x1a04 <rcvr_datablock+0x1e>
    1a3c:	eb cf       	rjmp	.-42     	; 0x1a14 <rcvr_datablock+0x2e>
    1a3e:	80 e0       	ldi	r24, 0x00	; 0
    1a40:	90 e0       	ldi	r25, 0x00	; 0
    1a42:	0f 90       	pop	r0
    1a44:	0f 90       	pop	r0
    1a46:	df 91       	pop	r29
    1a48:	cf 91       	pop	r28
    1a4a:	1f 91       	pop	r17
    1a4c:	0f 91       	pop	r16
    1a4e:	ff 90       	pop	r15
    1a50:	ef 90       	pop	r14
    1a52:	df 90       	pop	r13
    1a54:	cf 90       	pop	r12
    1a56:	08 95       	ret

00001a58 <send_cmd>:
    1a58:	df 92       	push	r13
    1a5a:	ef 92       	push	r14
    1a5c:	ff 92       	push	r15
    1a5e:	0f 93       	push	r16
    1a60:	1f 93       	push	r17
    1a62:	cf 93       	push	r28
    1a64:	df 93       	push	r29
    1a66:	cd b7       	in	r28, 0x3d	; 61
    1a68:	de b7       	in	r29, 0x3e	; 62
    1a6a:	27 97       	sbiw	r28, 0x07	; 7
    1a6c:	0f b6       	in	r0, 0x3f	; 63
    1a6e:	f8 94       	cli
    1a70:	de bf       	out	0x3e, r29	; 62
    1a72:	0f be       	out	0x3f, r0	; 63
    1a74:	cd bf       	out	0x3d, r28	; 61
    1a76:	18 2f       	mov	r17, r24
    1a78:	04 2f       	mov	r16, r20
    1a7a:	f5 2e       	mov	r15, r21
    1a7c:	e6 2e       	mov	r14, r22
    1a7e:	d7 2e       	mov	r13, r23
    1a80:	87 ff       	sbrs	r24, 7
    1a82:	08 c0       	rjmp	.+16     	; 0x1a94 <send_cmd+0x3c>
    1a84:	40 e0       	ldi	r20, 0x00	; 0
    1a86:	50 e0       	ldi	r21, 0x00	; 0
    1a88:	ba 01       	movw	r22, r20
    1a8a:	87 e3       	ldi	r24, 0x37	; 55
    1a8c:	e5 df       	rcall	.-54     	; 0x1a58 <send_cmd>
    1a8e:	82 30       	cpi	r24, 0x02	; 2
    1a90:	90 f5       	brcc	.+100    	; 0x1af6 <send_cmd+0x9e>
    1a92:	1f 77       	andi	r17, 0x7F	; 127
    1a94:	1c 30       	cpi	r17, 0x0C	; 12
    1a96:	51 f4       	brne	.+20     	; 0x1aac <send_cmd+0x54>
    1a98:	81 2f       	mov	r24, r17
    1a9a:	80 64       	ori	r24, 0x40	; 64
    1a9c:	89 83       	std	Y+1, r24	; 0x01
    1a9e:	da 82       	std	Y+2, r13	; 0x02
    1aa0:	eb 82       	std	Y+3, r14	; 0x03
    1aa2:	fc 82       	std	Y+4, r15	; 0x04
    1aa4:	0d 83       	std	Y+5, r16	; 0x05
    1aa6:	11 23       	and	r17, r17
    1aa8:	59 f0       	breq	.+22     	; 0x1ac0 <send_cmd+0x68>
    1aaa:	06 c0       	rjmp	.+12     	; 0x1ab8 <send_cmd+0x60>
    1aac:	70 df       	rcall	.-288    	; 0x198e <deselect>
    1aae:	7e df       	rcall	.-260    	; 0x19ac <select>
    1ab0:	89 2b       	or	r24, r25
    1ab2:	91 f7       	brne	.-28     	; 0x1a98 <send_cmd+0x40>
    1ab4:	8f ef       	ldi	r24, 0xFF	; 255
    1ab6:	1f c0       	rjmp	.+62     	; 0x1af6 <send_cmd+0x9e>
    1ab8:	18 30       	cpi	r17, 0x08	; 8
    1aba:	21 f0       	breq	.+8      	; 0x1ac4 <send_cmd+0x6c>
    1abc:	81 e0       	ldi	r24, 0x01	; 1
    1abe:	03 c0       	rjmp	.+6      	; 0x1ac6 <send_cmd+0x6e>
    1ac0:	85 e9       	ldi	r24, 0x95	; 149
    1ac2:	01 c0       	rjmp	.+2      	; 0x1ac6 <send_cmd+0x6e>
    1ac4:	87 e8       	ldi	r24, 0x87	; 135
    1ac6:	8e 83       	std	Y+6, r24	; 0x06
    1ac8:	66 e0       	ldi	r22, 0x06	; 6
    1aca:	70 e0       	ldi	r23, 0x00	; 0
    1acc:	ce 01       	movw	r24, r28
    1ace:	01 96       	adiw	r24, 0x01	; 1
    1ad0:	c9 de       	rcall	.-622    	; 0x1864 <xmit_mmc>
    1ad2:	1c 30       	cpi	r17, 0x0C	; 12
    1ad4:	29 f4       	brne	.+10     	; 0x1ae0 <send_cmd+0x88>
    1ad6:	61 e0       	ldi	r22, 0x01	; 1
    1ad8:	70 e0       	ldi	r23, 0x00	; 0
    1ada:	ce 01       	movw	r24, r28
    1adc:	07 96       	adiw	r24, 0x07	; 7
    1ade:	02 df       	rcall	.-508    	; 0x18e4 <rcvr_mmc>
    1ae0:	1a e0       	ldi	r17, 0x0A	; 10
    1ae2:	61 e0       	ldi	r22, 0x01	; 1
    1ae4:	70 e0       	ldi	r23, 0x00	; 0
    1ae6:	ce 01       	movw	r24, r28
    1ae8:	07 96       	adiw	r24, 0x07	; 7
    1aea:	fc de       	rcall	.-520    	; 0x18e4 <rcvr_mmc>
    1aec:	8f 81       	ldd	r24, Y+7	; 0x07
    1aee:	87 ff       	sbrs	r24, 7
    1af0:	02 c0       	rjmp	.+4      	; 0x1af6 <send_cmd+0x9e>
    1af2:	11 50       	subi	r17, 0x01	; 1
    1af4:	b1 f7       	brne	.-20     	; 0x1ae2 <send_cmd+0x8a>
    1af6:	27 96       	adiw	r28, 0x07	; 7
    1af8:	0f b6       	in	r0, 0x3f	; 63
    1afa:	f8 94       	cli
    1afc:	de bf       	out	0x3e, r29	; 62
    1afe:	0f be       	out	0x3f, r0	; 63
    1b00:	cd bf       	out	0x3d, r28	; 61
    1b02:	df 91       	pop	r29
    1b04:	cf 91       	pop	r28
    1b06:	1f 91       	pop	r17
    1b08:	0f 91       	pop	r16
    1b0a:	ff 90       	pop	r15
    1b0c:	ef 90       	pop	r14
    1b0e:	df 90       	pop	r13
    1b10:	08 95       	ret

00001b12 <xmit_datablock>:
    1b12:	ef 92       	push	r14
    1b14:	ff 92       	push	r15
    1b16:	1f 93       	push	r17
    1b18:	cf 93       	push	r28
    1b1a:	df 93       	push	r29
    1b1c:	00 d0       	rcall	.+0      	; 0x1b1e <xmit_datablock+0xc>
    1b1e:	cd b7       	in	r28, 0x3d	; 61
    1b20:	de b7       	in	r29, 0x3e	; 62
    1b22:	7c 01       	movw	r14, r24
    1b24:	16 2f       	mov	r17, r22
    1b26:	10 df       	rcall	.-480    	; 0x1948 <wait_ready>
    1b28:	00 97       	sbiw	r24, 0x00	; 0
    1b2a:	11 f1       	breq	.+68     	; 0x1b70 <xmit_datablock+0x5e>
    1b2c:	19 83       	std	Y+1, r17	; 0x01
    1b2e:	61 e0       	ldi	r22, 0x01	; 1
    1b30:	70 e0       	ldi	r23, 0x00	; 0
    1b32:	ce 01       	movw	r24, r28
    1b34:	01 96       	adiw	r24, 0x01	; 1
    1b36:	96 de       	rcall	.-724    	; 0x1864 <xmit_mmc>
    1b38:	1d 3f       	cpi	r17, 0xFD	; 253
    1b3a:	c1 f0       	breq	.+48     	; 0x1b6c <xmit_datablock+0x5a>
    1b3c:	60 e0       	ldi	r22, 0x00	; 0
    1b3e:	72 e0       	ldi	r23, 0x02	; 2
    1b40:	c7 01       	movw	r24, r14
    1b42:	90 de       	rcall	.-736    	; 0x1864 <xmit_mmc>
    1b44:	62 e0       	ldi	r22, 0x02	; 2
    1b46:	70 e0       	ldi	r23, 0x00	; 0
    1b48:	ce 01       	movw	r24, r28
    1b4a:	01 96       	adiw	r24, 0x01	; 1
    1b4c:	cb de       	rcall	.-618    	; 0x18e4 <rcvr_mmc>
    1b4e:	61 e0       	ldi	r22, 0x01	; 1
    1b50:	70 e0       	ldi	r23, 0x00	; 0
    1b52:	ce 01       	movw	r24, r28
    1b54:	01 96       	adiw	r24, 0x01	; 1
    1b56:	c6 de       	rcall	.-628    	; 0x18e4 <rcvr_mmc>
    1b58:	89 81       	ldd	r24, Y+1	; 0x01
    1b5a:	8f 71       	andi	r24, 0x1F	; 31
    1b5c:	31 e0       	ldi	r19, 0x01	; 1
    1b5e:	20 e0       	ldi	r18, 0x00	; 0
    1b60:	85 30       	cpi	r24, 0x05	; 5
    1b62:	09 f0       	breq	.+2      	; 0x1b66 <xmit_datablock+0x54>
    1b64:	30 e0       	ldi	r19, 0x00	; 0
    1b66:	83 2f       	mov	r24, r19
    1b68:	92 2f       	mov	r25, r18
    1b6a:	02 c0       	rjmp	.+4      	; 0x1b70 <xmit_datablock+0x5e>
    1b6c:	81 e0       	ldi	r24, 0x01	; 1
    1b6e:	90 e0       	ldi	r25, 0x00	; 0
    1b70:	0f 90       	pop	r0
    1b72:	0f 90       	pop	r0
    1b74:	df 91       	pop	r29
    1b76:	cf 91       	pop	r28
    1b78:	1f 91       	pop	r17
    1b7a:	ff 90       	pop	r15
    1b7c:	ef 90       	pop	r14
    1b7e:	08 95       	ret

00001b80 <disk_status>:
    1b80:	81 11       	cpse	r24, r1
    1b82:	03 c0       	rjmp	.+6      	; 0x1b8a <disk_status+0xa>
    1b84:	80 91 0d 01 	lds	r24, 0x010D
    1b88:	08 95       	ret
    1b8a:	81 e0       	ldi	r24, 0x01	; 1
    1b8c:	08 95       	ret

00001b8e <disk_initialize>:
    1b8e:	ef 92       	push	r14
    1b90:	ff 92       	push	r15
    1b92:	0f 93       	push	r16
    1b94:	1f 93       	push	r17
    1b96:	cf 93       	push	r28
    1b98:	df 93       	push	r29
    1b9a:	00 d0       	rcall	.+0      	; 0x1b9c <disk_initialize+0xe>
    1b9c:	00 d0       	rcall	.+0      	; 0x1b9e <disk_initialize+0x10>
    1b9e:	cd b7       	in	r28, 0x3d	; 61
    1ba0:	de b7       	in	r29, 0x3e	; 62
    1ba2:	81 11       	cpse	r24, r1
    1ba4:	5f c0       	rjmp	.+190    	; 0x1c64 <disk_initialize+0xd6>
    1ba6:	80 e1       	ldi	r24, 0x10	; 16
    1ba8:	97 e2       	ldi	r25, 0x27	; 39
    1baa:	57 de       	rcall	.-850    	; 0x185a <dly_us>
    1bac:	51 9a       	sbi	0x0a, 1	; 10
    1bae:	59 9a       	sbi	0x0b, 1	; 11
    1bb0:	29 98       	cbi	0x05, 1	; 5
    1bb2:	21 9a       	sbi	0x04, 1	; 4
    1bb4:	29 98       	cbi	0x05, 1	; 5
    1bb6:	22 9a       	sbi	0x04, 2	; 4
    1bb8:	2b 9a       	sbi	0x05, 3	; 5
    1bba:	1a e0       	ldi	r17, 0x0A	; 10
    1bbc:	61 e0       	ldi	r22, 0x01	; 1
    1bbe:	70 e0       	ldi	r23, 0x00	; 0
    1bc0:	ce 01       	movw	r24, r28
    1bc2:	01 96       	adiw	r24, 0x01	; 1
    1bc4:	8f de       	rcall	.-738    	; 0x18e4 <rcvr_mmc>
    1bc6:	11 50       	subi	r17, 0x01	; 1
    1bc8:	c9 f7       	brne	.-14     	; 0x1bbc <disk_initialize+0x2e>
    1bca:	40 e0       	ldi	r20, 0x00	; 0
    1bcc:	50 e0       	ldi	r21, 0x00	; 0
    1bce:	ba 01       	movw	r22, r20
    1bd0:	80 e0       	ldi	r24, 0x00	; 0
    1bd2:	42 df       	rcall	.-380    	; 0x1a58 <send_cmd>
    1bd4:	81 30       	cpi	r24, 0x01	; 1
    1bd6:	09 f0       	breq	.+2      	; 0x1bda <disk_initialize+0x4c>
    1bd8:	6b c0       	rjmp	.+214    	; 0x1cb0 <disk_initialize+0x122>
    1bda:	4a ea       	ldi	r20, 0xAA	; 170
    1bdc:	51 e0       	ldi	r21, 0x01	; 1
    1bde:	60 e0       	ldi	r22, 0x00	; 0
    1be0:	70 e0       	ldi	r23, 0x00	; 0
    1be2:	88 e0       	ldi	r24, 0x08	; 8
    1be4:	39 df       	rcall	.-398    	; 0x1a58 <send_cmd>
    1be6:	81 30       	cpi	r24, 0x01	; 1
    1be8:	f1 f4       	brne	.+60     	; 0x1c26 <disk_initialize+0x98>
    1bea:	64 e0       	ldi	r22, 0x04	; 4
    1bec:	70 e0       	ldi	r23, 0x00	; 0
    1bee:	ce 01       	movw	r24, r28
    1bf0:	01 96       	adiw	r24, 0x01	; 1
    1bf2:	78 de       	rcall	.-784    	; 0x18e4 <rcvr_mmc>
    1bf4:	8b 81       	ldd	r24, Y+3	; 0x03
    1bf6:	81 30       	cpi	r24, 0x01	; 1
    1bf8:	09 f0       	breq	.+2      	; 0x1bfc <disk_initialize+0x6e>
    1bfa:	5a c0       	rjmp	.+180    	; 0x1cb0 <disk_initialize+0x122>
    1bfc:	8c 81       	ldd	r24, Y+4	; 0x04
    1bfe:	8a 3a       	cpi	r24, 0xAA	; 170
    1c00:	09 f0       	breq	.+2      	; 0x1c04 <disk_initialize+0x76>
    1c02:	56 c0       	rjmp	.+172    	; 0x1cb0 <disk_initialize+0x122>
    1c04:	08 ee       	ldi	r16, 0xE8	; 232
    1c06:	13 e0       	ldi	r17, 0x03	; 3
    1c08:	40 e0       	ldi	r20, 0x00	; 0
    1c0a:	50 e0       	ldi	r21, 0x00	; 0
    1c0c:	60 e0       	ldi	r22, 0x00	; 0
    1c0e:	70 e4       	ldi	r23, 0x40	; 64
    1c10:	89 ea       	ldi	r24, 0xA9	; 169
    1c12:	22 df       	rcall	.-444    	; 0x1a58 <send_cmd>
    1c14:	88 23       	and	r24, r24
    1c16:	41 f1       	breq	.+80     	; 0x1c68 <disk_initialize+0xda>
    1c18:	88 ee       	ldi	r24, 0xE8	; 232
    1c1a:	93 e0       	ldi	r25, 0x03	; 3
    1c1c:	1e de       	rcall	.-964    	; 0x185a <dly_us>
    1c1e:	01 50       	subi	r16, 0x01	; 1
    1c20:	11 09       	sbc	r17, r1
    1c22:	91 f7       	brne	.-28     	; 0x1c08 <disk_initialize+0x7a>
    1c24:	45 c0       	rjmp	.+138    	; 0x1cb0 <disk_initialize+0x122>
    1c26:	40 e0       	ldi	r20, 0x00	; 0
    1c28:	50 e0       	ldi	r21, 0x00	; 0
    1c2a:	ba 01       	movw	r22, r20
    1c2c:	89 ea       	ldi	r24, 0xA9	; 169
    1c2e:	14 df       	rcall	.-472    	; 0x1a58 <send_cmd>
    1c30:	82 30       	cpi	r24, 0x02	; 2
    1c32:	18 f0       	brcs	.+6      	; 0x1c3a <disk_initialize+0xac>
    1c34:	01 e0       	ldi	r16, 0x01	; 1
    1c36:	11 e0       	ldi	r17, 0x01	; 1
    1c38:	02 c0       	rjmp	.+4      	; 0x1c3e <disk_initialize+0xb0>
    1c3a:	09 ea       	ldi	r16, 0xA9	; 169
    1c3c:	12 e0       	ldi	r17, 0x02	; 2
    1c3e:	88 ee       	ldi	r24, 0xE8	; 232
    1c40:	e8 2e       	mov	r14, r24
    1c42:	83 e0       	ldi	r24, 0x03	; 3
    1c44:	f8 2e       	mov	r15, r24
    1c46:	40 e0       	ldi	r20, 0x00	; 0
    1c48:	50 e0       	ldi	r21, 0x00	; 0
    1c4a:	ba 01       	movw	r22, r20
    1c4c:	80 2f       	mov	r24, r16
    1c4e:	04 df       	rcall	.-504    	; 0x1a58 <send_cmd>
    1c50:	88 23       	and	r24, r24
    1c52:	31 f1       	breq	.+76     	; 0x1ca0 <disk_initialize+0x112>
    1c54:	88 ee       	ldi	r24, 0xE8	; 232
    1c56:	93 e0       	ldi	r25, 0x03	; 3
    1c58:	00 de       	rcall	.-1024   	; 0x185a <dly_us>
    1c5a:	81 e0       	ldi	r24, 0x01	; 1
    1c5c:	e8 1a       	sub	r14, r24
    1c5e:	f1 08       	sbc	r15, r1
    1c60:	91 f7       	brne	.-28     	; 0x1c46 <disk_initialize+0xb8>
    1c62:	26 c0       	rjmp	.+76     	; 0x1cb0 <disk_initialize+0x122>
    1c64:	83 e0       	ldi	r24, 0x03	; 3
    1c66:	26 c0       	rjmp	.+76     	; 0x1cb4 <disk_initialize+0x126>
    1c68:	40 e0       	ldi	r20, 0x00	; 0
    1c6a:	50 e0       	ldi	r21, 0x00	; 0
    1c6c:	ba 01       	movw	r22, r20
    1c6e:	8a e3       	ldi	r24, 0x3A	; 58
    1c70:	f3 de       	rcall	.-538    	; 0x1a58 <send_cmd>
    1c72:	81 11       	cpse	r24, r1
    1c74:	1d c0       	rjmp	.+58     	; 0x1cb0 <disk_initialize+0x122>
    1c76:	64 e0       	ldi	r22, 0x04	; 4
    1c78:	70 e0       	ldi	r23, 0x00	; 0
    1c7a:	ce 01       	movw	r24, r28
    1c7c:	01 96       	adiw	r24, 0x01	; 1
    1c7e:	32 de       	rcall	.-924    	; 0x18e4 <rcvr_mmc>
    1c80:	89 81       	ldd	r24, Y+1	; 0x01
    1c82:	86 fd       	sbrc	r24, 6
    1c84:	02 c0       	rjmp	.+4      	; 0x1c8a <disk_initialize+0xfc>
    1c86:	14 e0       	ldi	r17, 0x04	; 4
    1c88:	01 c0       	rjmp	.+2      	; 0x1c8c <disk_initialize+0xfe>
    1c8a:	1c e0       	ldi	r17, 0x0C	; 12
    1c8c:	10 93 33 06 	sts	0x0633, r17
    1c90:	01 e0       	ldi	r16, 0x01	; 1
    1c92:	11 11       	cpse	r17, r1
    1c94:	00 e0       	ldi	r16, 0x00	; 0
    1c96:	00 93 0d 01 	sts	0x010D, r16
    1c9a:	79 de       	rcall	.-782    	; 0x198e <deselect>
    1c9c:	80 2f       	mov	r24, r16
    1c9e:	0a c0       	rjmp	.+20     	; 0x1cb4 <disk_initialize+0x126>
    1ca0:	40 e0       	ldi	r20, 0x00	; 0
    1ca2:	52 e0       	ldi	r21, 0x02	; 2
    1ca4:	60 e0       	ldi	r22, 0x00	; 0
    1ca6:	70 e0       	ldi	r23, 0x00	; 0
    1ca8:	80 e1       	ldi	r24, 0x10	; 16
    1caa:	d6 de       	rcall	.-596    	; 0x1a58 <send_cmd>
    1cac:	88 23       	and	r24, r24
    1cae:	71 f3       	breq	.-36     	; 0x1c8c <disk_initialize+0xfe>
    1cb0:	10 e0       	ldi	r17, 0x00	; 0
    1cb2:	ec cf       	rjmp	.-40     	; 0x1c8c <disk_initialize+0xfe>
    1cb4:	0f 90       	pop	r0
    1cb6:	0f 90       	pop	r0
    1cb8:	0f 90       	pop	r0
    1cba:	0f 90       	pop	r0
    1cbc:	df 91       	pop	r29
    1cbe:	cf 91       	pop	r28
    1cc0:	1f 91       	pop	r17
    1cc2:	0f 91       	pop	r16
    1cc4:	ff 90       	pop	r15
    1cc6:	ef 90       	pop	r14
    1cc8:	08 95       	ret

00001cca <disk_read>:
    1cca:	ef 92       	push	r14
    1ccc:	ff 92       	push	r15
    1cce:	0f 93       	push	r16
    1cd0:	1f 93       	push	r17
    1cd2:	cf 93       	push	r28
    1cd4:	7b 01       	movw	r14, r22
    1cd6:	ba 01       	movw	r22, r20
    1cd8:	a9 01       	movw	r20, r18
    1cda:	81 11       	cpse	r24, r1
    1cdc:	03 c0       	rjmp	.+6      	; 0x1ce4 <disk_read+0x1a>
    1cde:	80 91 0d 01 	lds	r24, 0x010D
    1ce2:	01 c0       	rjmp	.+2      	; 0x1ce6 <disk_read+0x1c>
    1ce4:	81 e0       	ldi	r24, 0x01	; 1
    1ce6:	80 fd       	sbrc	r24, 0
    1ce8:	2d c0       	rjmp	.+90     	; 0x1d44 <disk_read+0x7a>
    1cea:	80 91 33 06 	lds	r24, 0x0633
    1cee:	83 fd       	sbrc	r24, 3
    1cf0:	07 c0       	rjmp	.+14     	; 0x1d00 <disk_read+0x36>
    1cf2:	89 e0       	ldi	r24, 0x09	; 9
    1cf4:	44 0f       	add	r20, r20
    1cf6:	55 1f       	adc	r21, r21
    1cf8:	66 1f       	adc	r22, r22
    1cfa:	77 1f       	adc	r23, r23
    1cfc:	8a 95       	dec	r24
    1cfe:	d1 f7       	brne	.-12     	; 0x1cf4 <disk_read+0x2a>
    1d00:	02 30       	cpi	r16, 0x02	; 2
    1d02:	11 05       	cpc	r17, r1
    1d04:	10 f4       	brcc	.+4      	; 0x1d0a <disk_read+0x40>
    1d06:	c1 e1       	ldi	r28, 0x11	; 17
    1d08:	01 c0       	rjmp	.+2      	; 0x1d0c <disk_read+0x42>
    1d0a:	c2 e1       	ldi	r28, 0x12	; 18
    1d0c:	8c 2f       	mov	r24, r28
    1d0e:	a4 de       	rcall	.-696    	; 0x1a58 <send_cmd>
    1d10:	81 11       	cpse	r24, r1
    1d12:	12 c0       	rjmp	.+36     	; 0x1d38 <disk_read+0x6e>
    1d14:	60 e0       	ldi	r22, 0x00	; 0
    1d16:	72 e0       	ldi	r23, 0x02	; 2
    1d18:	c7 01       	movw	r24, r14
    1d1a:	65 de       	rcall	.-822    	; 0x19e6 <rcvr_datablock>
    1d1c:	89 2b       	or	r24, r25
    1d1e:	29 f0       	breq	.+10     	; 0x1d2a <disk_read+0x60>
    1d20:	8e ef       	ldi	r24, 0xFE	; 254
    1d22:	f8 1a       	sub	r15, r24
    1d24:	01 50       	subi	r16, 0x01	; 1
    1d26:	11 09       	sbc	r17, r1
    1d28:	a9 f7       	brne	.-22     	; 0x1d14 <disk_read+0x4a>
    1d2a:	c2 31       	cpi	r28, 0x12	; 18
    1d2c:	29 f4       	brne	.+10     	; 0x1d38 <disk_read+0x6e>
    1d2e:	40 e0       	ldi	r20, 0x00	; 0
    1d30:	50 e0       	ldi	r21, 0x00	; 0
    1d32:	ba 01       	movw	r22, r20
    1d34:	8c e0       	ldi	r24, 0x0C	; 12
    1d36:	90 de       	rcall	.-736    	; 0x1a58 <send_cmd>
    1d38:	2a de       	rcall	.-940    	; 0x198e <deselect>
    1d3a:	81 e0       	ldi	r24, 0x01	; 1
    1d3c:	01 2b       	or	r16, r17
    1d3e:	19 f4       	brne	.+6      	; 0x1d46 <disk_read+0x7c>
    1d40:	80 e0       	ldi	r24, 0x00	; 0
    1d42:	01 c0       	rjmp	.+2      	; 0x1d46 <disk_read+0x7c>
    1d44:	83 e0       	ldi	r24, 0x03	; 3
    1d46:	cf 91       	pop	r28
    1d48:	1f 91       	pop	r17
    1d4a:	0f 91       	pop	r16
    1d4c:	ff 90       	pop	r15
    1d4e:	ef 90       	pop	r14
    1d50:	08 95       	ret

00001d52 <disk_write>:
    1d52:	cf 92       	push	r12
    1d54:	df 92       	push	r13
    1d56:	ef 92       	push	r14
    1d58:	ff 92       	push	r15
    1d5a:	0f 93       	push	r16
    1d5c:	1f 93       	push	r17
    1d5e:	cf 93       	push	r28
    1d60:	df 93       	push	r29
    1d62:	eb 01       	movw	r28, r22
    1d64:	69 01       	movw	r12, r18
    1d66:	7a 01       	movw	r14, r20
    1d68:	81 11       	cpse	r24, r1
    1d6a:	03 c0       	rjmp	.+6      	; 0x1d72 <disk_write+0x20>
    1d6c:	80 91 0d 01 	lds	r24, 0x010D
    1d70:	01 c0       	rjmp	.+2      	; 0x1d74 <disk_write+0x22>
    1d72:	81 e0       	ldi	r24, 0x01	; 1
    1d74:	80 fd       	sbrc	r24, 0
    1d76:	43 c0       	rjmp	.+134    	; 0x1dfe <disk_write+0xac>
    1d78:	80 91 33 06 	lds	r24, 0x0633
    1d7c:	83 fd       	sbrc	r24, 3
    1d7e:	07 c0       	rjmp	.+14     	; 0x1d8e <disk_write+0x3c>
    1d80:	99 e0       	ldi	r25, 0x09	; 9
    1d82:	cc 0c       	add	r12, r12
    1d84:	dd 1c       	adc	r13, r13
    1d86:	ee 1c       	adc	r14, r14
    1d88:	ff 1c       	adc	r15, r15
    1d8a:	9a 95       	dec	r25
    1d8c:	d1 f7       	brne	.-12     	; 0x1d82 <disk_write+0x30>
    1d8e:	01 30       	cpi	r16, 0x01	; 1
    1d90:	11 05       	cpc	r17, r1
    1d92:	89 f4       	brne	.+34     	; 0x1db6 <disk_write+0x64>
    1d94:	b7 01       	movw	r22, r14
    1d96:	a6 01       	movw	r20, r12
    1d98:	88 e1       	ldi	r24, 0x18	; 24
    1d9a:	5e de       	rcall	.-836    	; 0x1a58 <send_cmd>
    1d9c:	81 11       	cpse	r24, r1
    1d9e:	29 c0       	rjmp	.+82     	; 0x1df2 <disk_write+0xa0>
    1da0:	6e ef       	ldi	r22, 0xFE	; 254
    1da2:	ce 01       	movw	r24, r28
    1da4:	b6 de       	rcall	.-660    	; 0x1b12 <xmit_datablock>
    1da6:	31 e0       	ldi	r19, 0x01	; 1
    1da8:	20 e0       	ldi	r18, 0x00	; 0
    1daa:	89 2b       	or	r24, r25
    1dac:	09 f0       	breq	.+2      	; 0x1db0 <disk_write+0x5e>
    1dae:	30 e0       	ldi	r19, 0x00	; 0
    1db0:	03 2f       	mov	r16, r19
    1db2:	12 2f       	mov	r17, r18
    1db4:	1e c0       	rjmp	.+60     	; 0x1df2 <disk_write+0xa0>
    1db6:	86 70       	andi	r24, 0x06	; 6
    1db8:	29 f0       	breq	.+10     	; 0x1dc4 <disk_write+0x72>
    1dba:	a8 01       	movw	r20, r16
    1dbc:	60 e0       	ldi	r22, 0x00	; 0
    1dbe:	70 e0       	ldi	r23, 0x00	; 0
    1dc0:	87 e9       	ldi	r24, 0x97	; 151
    1dc2:	4a de       	rcall	.-876    	; 0x1a58 <send_cmd>
    1dc4:	b7 01       	movw	r22, r14
    1dc6:	a6 01       	movw	r20, r12
    1dc8:	89 e1       	ldi	r24, 0x19	; 25
    1dca:	46 de       	rcall	.-884    	; 0x1a58 <send_cmd>
    1dcc:	81 11       	cpse	r24, r1
    1dce:	11 c0       	rjmp	.+34     	; 0x1df2 <disk_write+0xa0>
    1dd0:	6c ef       	ldi	r22, 0xFC	; 252
    1dd2:	ce 01       	movw	r24, r28
    1dd4:	9e de       	rcall	.-708    	; 0x1b12 <xmit_datablock>
    1dd6:	89 2b       	or	r24, r25
    1dd8:	21 f0       	breq	.+8      	; 0x1de2 <disk_write+0x90>
    1dda:	de 5f       	subi	r29, 0xFE	; 254
    1ddc:	01 50       	subi	r16, 0x01	; 1
    1dde:	11 09       	sbc	r17, r1
    1de0:	b9 f7       	brne	.-18     	; 0x1dd0 <disk_write+0x7e>
    1de2:	6d ef       	ldi	r22, 0xFD	; 253
    1de4:	80 e0       	ldi	r24, 0x00	; 0
    1de6:	90 e0       	ldi	r25, 0x00	; 0
    1de8:	94 de       	rcall	.-728    	; 0x1b12 <xmit_datablock>
    1dea:	89 2b       	or	r24, r25
    1dec:	11 f4       	brne	.+4      	; 0x1df2 <disk_write+0xa0>
    1dee:	01 e0       	ldi	r16, 0x01	; 1
    1df0:	10 e0       	ldi	r17, 0x00	; 0
    1df2:	cd dd       	rcall	.-1126   	; 0x198e <deselect>
    1df4:	81 e0       	ldi	r24, 0x01	; 1
    1df6:	01 2b       	or	r16, r17
    1df8:	19 f4       	brne	.+6      	; 0x1e00 <disk_write+0xae>
    1dfa:	80 e0       	ldi	r24, 0x00	; 0
    1dfc:	01 c0       	rjmp	.+2      	; 0x1e00 <disk_write+0xae>
    1dfe:	83 e0       	ldi	r24, 0x03	; 3
    1e00:	df 91       	pop	r29
    1e02:	cf 91       	pop	r28
    1e04:	1f 91       	pop	r17
    1e06:	0f 91       	pop	r16
    1e08:	ff 90       	pop	r15
    1e0a:	ef 90       	pop	r14
    1e0c:	df 90       	pop	r13
    1e0e:	cf 90       	pop	r12
    1e10:	08 95       	ret

00001e12 <disk_ioctl>:
    1e12:	0f 93       	push	r16
    1e14:	1f 93       	push	r17
    1e16:	cf 93       	push	r28
    1e18:	df 93       	push	r29
    1e1a:	cd b7       	in	r28, 0x3d	; 61
    1e1c:	de b7       	in	r29, 0x3e	; 62
    1e1e:	60 97       	sbiw	r28, 0x10	; 16
    1e20:	0f b6       	in	r0, 0x3f	; 63
    1e22:	f8 94       	cli
    1e24:	de bf       	out	0x3e, r29	; 62
    1e26:	0f be       	out	0x3f, r0	; 63
    1e28:	cd bf       	out	0x3d, r28	; 61
    1e2a:	81 11       	cpse	r24, r1
    1e2c:	03 c0       	rjmp	.+6      	; 0x1e34 <disk_ioctl+0x22>
    1e2e:	80 91 0d 01 	lds	r24, 0x010D
    1e32:	01 c0       	rjmp	.+2      	; 0x1e36 <disk_ioctl+0x24>
    1e34:	81 e0       	ldi	r24, 0x01	; 1
    1e36:	80 fd       	sbrc	r24, 0
    1e38:	7c c0       	rjmp	.+248    	; 0x1f32 <disk_ioctl+0x120>
    1e3a:	8a 01       	movw	r16, r20
    1e3c:	61 30       	cpi	r22, 0x01	; 1
    1e3e:	79 f0       	breq	.+30     	; 0x1e5e <disk_ioctl+0x4c>
    1e40:	40 f0       	brcs	.+16     	; 0x1e52 <disk_ioctl+0x40>
    1e42:	63 30       	cpi	r22, 0x03	; 3
    1e44:	09 f0       	breq	.+2      	; 0x1e48 <disk_ioctl+0x36>
    1e46:	71 c0       	rjmp	.+226    	; 0x1f2a <disk_ioctl+0x118>
    1e48:	80 e8       	ldi	r24, 0x80	; 128
    1e4a:	90 e0       	ldi	r25, 0x00	; 0
    1e4c:	a0 e0       	ldi	r26, 0x00	; 0
    1e4e:	b0 e0       	ldi	r27, 0x00	; 0
    1e50:	65 c0       	rjmp	.+202    	; 0x1f1c <disk_ioctl+0x10a>
    1e52:	ac dd       	rcall	.-1192   	; 0x19ac <select>
    1e54:	11 e0       	ldi	r17, 0x01	; 1
    1e56:	89 2b       	or	r24, r25
    1e58:	09 f4       	brne	.+2      	; 0x1e5c <disk_ioctl+0x4a>
    1e5a:	68 c0       	rjmp	.+208    	; 0x1f2c <disk_ioctl+0x11a>
    1e5c:	64 c0       	rjmp	.+200    	; 0x1f26 <disk_ioctl+0x114>
    1e5e:	40 e0       	ldi	r20, 0x00	; 0
    1e60:	50 e0       	ldi	r21, 0x00	; 0
    1e62:	ba 01       	movw	r22, r20
    1e64:	89 e0       	ldi	r24, 0x09	; 9
    1e66:	f8 dd       	rcall	.-1040   	; 0x1a58 <send_cmd>
    1e68:	88 23       	and	r24, r24
    1e6a:	11 f0       	breq	.+4      	; 0x1e70 <disk_ioctl+0x5e>
    1e6c:	11 e0       	ldi	r17, 0x01	; 1
    1e6e:	5e c0       	rjmp	.+188    	; 0x1f2c <disk_ioctl+0x11a>
    1e70:	60 e1       	ldi	r22, 0x10	; 16
    1e72:	70 e0       	ldi	r23, 0x00	; 0
    1e74:	ce 01       	movw	r24, r28
    1e76:	01 96       	adiw	r24, 0x01	; 1
    1e78:	b6 dd       	rcall	.-1172   	; 0x19e6 <rcvr_datablock>
    1e7a:	89 2b       	or	r24, r25
    1e7c:	b9 f3       	breq	.-18     	; 0x1e6c <disk_ioctl+0x5a>
    1e7e:	99 81       	ldd	r25, Y+1	; 0x01
    1e80:	92 95       	swap	r25
    1e82:	96 95       	lsr	r25
    1e84:	96 95       	lsr	r25
    1e86:	93 70       	andi	r25, 0x03	; 3
    1e88:	88 85       	ldd	r24, Y+8	; 0x08
    1e8a:	49 85       	ldd	r20, Y+9	; 0x09
    1e8c:	2a 85       	ldd	r18, Y+10	; 0x0a
    1e8e:	91 30       	cpi	r25, 0x01	; 1
    1e90:	e1 f4       	brne	.+56     	; 0x1eca <disk_ioctl+0xb8>
    1e92:	8f 73       	andi	r24, 0x3F	; 63
    1e94:	90 e0       	ldi	r25, 0x00	; 0
    1e96:	a0 e0       	ldi	r26, 0x00	; 0
    1e98:	b0 e0       	ldi	r27, 0x00	; 0
    1e9a:	dc 01       	movw	r26, r24
    1e9c:	99 27       	eor	r25, r25
    1e9e:	88 27       	eor	r24, r24
    1ea0:	01 96       	adiw	r24, 0x01	; 1
    1ea2:	a1 1d       	adc	r26, r1
    1ea4:	b1 1d       	adc	r27, r1
    1ea6:	50 e0       	ldi	r21, 0x00	; 0
    1ea8:	54 2f       	mov	r21, r20
    1eaa:	44 27       	eor	r20, r20
    1eac:	ba 01       	movw	r22, r20
    1eae:	62 0f       	add	r22, r18
    1eb0:	71 1d       	adc	r23, r1
    1eb2:	86 0f       	add	r24, r22
    1eb4:	97 1f       	adc	r25, r23
    1eb6:	a1 1d       	adc	r26, r1
    1eb8:	b1 1d       	adc	r27, r1
    1eba:	7a e0       	ldi	r23, 0x0A	; 10
    1ebc:	88 0f       	add	r24, r24
    1ebe:	99 1f       	adc	r25, r25
    1ec0:	aa 1f       	adc	r26, r26
    1ec2:	bb 1f       	adc	r27, r27
    1ec4:	7a 95       	dec	r23
    1ec6:	d1 f7       	brne	.-12     	; 0x1ebc <disk_ioctl+0xaa>
    1ec8:	29 c0       	rjmp	.+82     	; 0x1f1c <disk_ioctl+0x10a>
    1eca:	42 95       	swap	r20
    1ecc:	46 95       	lsr	r20
    1ece:	46 95       	lsr	r20
    1ed0:	43 70       	andi	r20, 0x03	; 3
    1ed2:	f4 e0       	ldi	r31, 0x04	; 4
    1ed4:	8f 9f       	mul	r24, r31
    1ed6:	c0 01       	movw	r24, r0
    1ed8:	11 24       	eor	r1, r1
    1eda:	84 0f       	add	r24, r20
    1edc:	91 1d       	adc	r25, r1
    1ede:	01 96       	adiw	r24, 0x01	; 1
    1ee0:	4f 81       	ldd	r20, Y+7	; 0x07
    1ee2:	43 70       	andi	r20, 0x03	; 3
    1ee4:	50 e0       	ldi	r21, 0x00	; 0
    1ee6:	54 2f       	mov	r21, r20
    1ee8:	44 27       	eor	r20, r20
    1eea:	55 0f       	add	r21, r21
    1eec:	55 0f       	add	r21, r21
    1eee:	84 0f       	add	r24, r20
    1ef0:	95 1f       	adc	r25, r21
    1ef2:	a0 e0       	ldi	r26, 0x00	; 0
    1ef4:	b0 e0       	ldi	r27, 0x00	; 0
    1ef6:	3e 81       	ldd	r19, Y+6	; 0x06
    1ef8:	43 2f       	mov	r20, r19
    1efa:	4f 70       	andi	r20, 0x0F	; 15
    1efc:	3b 85       	ldd	r19, Y+11	; 0x0b
    1efe:	33 1f       	adc	r19, r19
    1f00:	33 27       	eor	r19, r19
    1f02:	33 1f       	adc	r19, r19
    1f04:	34 0f       	add	r19, r20
    1f06:	23 70       	andi	r18, 0x03	; 3
    1f08:	22 0f       	add	r18, r18
    1f0a:	23 0f       	add	r18, r19
    1f0c:	27 50       	subi	r18, 0x07	; 7
    1f0e:	04 c0       	rjmp	.+8      	; 0x1f18 <disk_ioctl+0x106>
    1f10:	88 0f       	add	r24, r24
    1f12:	99 1f       	adc	r25, r25
    1f14:	aa 1f       	adc	r26, r26
    1f16:	bb 1f       	adc	r27, r27
    1f18:	2a 95       	dec	r18
    1f1a:	d2 f7       	brpl	.-12     	; 0x1f10 <disk_ioctl+0xfe>
    1f1c:	f8 01       	movw	r30, r16
    1f1e:	80 83       	st	Z, r24
    1f20:	91 83       	std	Z+1, r25	; 0x01
    1f22:	a2 83       	std	Z+2, r26	; 0x02
    1f24:	b3 83       	std	Z+3, r27	; 0x03
    1f26:	10 e0       	ldi	r17, 0x00	; 0
    1f28:	01 c0       	rjmp	.+2      	; 0x1f2c <disk_ioctl+0x11a>
    1f2a:	14 e0       	ldi	r17, 0x04	; 4
    1f2c:	30 dd       	rcall	.-1440   	; 0x198e <deselect>
    1f2e:	81 2f       	mov	r24, r17
    1f30:	01 c0       	rjmp	.+2      	; 0x1f34 <disk_ioctl+0x122>
    1f32:	83 e0       	ldi	r24, 0x03	; 3
    1f34:	60 96       	adiw	r28, 0x10	; 16
    1f36:	0f b6       	in	r0, 0x3f	; 63
    1f38:	f8 94       	cli
    1f3a:	de bf       	out	0x3e, r29	; 62
    1f3c:	0f be       	out	0x3f, r0	; 63
    1f3e:	cd bf       	out	0x3d, r28	; 61
    1f40:	df 91       	pop	r29
    1f42:	cf 91       	pop	r28
    1f44:	1f 91       	pop	r17
    1f46:	0f 91       	pop	r16
    1f48:	08 95       	ret

00001f4a <mem_cpy>:
    1f4a:	cf 93       	push	r28
    1f4c:	df 93       	push	r29
    1f4e:	db 01       	movw	r26, r22
    1f50:	fc 01       	movw	r30, r24
    1f52:	9a 01       	movw	r18, r20
    1f54:	22 30       	cpi	r18, 0x02	; 2
    1f56:	31 05       	cpc	r19, r1
    1f58:	38 f0       	brcs	.+14     	; 0x1f68 <mem_cpy+0x1e>
    1f5a:	cd 91       	ld	r28, X+
    1f5c:	dd 91       	ld	r29, X+
    1f5e:	c1 93       	st	Z+, r28
    1f60:	d1 93       	st	Z+, r29
    1f62:	22 50       	subi	r18, 0x02	; 2
    1f64:	31 09       	sbc	r19, r1
    1f66:	f6 cf       	rjmp	.-20     	; 0x1f54 <mem_cpy+0xa>
    1f68:	da 01       	movw	r26, r20
    1f6a:	ae 7f       	andi	r26, 0xFE	; 254
    1f6c:	fb 01       	movw	r30, r22
    1f6e:	ea 0f       	add	r30, r26
    1f70:	fb 1f       	adc	r31, r27
    1f72:	a8 0f       	add	r26, r24
    1f74:	b9 1f       	adc	r27, r25
    1f76:	41 70       	andi	r20, 0x01	; 1
    1f78:	55 27       	eor	r21, r21
    1f7a:	4e 0f       	add	r20, r30
    1f7c:	5f 1f       	adc	r21, r31
    1f7e:	e4 17       	cp	r30, r20
    1f80:	f5 07       	cpc	r31, r21
    1f82:	19 f0       	breq	.+6      	; 0x1f8a <mem_cpy+0x40>
    1f84:	81 91       	ld	r24, Z+
    1f86:	8d 93       	st	X+, r24
    1f88:	fa cf       	rjmp	.-12     	; 0x1f7e <mem_cpy+0x34>
    1f8a:	df 91       	pop	r29
    1f8c:	cf 91       	pop	r28
    1f8e:	08 95       	ret

00001f90 <get_fileinfo>:
    1f90:	cf 93       	push	r28
    1f92:	df 93       	push	r29
    1f94:	eb 01       	movw	r28, r22
    1f96:	fb 01       	movw	r30, r22
    1f98:	39 96       	adiw	r30, 0x09	; 9
    1f9a:	dc 01       	movw	r26, r24
    1f9c:	1e 96       	adiw	r26, 0x0e	; 14
    1f9e:	4d 91       	ld	r20, X+
    1fa0:	5d 91       	ld	r21, X+
    1fa2:	6d 91       	ld	r22, X+
    1fa4:	7c 91       	ld	r23, X
    1fa6:	51 97       	sbiw	r26, 0x11	; 17
    1fa8:	45 2b       	or	r20, r21
    1faa:	46 2b       	or	r20, r22
    1fac:	47 2b       	or	r20, r23
    1fae:	a1 f1       	breq	.+104    	; 0x2018 <get_fileinfo+0x88>
    1fb0:	52 96       	adiw	r26, 0x12	; 18
    1fb2:	2d 91       	ld	r18, X+
    1fb4:	3c 91       	ld	r19, X
    1fb6:	53 97       	sbiw	r26, 0x13	; 19
    1fb8:	d9 01       	movw	r26, r18
    1fba:	80 e0       	ldi	r24, 0x00	; 0
    1fbc:	90 e0       	ldi	r25, 0x00	; 0
    1fbe:	5e e2       	ldi	r21, 0x2E	; 46
    1fc0:	01 96       	adiw	r24, 0x01	; 1
    1fc2:	4d 91       	ld	r20, X+
    1fc4:	40 32       	cpi	r20, 0x20	; 32
    1fc6:	51 f0       	breq	.+20     	; 0x1fdc <get_fileinfo+0x4c>
    1fc8:	45 30       	cpi	r20, 0x05	; 5
    1fca:	09 f4       	brne	.+2      	; 0x1fce <get_fileinfo+0x3e>
    1fcc:	45 ee       	ldi	r20, 0xE5	; 229
    1fce:	89 30       	cpi	r24, 0x09	; 9
    1fd0:	91 05       	cpc	r25, r1
    1fd2:	11 f4       	brne	.+4      	; 0x1fd8 <get_fileinfo+0x48>
    1fd4:	50 83       	st	Z, r21
    1fd6:	31 96       	adiw	r30, 0x01	; 1
    1fd8:	40 83       	st	Z, r20
    1fda:	31 96       	adiw	r30, 0x01	; 1
    1fdc:	8b 30       	cpi	r24, 0x0B	; 11
    1fde:	91 05       	cpc	r25, r1
    1fe0:	79 f7       	brne	.-34     	; 0x1fc0 <get_fileinfo+0x30>
    1fe2:	d9 01       	movw	r26, r18
    1fe4:	1b 96       	adiw	r26, 0x0b	; 11
    1fe6:	8c 91       	ld	r24, X
    1fe8:	1b 97       	sbiw	r26, 0x0b	; 11
    1fea:	88 87       	std	Y+8, r24	; 0x08
    1fec:	5c 96       	adiw	r26, 0x1c	; 28
    1fee:	4d 91       	ld	r20, X+
    1ff0:	5d 91       	ld	r21, X+
    1ff2:	6d 91       	ld	r22, X+
    1ff4:	7c 91       	ld	r23, X
    1ff6:	5f 97       	sbiw	r26, 0x1f	; 31
    1ff8:	48 83       	st	Y, r20
    1ffa:	59 83       	std	Y+1, r21	; 0x01
    1ffc:	6a 83       	std	Y+2, r22	; 0x02
    1ffe:	7b 83       	std	Y+3, r23	; 0x03
    2000:	58 96       	adiw	r26, 0x18	; 24
    2002:	8d 91       	ld	r24, X+
    2004:	9c 91       	ld	r25, X
    2006:	59 97       	sbiw	r26, 0x19	; 25
    2008:	9d 83       	std	Y+5, r25	; 0x05
    200a:	8c 83       	std	Y+4, r24	; 0x04
    200c:	56 96       	adiw	r26, 0x16	; 22
    200e:	8d 91       	ld	r24, X+
    2010:	9c 91       	ld	r25, X
    2012:	57 97       	sbiw	r26, 0x17	; 23
    2014:	9f 83       	std	Y+7, r25	; 0x07
    2016:	8e 83       	std	Y+6, r24	; 0x06
    2018:	10 82       	st	Z, r1
    201a:	df 91       	pop	r29
    201c:	cf 91       	pop	r28
    201e:	08 95       	ret

00002020 <get_ldnumber>:
    2020:	fc 01       	movw	r30, r24
    2022:	20 81       	ld	r18, Z
    2024:	31 81       	ldd	r19, Z+1	; 0x01
    2026:	21 15       	cp	r18, r1
    2028:	31 05       	cpc	r19, r1
    202a:	b1 f0       	breq	.+44     	; 0x2058 <get_ldnumber+0x38>
    202c:	f9 01       	movw	r30, r18
    202e:	af 01       	movw	r20, r30
    2030:	61 91       	ld	r22, Z+
    2032:	61 32       	cpi	r22, 0x21	; 33
    2034:	70 f0       	brcs	.+28     	; 0x2052 <get_ldnumber+0x32>
    2036:	6a 33       	cpi	r22, 0x3A	; 58
    2038:	d1 f7       	brne	.-12     	; 0x202e <get_ldnumber+0xe>
    203a:	f9 01       	movw	r30, r18
    203c:	61 91       	ld	r22, Z+
    203e:	4e 17       	cp	r20, r30
    2040:	5f 07       	cpc	r21, r31
    2042:	51 f4       	brne	.+20     	; 0x2058 <get_ldnumber+0x38>
    2044:	60 33       	cpi	r22, 0x30	; 48
    2046:	41 f4       	brne	.+16     	; 0x2058 <get_ldnumber+0x38>
    2048:	2e 5f       	subi	r18, 0xFE	; 254
    204a:	3f 4f       	sbci	r19, 0xFF	; 255
    204c:	fc 01       	movw	r30, r24
    204e:	31 83       	std	Z+1, r19	; 0x01
    2050:	20 83       	st	Z, r18
    2052:	80 e0       	ldi	r24, 0x00	; 0
    2054:	90 e0       	ldi	r25, 0x00	; 0
    2056:	08 95       	ret
    2058:	8f ef       	ldi	r24, 0xFF	; 255
    205a:	9f ef       	ldi	r25, 0xFF	; 255
    205c:	08 95       	ret

0000205e <validate>:
    205e:	00 97       	sbiw	r24, 0x00	; 0
    2060:	c1 f0       	breq	.+48     	; 0x2092 <validate+0x34>
    2062:	dc 01       	movw	r26, r24
    2064:	ed 91       	ld	r30, X+
    2066:	fc 91       	ld	r31, X
    2068:	11 97       	sbiw	r26, 0x01	; 1
    206a:	30 97       	sbiw	r30, 0x00	; 0
    206c:	91 f0       	breq	.+36     	; 0x2092 <validate+0x34>
    206e:	20 81       	ld	r18, Z
    2070:	22 23       	and	r18, r18
    2072:	79 f0       	breq	.+30     	; 0x2092 <validate+0x34>
    2074:	26 81       	ldd	r18, Z+6	; 0x06
    2076:	37 81       	ldd	r19, Z+7	; 0x07
    2078:	12 96       	adiw	r26, 0x02	; 2
    207a:	8d 91       	ld	r24, X+
    207c:	9c 91       	ld	r25, X
    207e:	13 97       	sbiw	r26, 0x03	; 3
    2080:	28 17       	cp	r18, r24
    2082:	39 07       	cpc	r19, r25
    2084:	31 f4       	brne	.+12     	; 0x2092 <validate+0x34>
    2086:	81 81       	ldd	r24, Z+1	; 0x01
    2088:	7b dd       	rcall	.-1290   	; 0x1b80 <disk_status>
    208a:	80 ff       	sbrs	r24, 0
    208c:	04 c0       	rjmp	.+8      	; 0x2096 <validate+0x38>
    208e:	83 e0       	ldi	r24, 0x03	; 3
    2090:	08 95       	ret
    2092:	89 e0       	ldi	r24, 0x09	; 9
    2094:	08 95       	ret
    2096:	80 e0       	ldi	r24, 0x00	; 0
    2098:	08 95       	ret

0000209a <sync_window>:
    209a:	4f 92       	push	r4
    209c:	5f 92       	push	r5
    209e:	6f 92       	push	r6
    20a0:	7f 92       	push	r7
    20a2:	af 92       	push	r10
    20a4:	bf 92       	push	r11
    20a6:	cf 92       	push	r12
    20a8:	df 92       	push	r13
    20aa:	ef 92       	push	r14
    20ac:	ff 92       	push	r15
    20ae:	0f 93       	push	r16
    20b0:	1f 93       	push	r17
    20b2:	cf 93       	push	r28
    20b4:	df 93       	push	r29
    20b6:	ec 01       	movw	r28, r24
    20b8:	8c 81       	ldd	r24, Y+4	; 0x04
    20ba:	88 23       	and	r24, r24
    20bc:	09 f4       	brne	.+2      	; 0x20c0 <sync_window+0x26>
    20be:	43 c0       	rjmp	.+134    	; 0x2146 <sync_window+0xac>
    20c0:	4a a4       	ldd	r4, Y+42	; 0x2a
    20c2:	5b a4       	ldd	r5, Y+43	; 0x2b
    20c4:	6c a4       	ldd	r6, Y+44	; 0x2c
    20c6:	7d a4       	ldd	r7, Y+45	; 0x2d
    20c8:	6e 01       	movw	r12, r28
    20ca:	8e e2       	ldi	r24, 0x2E	; 46
    20cc:	c8 0e       	add	r12, r24
    20ce:	d1 1c       	adc	r13, r1
    20d0:	01 e0       	ldi	r16, 0x01	; 1
    20d2:	10 e0       	ldi	r17, 0x00	; 0
    20d4:	a3 01       	movw	r20, r6
    20d6:	92 01       	movw	r18, r4
    20d8:	b6 01       	movw	r22, r12
    20da:	89 81       	ldd	r24, Y+1	; 0x01
    20dc:	3a de       	rcall	.-908    	; 0x1d52 <disk_write>
    20de:	81 11       	cpse	r24, r1
    20e0:	30 c0       	rjmp	.+96     	; 0x2142 <sync_window+0xa8>
    20e2:	1c 82       	std	Y+4, r1	; 0x04
    20e4:	8e 8d       	ldd	r24, Y+30	; 0x1e
    20e6:	9f 8d       	ldd	r25, Y+31	; 0x1f
    20e8:	a8 a1       	ldd	r26, Y+32	; 0x20
    20ea:	b9 a1       	ldd	r27, Y+33	; 0x21
    20ec:	b3 01       	movw	r22, r6
    20ee:	a2 01       	movw	r20, r4
    20f0:	48 1b       	sub	r20, r24
    20f2:	59 0b       	sbc	r21, r25
    20f4:	6a 0b       	sbc	r22, r26
    20f6:	7b 0b       	sbc	r23, r27
    20f8:	8e 89       	ldd	r24, Y+22	; 0x16
    20fa:	9f 89       	ldd	r25, Y+23	; 0x17
    20fc:	a8 8d       	ldd	r26, Y+24	; 0x18
    20fe:	b9 8d       	ldd	r27, Y+25	; 0x19
    2100:	48 17       	cp	r20, r24
    2102:	59 07       	cpc	r21, r25
    2104:	6a 07       	cpc	r22, r26
    2106:	7b 07       	cpc	r23, r27
    2108:	f0 f4       	brcc	.+60     	; 0x2146 <sync_window+0xac>
    210a:	ab 80       	ldd	r10, Y+3	; 0x03
    210c:	b1 2c       	mov	r11, r1
    210e:	e1 2c       	mov	r14, r1
    2110:	f1 2c       	mov	r15, r1
    2112:	c5 01       	movw	r24, r10
    2114:	8e 19       	sub	r24, r14
    2116:	9f 09       	sbc	r25, r15
    2118:	02 97       	sbiw	r24, 0x02	; 2
    211a:	a8 f0       	brcs	.+42     	; 0x2146 <sync_window+0xac>
    211c:	8e 89       	ldd	r24, Y+22	; 0x16
    211e:	9f 89       	ldd	r25, Y+23	; 0x17
    2120:	a8 8d       	ldd	r26, Y+24	; 0x18
    2122:	b9 8d       	ldd	r27, Y+25	; 0x19
    2124:	48 0e       	add	r4, r24
    2126:	59 1e       	adc	r5, r25
    2128:	6a 1e       	adc	r6, r26
    212a:	7b 1e       	adc	r7, r27
    212c:	01 e0       	ldi	r16, 0x01	; 1
    212e:	10 e0       	ldi	r17, 0x00	; 0
    2130:	a3 01       	movw	r20, r6
    2132:	92 01       	movw	r18, r4
    2134:	b6 01       	movw	r22, r12
    2136:	89 81       	ldd	r24, Y+1	; 0x01
    2138:	0c de       	rcall	.-1000   	; 0x1d52 <disk_write>
    213a:	8f ef       	ldi	r24, 0xFF	; 255
    213c:	e8 1a       	sub	r14, r24
    213e:	f8 0a       	sbc	r15, r24
    2140:	e8 cf       	rjmp	.-48     	; 0x2112 <sync_window+0x78>
    2142:	81 e0       	ldi	r24, 0x01	; 1
    2144:	01 c0       	rjmp	.+2      	; 0x2148 <sync_window+0xae>
    2146:	80 e0       	ldi	r24, 0x00	; 0
    2148:	df 91       	pop	r29
    214a:	cf 91       	pop	r28
    214c:	1f 91       	pop	r17
    214e:	0f 91       	pop	r16
    2150:	ff 90       	pop	r15
    2152:	ef 90       	pop	r14
    2154:	df 90       	pop	r13
    2156:	cf 90       	pop	r12
    2158:	bf 90       	pop	r11
    215a:	af 90       	pop	r10
    215c:	7f 90       	pop	r7
    215e:	6f 90       	pop	r6
    2160:	5f 90       	pop	r5
    2162:	4f 90       	pop	r4
    2164:	08 95       	ret

00002166 <move_window>:
    2166:	bf 92       	push	r11
    2168:	cf 92       	push	r12
    216a:	df 92       	push	r13
    216c:	ef 92       	push	r14
    216e:	ff 92       	push	r15
    2170:	0f 93       	push	r16
    2172:	1f 93       	push	r17
    2174:	cf 93       	push	r28
    2176:	df 93       	push	r29
    2178:	ec 01       	movw	r28, r24
    217a:	6a 01       	movw	r12, r20
    217c:	7b 01       	movw	r14, r22
    217e:	8a a5       	ldd	r24, Y+42	; 0x2a
    2180:	9b a5       	ldd	r25, Y+43	; 0x2b
    2182:	ac a5       	ldd	r26, Y+44	; 0x2c
    2184:	bd a5       	ldd	r27, Y+45	; 0x2d
    2186:	48 17       	cp	r20, r24
    2188:	59 07       	cpc	r21, r25
    218a:	6a 07       	cpc	r22, r26
    218c:	7b 07       	cpc	r23, r27
    218e:	d9 f0       	breq	.+54     	; 0x21c6 <move_window+0x60>
    2190:	ce 01       	movw	r24, r28
    2192:	83 df       	rcall	.-250    	; 0x209a <sync_window>
    2194:	b8 2e       	mov	r11, r24
    2196:	81 11       	cpse	r24, r1
    2198:	17 c0       	rjmp	.+46     	; 0x21c8 <move_window+0x62>
    219a:	01 e0       	ldi	r16, 0x01	; 1
    219c:	10 e0       	ldi	r17, 0x00	; 0
    219e:	a7 01       	movw	r20, r14
    21a0:	96 01       	movw	r18, r12
    21a2:	be 01       	movw	r22, r28
    21a4:	62 5d       	subi	r22, 0xD2	; 210
    21a6:	7f 4f       	sbci	r23, 0xFF	; 255
    21a8:	89 81       	ldd	r24, Y+1	; 0x01
    21aa:	8f dd       	rcall	.-1250   	; 0x1cca <disk_read>
    21ac:	88 23       	and	r24, r24
    21ae:	31 f0       	breq	.+12     	; 0x21bc <move_window+0x56>
    21b0:	bb 24       	eor	r11, r11
    21b2:	b3 94       	inc	r11
    21b4:	cc 24       	eor	r12, r12
    21b6:	ca 94       	dec	r12
    21b8:	dc 2c       	mov	r13, r12
    21ba:	76 01       	movw	r14, r12
    21bc:	ca a6       	std	Y+42, r12	; 0x2a
    21be:	db a6       	std	Y+43, r13	; 0x2b
    21c0:	ec a6       	std	Y+44, r14	; 0x2c
    21c2:	fd a6       	std	Y+45, r15	; 0x2d
    21c4:	01 c0       	rjmp	.+2      	; 0x21c8 <move_window+0x62>
    21c6:	b1 2c       	mov	r11, r1
    21c8:	8b 2d       	mov	r24, r11
    21ca:	df 91       	pop	r29
    21cc:	cf 91       	pop	r28
    21ce:	1f 91       	pop	r17
    21d0:	0f 91       	pop	r16
    21d2:	ff 90       	pop	r15
    21d4:	ef 90       	pop	r14
    21d6:	df 90       	pop	r13
    21d8:	cf 90       	pop	r12
    21da:	bf 90       	pop	r11
    21dc:	08 95       	ret

000021de <check_fs>:
    21de:	0f 93       	push	r16
    21e0:	1f 93       	push	r17
    21e2:	cf 93       	push	r28
    21e4:	df 93       	push	r29
    21e6:	ec 01       	movw	r28, r24
    21e8:	1c 82       	std	Y+4, r1	; 0x04
    21ea:	0f ef       	ldi	r16, 0xFF	; 255
    21ec:	1f ef       	ldi	r17, 0xFF	; 255
    21ee:	98 01       	movw	r18, r16
    21f0:	0a a7       	std	Y+42, r16	; 0x2a
    21f2:	1b a7       	std	Y+43, r17	; 0x2b
    21f4:	2c a7       	std	Y+44, r18	; 0x2c
    21f6:	3d a7       	std	Y+45, r19	; 0x2d
    21f8:	b6 df       	rcall	.-148    	; 0x2166 <move_window>
    21fa:	81 11       	cpse	r24, r1
    21fc:	22 c0       	rjmp	.+68     	; 0x2242 <check_fs+0x64>
    21fe:	fe 01       	movw	r30, r28
    2200:	e4 5d       	subi	r30, 0xD4	; 212
    2202:	fd 4f       	sbci	r31, 0xFD	; 253
    2204:	80 81       	ld	r24, Z
    2206:	91 81       	ldd	r25, Z+1	; 0x01
    2208:	85 35       	cpi	r24, 0x55	; 85
    220a:	9a 4a       	sbci	r25, 0xAA	; 170
    220c:	e1 f4       	brne	.+56     	; 0x2246 <check_fs+0x68>
    220e:	e8 5c       	subi	r30, 0xC8	; 200
    2210:	f1 40       	sbci	r31, 0x01	; 1
    2212:	40 81       	ld	r20, Z
    2214:	51 81       	ldd	r21, Z+1	; 0x01
    2216:	62 81       	ldd	r22, Z+2	; 0x02
    2218:	73 81       	ldd	r23, Z+3	; 0x03
    221a:	77 27       	eor	r23, r23
    221c:	46 34       	cpi	r20, 0x46	; 70
    221e:	51 44       	sbci	r21, 0x41	; 65
    2220:	64 45       	sbci	r22, 0x54	; 84
    2222:	71 05       	cpc	r23, r1
    2224:	91 f0       	breq	.+36     	; 0x224a <check_fs+0x6c>
    2226:	c0 58       	subi	r28, 0x80	; 128
    2228:	df 4f       	sbci	r29, 0xFF	; 255
    222a:	48 81       	ld	r20, Y
    222c:	59 81       	ldd	r21, Y+1	; 0x01
    222e:	6a 81       	ldd	r22, Y+2	; 0x02
    2230:	7b 81       	ldd	r23, Y+3	; 0x03
    2232:	77 27       	eor	r23, r23
    2234:	81 e0       	ldi	r24, 0x01	; 1
    2236:	46 34       	cpi	r20, 0x46	; 70
    2238:	51 44       	sbci	r21, 0x41	; 65
    223a:	64 45       	sbci	r22, 0x54	; 84
    223c:	71 05       	cpc	r23, r1
    223e:	31 f4       	brne	.+12     	; 0x224c <check_fs+0x6e>
    2240:	04 c0       	rjmp	.+8      	; 0x224a <check_fs+0x6c>
    2242:	83 e0       	ldi	r24, 0x03	; 3
    2244:	03 c0       	rjmp	.+6      	; 0x224c <check_fs+0x6e>
    2246:	82 e0       	ldi	r24, 0x02	; 2
    2248:	01 c0       	rjmp	.+2      	; 0x224c <check_fs+0x6e>
    224a:	80 e0       	ldi	r24, 0x00	; 0
    224c:	df 91       	pop	r29
    224e:	cf 91       	pop	r28
    2250:	1f 91       	pop	r17
    2252:	0f 91       	pop	r16
    2254:	08 95       	ret

00002256 <find_volume>:
    2256:	2f 92       	push	r2
    2258:	3f 92       	push	r3
    225a:	4f 92       	push	r4
    225c:	5f 92       	push	r5
    225e:	6f 92       	push	r6
    2260:	7f 92       	push	r7
    2262:	8f 92       	push	r8
    2264:	9f 92       	push	r9
    2266:	af 92       	push	r10
    2268:	bf 92       	push	r11
    226a:	cf 92       	push	r12
    226c:	df 92       	push	r13
    226e:	ef 92       	push	r14
    2270:	ff 92       	push	r15
    2272:	0f 93       	push	r16
    2274:	1f 93       	push	r17
    2276:	cf 93       	push	r28
    2278:	df 93       	push	r29
    227a:	cd b7       	in	r28, 0x3d	; 61
    227c:	de b7       	in	r29, 0x3e	; 62
    227e:	6d 97       	sbiw	r28, 0x1d	; 29
    2280:	0f b6       	in	r0, 0x3f	; 63
    2282:	f8 94       	cli
    2284:	de bf       	out	0x3e, r29	; 62
    2286:	0f be       	out	0x3f, r0	; 63
    2288:	cd bf       	out	0x3d, r28	; 61
    228a:	6c 01       	movw	r12, r24
    228c:	cb 01       	movw	r24, r22
    228e:	b4 2e       	mov	r11, r20
    2290:	d6 01       	movw	r26, r12
    2292:	1d 92       	st	X+, r1
    2294:	1c 92       	st	X, r1
    2296:	c4 de       	rcall	.-632    	; 0x2020 <get_ldnumber>
    2298:	7c 01       	movw	r14, r24
    229a:	97 fd       	sbrc	r25, 7
    229c:	1d c2       	rjmp	.+1082   	; 0x26d8 <find_volume+0x482>
    229e:	fc 01       	movw	r30, r24
    22a0:	ee 0f       	add	r30, r30
    22a2:	ff 1f       	adc	r31, r31
    22a4:	ea 5c       	subi	r30, 0xCA	; 202
    22a6:	f9 4f       	sbci	r31, 0xF9	; 249
    22a8:	00 81       	ld	r16, Z
    22aa:	11 81       	ldd	r17, Z+1	; 0x01
    22ac:	01 15       	cp	r16, r1
    22ae:	11 05       	cpc	r17, r1
    22b0:	09 f4       	brne	.+2      	; 0x22b4 <find_volume+0x5e>
    22b2:	14 c2       	rjmp	.+1064   	; 0x26dc <find_volume+0x486>
    22b4:	f6 01       	movw	r30, r12
    22b6:	11 83       	std	Z+1, r17	; 0x01
    22b8:	00 83       	st	Z, r16
    22ba:	d8 01       	movw	r26, r16
    22bc:	8c 91       	ld	r24, X
    22be:	88 23       	and	r24, r24
    22c0:	59 f0       	breq	.+22     	; 0x22d8 <find_volume+0x82>
    22c2:	11 96       	adiw	r26, 0x01	; 1
    22c4:	8c 91       	ld	r24, X
    22c6:	5c dc       	rcall	.-1864   	; 0x1b80 <disk_status>
    22c8:	80 fd       	sbrc	r24, 0
    22ca:	06 c0       	rjmp	.+12     	; 0x22d8 <find_volume+0x82>
    22cc:	bb 20       	and	r11, r11
    22ce:	09 f4       	brne	.+2      	; 0x22d2 <find_volume+0x7c>
    22d0:	07 c2       	rjmp	.+1038   	; 0x26e0 <find_volume+0x48a>
    22d2:	82 fd       	sbrc	r24, 2
    22d4:	09 c2       	rjmp	.+1042   	; 0x26e8 <find_volume+0x492>
    22d6:	04 c2       	rjmp	.+1032   	; 0x26e0 <find_volume+0x48a>
    22d8:	f8 01       	movw	r30, r16
    22da:	10 82       	st	Z, r1
    22dc:	e1 82       	std	Z+1, r14	; 0x01
    22de:	8e 2d       	mov	r24, r14
    22e0:	56 dc       	rcall	.-1876   	; 0x1b8e <disk_initialize>
    22e2:	80 fd       	sbrc	r24, 0
    22e4:	ff c1       	rjmp	.+1022   	; 0x26e4 <find_volume+0x48e>
    22e6:	bb 20       	and	r11, r11
    22e8:	11 f0       	breq	.+4      	; 0x22ee <find_volume+0x98>
    22ea:	82 fd       	sbrc	r24, 2
    22ec:	fd c1       	rjmp	.+1018   	; 0x26e8 <find_volume+0x492>
    22ee:	40 e0       	ldi	r20, 0x00	; 0
    22f0:	50 e0       	ldi	r21, 0x00	; 0
    22f2:	ba 01       	movw	r22, r20
    22f4:	c8 01       	movw	r24, r16
    22f6:	73 df       	rcall	.-282    	; 0x21de <check_fs>
    22f8:	81 30       	cpi	r24, 0x01	; 1
    22fa:	09 f0       	breq	.+2      	; 0x22fe <find_volume+0xa8>
    22fc:	3f c0       	rjmp	.+126    	; 0x237c <find_volume+0x126>
    22fe:	fe 01       	movw	r30, r28
    2300:	31 96       	adiw	r30, 0x01	; 1
    2302:	20 e0       	ldi	r18, 0x00	; 0
    2304:	30 e0       	ldi	r19, 0x00	; 0
    2306:	c8 01       	movw	r24, r16
    2308:	82 0f       	add	r24, r18
    230a:	93 1f       	adc	r25, r19
    230c:	dc 01       	movw	r26, r24
    230e:	a0 51       	subi	r26, 0x10	; 16
    2310:	be 4f       	sbci	r27, 0xFE	; 254
    2312:	4c 91       	ld	r20, X
    2314:	44 23       	and	r20, r20
    2316:	39 f0       	breq	.+14     	; 0x2326 <find_volume+0xd0>
    2318:	14 96       	adiw	r26, 0x04	; 4
    231a:	8d 91       	ld	r24, X+
    231c:	9d 91       	ld	r25, X+
    231e:	0d 90       	ld	r0, X+
    2320:	bc 91       	ld	r27, X
    2322:	a0 2d       	mov	r26, r0
    2324:	03 c0       	rjmp	.+6      	; 0x232c <find_volume+0xd6>
    2326:	80 e0       	ldi	r24, 0x00	; 0
    2328:	90 e0       	ldi	r25, 0x00	; 0
    232a:	dc 01       	movw	r26, r24
    232c:	81 93       	st	Z+, r24
    232e:	91 93       	st	Z+, r25
    2330:	a1 93       	st	Z+, r26
    2332:	b1 93       	st	Z+, r27
    2334:	20 5f       	subi	r18, 0xF0	; 240
    2336:	3f 4f       	sbci	r19, 0xFF	; 255
    2338:	20 34       	cpi	r18, 0x40	; 64
    233a:	31 05       	cpc	r19, r1
    233c:	21 f7       	brne	.-56     	; 0x2306 <find_volume+0xb0>
    233e:	6e 01       	movw	r12, r28
    2340:	f1 e1       	ldi	r31, 0x11	; 17
    2342:	cf 0e       	add	r12, r31
    2344:	d1 1c       	adc	r13, r1
    2346:	9e 01       	movw	r18, r28
    2348:	2f 5f       	subi	r18, 0xFF	; 255
    234a:	3f 4f       	sbci	r19, 0xFF	; 255
    234c:	79 01       	movw	r14, r18
    234e:	d7 01       	movw	r26, r14
    2350:	4d 90       	ld	r4, X+
    2352:	5d 90       	ld	r5, X+
    2354:	6d 90       	ld	r6, X+
    2356:	7d 90       	ld	r7, X+
    2358:	7d 01       	movw	r14, r26
    235a:	41 14       	cp	r4, r1
    235c:	51 04       	cpc	r5, r1
    235e:	61 04       	cpc	r6, r1
    2360:	71 04       	cpc	r7, r1
    2362:	39 f0       	breq	.+14     	; 0x2372 <find_volume+0x11c>
    2364:	b3 01       	movw	r22, r6
    2366:	a2 01       	movw	r20, r4
    2368:	c8 01       	movw	r24, r16
    236a:	39 df       	rcall	.-398    	; 0x21de <check_fs>
    236c:	81 11       	cpse	r24, r1
    236e:	02 c0       	rjmp	.+4      	; 0x2374 <find_volume+0x11e>
    2370:	0f c0       	rjmp	.+30     	; 0x2390 <find_volume+0x13a>
    2372:	82 e0       	ldi	r24, 0x02	; 2
    2374:	ec 14       	cp	r14, r12
    2376:	fd 04       	cpc	r15, r13
    2378:	51 f7       	brne	.-44     	; 0x234e <find_volume+0xf8>
    237a:	03 c0       	rjmp	.+6      	; 0x2382 <find_volume+0x12c>
    237c:	41 2c       	mov	r4, r1
    237e:	51 2c       	mov	r5, r1
    2380:	32 01       	movw	r6, r4
    2382:	83 30       	cpi	r24, 0x03	; 3
    2384:	09 f4       	brne	.+2      	; 0x2388 <find_volume+0x132>
    2386:	b2 c1       	rjmp	.+868    	; 0x26ec <find_volume+0x496>
    2388:	88 23       	and	r24, r24
    238a:	11 f0       	breq	.+4      	; 0x2390 <find_volume+0x13a>
    238c:	8d e0       	ldi	r24, 0x0D	; 13
    238e:	af c1       	rjmp	.+862    	; 0x26ee <find_volume+0x498>
    2390:	f8 01       	movw	r30, r16
    2392:	81 ad       	ldd	r24, Z+57	; 0x39
    2394:	92 ad       	ldd	r25, Z+58	; 0x3a
    2396:	81 15       	cp	r24, r1
    2398:	92 40       	sbci	r25, 0x02	; 2
    239a:	c1 f7       	brne	.-16     	; 0x238c <find_volume+0x136>
    239c:	f8 01       	movw	r30, r16
    239e:	ec 5b       	subi	r30, 0xBC	; 188
    23a0:	ff 4f       	sbci	r31, 0xFF	; 255
    23a2:	c0 80       	ld	r12, Z
    23a4:	d1 80       	ldd	r13, Z+1	; 0x01
    23a6:	e1 2c       	mov	r14, r1
    23a8:	f1 2c       	mov	r15, r1
    23aa:	c1 14       	cp	r12, r1
    23ac:	d1 04       	cpc	r13, r1
    23ae:	e1 04       	cpc	r14, r1
    23b0:	f1 04       	cpc	r15, r1
    23b2:	29 f4       	brne	.+10     	; 0x23be <find_volume+0x168>
    23b4:	3e 96       	adiw	r30, 0x0e	; 14
    23b6:	c0 80       	ld	r12, Z
    23b8:	d1 80       	ldd	r13, Z+1	; 0x01
    23ba:	e2 80       	ldd	r14, Z+2	; 0x02
    23bc:	f3 80       	ldd	r15, Z+3	; 0x03
    23be:	d8 01       	movw	r26, r16
    23c0:	56 96       	adiw	r26, 0x16	; 22
    23c2:	cd 92       	st	X+, r12
    23c4:	dd 92       	st	X+, r13
    23c6:	ed 92       	st	X+, r14
    23c8:	fc 92       	st	X, r15
    23ca:	59 97       	sbiw	r26, 0x19	; 25
    23cc:	de 96       	adiw	r26, 0x3e	; 62
    23ce:	4c 91       	ld	r20, X
    23d0:	de 97       	sbiw	r26, 0x3e	; 62
    23d2:	13 96       	adiw	r26, 0x03	; 3
    23d4:	4c 93       	st	X, r20
    23d6:	13 97       	sbiw	r26, 0x03	; 3
    23d8:	8f ef       	ldi	r24, 0xFF	; 255
    23da:	84 0f       	add	r24, r20
    23dc:	82 30       	cpi	r24, 0x02	; 2
    23de:	b0 f6       	brcc	.-84     	; 0x238c <find_volume+0x136>
    23e0:	db 96       	adiw	r26, 0x3b	; 59
    23e2:	ec 91       	ld	r30, X
    23e4:	db 97       	sbiw	r26, 0x3b	; 59
    23e6:	e9 8b       	std	Y+17, r30	; 0x11
    23e8:	12 96       	adiw	r26, 0x02	; 2
    23ea:	ec 93       	st	X, r30
    23ec:	12 97       	sbiw	r26, 0x02	; 2
    23ee:	ee 23       	and	r30, r30
    23f0:	69 f2       	breq	.-102    	; 0x238c <find_volume+0x136>
    23f2:	2e 2f       	mov	r18, r30
    23f4:	30 e0       	ldi	r19, 0x00	; 0
    23f6:	c9 01       	movw	r24, r18
    23f8:	01 97       	sbiw	r24, 0x01	; 1
    23fa:	82 23       	and	r24, r18
    23fc:	93 23       	and	r25, r19
    23fe:	89 2b       	or	r24, r25
    2400:	29 f6       	brne	.-118    	; 0x238c <find_volume+0x136>
    2402:	f8 01       	movw	r30, r16
    2404:	ff 96       	adiw	r30, 0x3f	; 63
    2406:	20 80       	ld	r2, Z
    2408:	31 80       	ldd	r3, Z+1	; 0x01
    240a:	19 96       	adiw	r26, 0x09	; 9
    240c:	3c 92       	st	X, r3
    240e:	2e 92       	st	-X, r2
    2410:	18 97       	sbiw	r26, 0x08	; 8
    2412:	c1 01       	movw	r24, r2
    2414:	8f 70       	andi	r24, 0x0F	; 15
    2416:	99 27       	eor	r25, r25
    2418:	89 2b       	or	r24, r25
    241a:	09 f0       	breq	.+2      	; 0x241e <find_volume+0x1c8>
    241c:	b7 cf       	rjmp	.-146    	; 0x238c <find_volume+0x136>
    241e:	32 96       	adiw	r30, 0x02	; 2
    2420:	80 80       	ld	r8, Z
    2422:	91 80       	ldd	r9, Z+1	; 0x01
    2424:	a1 2c       	mov	r10, r1
    2426:	b1 2c       	mov	r11, r1
    2428:	81 14       	cp	r8, r1
    242a:	91 04       	cpc	r9, r1
    242c:	a1 04       	cpc	r10, r1
    242e:	b1 04       	cpc	r11, r1
    2430:	29 f4       	brne	.+10     	; 0x243c <find_volume+0x1e6>
    2432:	3d 96       	adiw	r30, 0x0d	; 13
    2434:	80 80       	ld	r8, Z
    2436:	91 80       	ldd	r9, Z+1	; 0x01
    2438:	a2 80       	ldd	r10, Z+2	; 0x02
    243a:	b3 80       	ldd	r11, Z+3	; 0x03
    243c:	d8 01       	movw	r26, r16
    243e:	dc 96       	adiw	r26, 0x3c	; 60
    2440:	ed 91       	ld	r30, X+
    2442:	fc 91       	ld	r31, X
    2444:	dd 97       	sbiw	r26, 0x3d	; 61
    2446:	30 97       	sbiw	r30, 0x00	; 0
    2448:	09 f4       	brne	.+2      	; 0x244c <find_volume+0x1f6>
    244a:	a0 cf       	rjmp	.-192    	; 0x238c <find_volume+0x136>
    244c:	a4 2f       	mov	r26, r20
    244e:	b0 e0       	ldi	r27, 0x00	; 0
    2450:	a7 01       	movw	r20, r14
    2452:	96 01       	movw	r18, r12
    2454:	0e 94 75 33 	call	0x66ea	; 0x66ea <__muluhisi3>
    2458:	6e 8b       	std	Y+22, r22	; 0x16
    245a:	7f 8b       	std	Y+23, r23	; 0x17
    245c:	88 8f       	std	Y+24, r24	; 0x18
    245e:	99 8f       	std	Y+25, r25	; 0x19
    2460:	9f 01       	movw	r18, r30
    2462:	40 e0       	ldi	r20, 0x00	; 0
    2464:	50 e0       	ldi	r21, 0x00	; 0
    2466:	2a 8f       	std	Y+26, r18	; 0x1a
    2468:	3b 8f       	std	Y+27, r19	; 0x1b
    246a:	4c 8f       	std	Y+28, r20	; 0x1c
    246c:	5d 8f       	std	Y+29, r21	; 0x1d
    246e:	c1 01       	movw	r24, r2
    2470:	64 e0       	ldi	r22, 0x04	; 4
    2472:	96 95       	lsr	r25
    2474:	87 95       	ror	r24
    2476:	6a 95       	dec	r22
    2478:	e1 f7       	brne	.-8      	; 0x2472 <find_volume+0x21c>
    247a:	28 0f       	add	r18, r24
    247c:	39 1f       	adc	r19, r25
    247e:	41 1d       	adc	r20, r1
    2480:	51 1d       	adc	r21, r1
    2482:	8e 89       	ldd	r24, Y+22	; 0x16
    2484:	9f 89       	ldd	r25, Y+23	; 0x17
    2486:	a8 8d       	ldd	r26, Y+24	; 0x18
    2488:	b9 8d       	ldd	r27, Y+25	; 0x19
    248a:	28 0f       	add	r18, r24
    248c:	39 1f       	adc	r19, r25
    248e:	4a 1f       	adc	r20, r26
    2490:	5b 1f       	adc	r21, r27
    2492:	2a 8b       	std	Y+18, r18	; 0x12
    2494:	3b 8b       	std	Y+19, r19	; 0x13
    2496:	4c 8b       	std	Y+20, r20	; 0x14
    2498:	5d 8b       	std	Y+21, r21	; 0x15
    249a:	82 16       	cp	r8, r18
    249c:	93 06       	cpc	r9, r19
    249e:	a4 06       	cpc	r10, r20
    24a0:	b5 06       	cpc	r11, r21
    24a2:	08 f4       	brcc	.+2      	; 0x24a6 <find_volume+0x250>
    24a4:	73 cf       	rjmp	.-282    	; 0x238c <find_volume+0x136>
    24a6:	c5 01       	movw	r24, r10
    24a8:	b4 01       	movw	r22, r8
    24aa:	62 1b       	sub	r22, r18
    24ac:	73 0b       	sbc	r23, r19
    24ae:	84 0b       	sbc	r24, r20
    24b0:	95 0b       	sbc	r25, r21
    24b2:	e9 89       	ldd	r30, Y+17	; 0x11
    24b4:	2e 2f       	mov	r18, r30
    24b6:	30 e0       	ldi	r19, 0x00	; 0
    24b8:	40 e0       	ldi	r20, 0x00	; 0
    24ba:	50 e0       	ldi	r21, 0x00	; 0
    24bc:	0e 94 53 33 	call	0x66a6	; 0x66a6 <__udivmodsi4>
    24c0:	21 15       	cp	r18, r1
    24c2:	31 05       	cpc	r19, r1
    24c4:	41 05       	cpc	r20, r1
    24c6:	51 05       	cpc	r21, r1
    24c8:	09 f4       	brne	.+2      	; 0x24cc <find_volume+0x276>
    24ca:	60 cf       	rjmp	.-320    	; 0x238c <find_volume+0x136>
    24cc:	26 3f       	cpi	r18, 0xF6	; 246
    24ce:	ff e0       	ldi	r31, 0x0F	; 15
    24d0:	3f 07       	cpc	r19, r31
    24d2:	41 05       	cpc	r20, r1
    24d4:	51 05       	cpc	r21, r1
    24d6:	48 f0       	brcs	.+18     	; 0x24ea <find_volume+0x294>
    24d8:	26 3f       	cpi	r18, 0xF6	; 246
    24da:	8f ef       	ldi	r24, 0xFF	; 255
    24dc:	38 07       	cpc	r19, r24
    24de:	41 05       	cpc	r20, r1
    24e0:	51 05       	cpc	r21, r1
    24e2:	30 f4       	brcc	.+12     	; 0x24f0 <find_volume+0x29a>
    24e4:	92 e0       	ldi	r25, 0x02	; 2
    24e6:	99 8b       	std	Y+17, r25	; 0x11
    24e8:	05 c0       	rjmp	.+10     	; 0x24f4 <find_volume+0x29e>
    24ea:	a1 e0       	ldi	r26, 0x01	; 1
    24ec:	a9 8b       	std	Y+17, r26	; 0x11
    24ee:	02 c0       	rjmp	.+4      	; 0x24f4 <find_volume+0x29e>
    24f0:	b3 e0       	ldi	r27, 0x03	; 3
    24f2:	b9 8b       	std	Y+17, r27	; 0x11
    24f4:	49 01       	movw	r8, r18
    24f6:	5a 01       	movw	r10, r20
    24f8:	e2 e0       	ldi	r30, 0x02	; 2
    24fa:	8e 0e       	add	r8, r30
    24fc:	91 1c       	adc	r9, r1
    24fe:	a1 1c       	adc	r10, r1
    2500:	b1 1c       	adc	r11, r1
    2502:	d8 01       	movw	r26, r16
    2504:	52 96       	adiw	r26, 0x12	; 18
    2506:	8d 92       	st	X+, r8
    2508:	9d 92       	st	X+, r9
    250a:	ad 92       	st	X+, r10
    250c:	bc 92       	st	X, r11
    250e:	55 97       	sbiw	r26, 0x15	; 21
    2510:	f8 01       	movw	r30, r16
    2512:	42 8e       	std	Z+26, r4	; 0x1a
    2514:	53 8e       	std	Z+27, r5	; 0x1b
    2516:	64 8e       	std	Z+28, r6	; 0x1c
    2518:	75 8e       	std	Z+29, r7	; 0x1d
    251a:	8a 8d       	ldd	r24, Y+26	; 0x1a
    251c:	9b 8d       	ldd	r25, Y+27	; 0x1b
    251e:	ac 8d       	ldd	r26, Y+28	; 0x1c
    2520:	bd 8d       	ldd	r27, Y+29	; 0x1d
    2522:	84 0d       	add	r24, r4
    2524:	95 1d       	adc	r25, r5
    2526:	a6 1d       	adc	r26, r6
    2528:	b7 1d       	adc	r27, r7
    252a:	86 8f       	std	Z+30, r24	; 0x1e
    252c:	97 8f       	std	Z+31, r25	; 0x1f
    252e:	a0 a3       	std	Z+32, r26	; 0x20
    2530:	b1 a3       	std	Z+33, r27	; 0x21
    2532:	4a 89       	ldd	r20, Y+18	; 0x12
    2534:	5b 89       	ldd	r21, Y+19	; 0x13
    2536:	6c 89       	ldd	r22, Y+20	; 0x14
    2538:	7d 89       	ldd	r23, Y+21	; 0x15
    253a:	44 0d       	add	r20, r4
    253c:	55 1d       	adc	r21, r5
    253e:	66 1d       	adc	r22, r6
    2540:	77 1d       	adc	r23, r7
    2542:	46 a3       	std	Z+38, r20	; 0x26
    2544:	57 a3       	std	Z+39, r21	; 0x27
    2546:	60 a7       	std	Z+40, r22	; 0x28
    2548:	71 a7       	std	Z+41, r23	; 0x29
    254a:	f9 89       	ldd	r31, Y+17	; 0x11
    254c:	f3 30       	cpi	r31, 0x03	; 3
    254e:	c9 f4       	brne	.+50     	; 0x2582 <find_volume+0x32c>
    2550:	23 28       	or	r2, r3
    2552:	09 f0       	breq	.+2      	; 0x2556 <find_volume+0x300>
    2554:	1b cf       	rjmp	.-458    	; 0x238c <find_volume+0x136>
    2556:	f8 01       	movw	r30, r16
    2558:	e6 5a       	subi	r30, 0xA6	; 166
    255a:	ff 4f       	sbci	r31, 0xFF	; 255
    255c:	80 81       	ld	r24, Z
    255e:	91 81       	ldd	r25, Z+1	; 0x01
    2560:	a2 81       	ldd	r26, Z+2	; 0x02
    2562:	b3 81       	ldd	r27, Z+3	; 0x03
    2564:	f8 01       	movw	r30, r16
    2566:	82 a3       	std	Z+34, r24	; 0x22
    2568:	93 a3       	std	Z+35, r25	; 0x23
    256a:	a4 a3       	std	Z+36, r26	; 0x24
    256c:	b5 a3       	std	Z+37, r27	; 0x25
    256e:	c5 01       	movw	r24, r10
    2570:	b4 01       	movw	r22, r8
    2572:	52 e0       	ldi	r21, 0x02	; 2
    2574:	66 0f       	add	r22, r22
    2576:	77 1f       	adc	r23, r23
    2578:	88 1f       	adc	r24, r24
    257a:	99 1f       	adc	r25, r25
    257c:	5a 95       	dec	r21
    257e:	d1 f7       	brne	.-12     	; 0x2574 <find_volume+0x31e>
    2580:	2d c0       	rjmp	.+90     	; 0x25dc <find_volume+0x386>
    2582:	23 28       	or	r2, r3
    2584:	09 f4       	brne	.+2      	; 0x2588 <find_volume+0x332>
    2586:	02 cf       	rjmp	.-508    	; 0x238c <find_volume+0x136>
    2588:	2e 89       	ldd	r18, Y+22	; 0x16
    258a:	3f 89       	ldd	r19, Y+23	; 0x17
    258c:	48 8d       	ldd	r20, Y+24	; 0x18
    258e:	59 8d       	ldd	r21, Y+25	; 0x19
    2590:	82 0f       	add	r24, r18
    2592:	93 1f       	adc	r25, r19
    2594:	a4 1f       	adc	r26, r20
    2596:	b5 1f       	adc	r27, r21
    2598:	f8 01       	movw	r30, r16
    259a:	82 a3       	std	Z+34, r24	; 0x22
    259c:	93 a3       	std	Z+35, r25	; 0x23
    259e:	a4 a3       	std	Z+36, r26	; 0x24
    25a0:	b5 a3       	std	Z+37, r27	; 0x25
    25a2:	f9 89       	ldd	r31, Y+17	; 0x11
    25a4:	f2 30       	cpi	r31, 0x02	; 2
    25a6:	39 f4       	brne	.+14     	; 0x25b6 <find_volume+0x360>
    25a8:	c5 01       	movw	r24, r10
    25aa:	b4 01       	movw	r22, r8
    25ac:	66 0f       	add	r22, r22
    25ae:	77 1f       	adc	r23, r23
    25b0:	88 1f       	adc	r24, r24
    25b2:	99 1f       	adc	r25, r25
    25b4:	13 c0       	rjmp	.+38     	; 0x25dc <find_volume+0x386>
    25b6:	a3 e0       	ldi	r26, 0x03	; 3
    25b8:	b0 e0       	ldi	r27, 0x00	; 0
    25ba:	a5 01       	movw	r20, r10
    25bc:	94 01       	movw	r18, r8
    25be:	0e 94 75 33 	call	0x66ea	; 0x66ea <__muluhisi3>
    25c2:	96 95       	lsr	r25
    25c4:	87 95       	ror	r24
    25c6:	77 95       	ror	r23
    25c8:	67 95       	ror	r22
    25ca:	21 e0       	ldi	r18, 0x01	; 1
    25cc:	82 22       	and	r8, r18
    25ce:	99 24       	eor	r9, r9
    25d0:	aa 24       	eor	r10, r10
    25d2:	bb 24       	eor	r11, r11
    25d4:	68 0d       	add	r22, r8
    25d6:	79 1d       	adc	r23, r9
    25d8:	8a 1d       	adc	r24, r10
    25da:	9b 1d       	adc	r25, r11
    25dc:	dc 01       	movw	r26, r24
    25de:	cb 01       	movw	r24, r22
    25e0:	81 50       	subi	r24, 0x01	; 1
    25e2:	9e 4f       	sbci	r25, 0xFE	; 254
    25e4:	af 4f       	sbci	r26, 0xFF	; 255
    25e6:	bf 4f       	sbci	r27, 0xFF	; 255
    25e8:	29 e0       	ldi	r18, 0x09	; 9
    25ea:	b6 95       	lsr	r27
    25ec:	a7 95       	ror	r26
    25ee:	97 95       	ror	r25
    25f0:	87 95       	ror	r24
    25f2:	2a 95       	dec	r18
    25f4:	d1 f7       	brne	.-12     	; 0x25ea <find_volume+0x394>
    25f6:	c8 16       	cp	r12, r24
    25f8:	d9 06       	cpc	r13, r25
    25fa:	ea 06       	cpc	r14, r26
    25fc:	fb 06       	cpc	r15, r27
    25fe:	08 f4       	brcc	.+2      	; 0x2602 <find_volume+0x3ac>
    2600:	c5 ce       	rjmp	.-630    	; 0x238c <find_volume+0x136>
    2602:	8f ef       	ldi	r24, 0xFF	; 255
    2604:	9f ef       	ldi	r25, 0xFF	; 255
    2606:	dc 01       	movw	r26, r24
    2608:	f8 01       	movw	r30, r16
    260a:	86 87       	std	Z+14, r24	; 0x0e
    260c:	97 87       	std	Z+15, r25	; 0x0f
    260e:	a0 8b       	std	Z+16, r26	; 0x10
    2610:	b1 8b       	std	Z+17, r27	; 0x11
    2612:	82 87       	std	Z+10, r24	; 0x0a
    2614:	93 87       	std	Z+11, r25	; 0x0b
    2616:	a4 87       	std	Z+12, r26	; 0x0c
    2618:	b5 87       	std	Z+13, r27	; 0x0d
    261a:	80 e8       	ldi	r24, 0x80	; 128
    261c:	85 83       	std	Z+5, r24	; 0x05
    261e:	f9 89       	ldd	r31, Y+17	; 0x11
    2620:	f3 30       	cpi	r31, 0x03	; 3
    2622:	09 f0       	breq	.+2      	; 0x2626 <find_volume+0x3d0>
    2624:	48 c0       	rjmp	.+144    	; 0x26b6 <find_volume+0x460>
    2626:	f8 01       	movw	r30, r16
    2628:	e2 5a       	subi	r30, 0xA2	; 162
    262a:	ff 4f       	sbci	r31, 0xFF	; 255
    262c:	80 81       	ld	r24, Z
    262e:	91 81       	ldd	r25, Z+1	; 0x01
    2630:	01 97       	sbiw	r24, 0x01	; 1
    2632:	09 f0       	breq	.+2      	; 0x2636 <find_volume+0x3e0>
    2634:	40 c0       	rjmp	.+128    	; 0x26b6 <find_volume+0x460>
    2636:	b3 01       	movw	r22, r6
    2638:	a2 01       	movw	r20, r4
    263a:	4f 5f       	subi	r20, 0xFF	; 255
    263c:	5f 4f       	sbci	r21, 0xFF	; 255
    263e:	6f 4f       	sbci	r22, 0xFF	; 255
    2640:	7f 4f       	sbci	r23, 0xFF	; 255
    2642:	c8 01       	movw	r24, r16
    2644:	90 dd       	rcall	.-1248   	; 0x2166 <move_window>
    2646:	81 11       	cpse	r24, r1
    2648:	36 c0       	rjmp	.+108    	; 0x26b6 <find_volume+0x460>
    264a:	d8 01       	movw	r26, r16
    264c:	15 96       	adiw	r26, 0x05	; 5
    264e:	1c 92       	st	X, r1
    2650:	f8 01       	movw	r30, r16
    2652:	e4 5d       	subi	r30, 0xD4	; 212
    2654:	fd 4f       	sbci	r31, 0xFD	; 253
    2656:	80 81       	ld	r24, Z
    2658:	91 81       	ldd	r25, Z+1	; 0x01
    265a:	85 35       	cpi	r24, 0x55	; 85
    265c:	9a 4a       	sbci	r25, 0xAA	; 170
    265e:	59 f5       	brne	.+86     	; 0x26b6 <find_volume+0x460>
    2660:	f8 01       	movw	r30, r16
    2662:	86 a5       	ldd	r24, Z+46	; 0x2e
    2664:	97 a5       	ldd	r25, Z+47	; 0x2f
    2666:	a0 a9       	ldd	r26, Z+48	; 0x30
    2668:	b1 a9       	ldd	r27, Z+49	; 0x31
    266a:	82 35       	cpi	r24, 0x52	; 82
    266c:	92 45       	sbci	r25, 0x52	; 82
    266e:	a1 46       	sbci	r26, 0x61	; 97
    2670:	b1 44       	sbci	r27, 0x41	; 65
    2672:	09 f5       	brne	.+66     	; 0x26b6 <find_volume+0x460>
    2674:	f8 01       	movw	r30, r16
    2676:	ee 5e       	subi	r30, 0xEE	; 238
    2678:	fd 4f       	sbci	r31, 0xFD	; 253
    267a:	80 81       	ld	r24, Z
    267c:	91 81       	ldd	r25, Z+1	; 0x01
    267e:	a2 81       	ldd	r26, Z+2	; 0x02
    2680:	b3 81       	ldd	r27, Z+3	; 0x03
    2682:	82 37       	cpi	r24, 0x72	; 114
    2684:	92 47       	sbci	r25, 0x72	; 114
    2686:	a1 44       	sbci	r26, 0x41	; 65
    2688:	b1 46       	sbci	r27, 0x61	; 97
    268a:	a9 f4       	brne	.+42     	; 0x26b6 <find_volume+0x460>
    268c:	34 96       	adiw	r30, 0x04	; 4
    268e:	80 81       	ld	r24, Z
    2690:	91 81       	ldd	r25, Z+1	; 0x01
    2692:	a2 81       	ldd	r26, Z+2	; 0x02
    2694:	b3 81       	ldd	r27, Z+3	; 0x03
    2696:	f8 01       	movw	r30, r16
    2698:	86 87       	std	Z+14, r24	; 0x0e
    269a:	97 87       	std	Z+15, r25	; 0x0f
    269c:	a0 8b       	std	Z+16, r26	; 0x10
    269e:	b1 8b       	std	Z+17, r27	; 0x11
    26a0:	e6 5e       	subi	r30, 0xE6	; 230
    26a2:	fd 4f       	sbci	r31, 0xFD	; 253
    26a4:	80 81       	ld	r24, Z
    26a6:	91 81       	ldd	r25, Z+1	; 0x01
    26a8:	a2 81       	ldd	r26, Z+2	; 0x02
    26aa:	b3 81       	ldd	r27, Z+3	; 0x03
    26ac:	f8 01       	movw	r30, r16
    26ae:	82 87       	std	Z+10, r24	; 0x0a
    26b0:	93 87       	std	Z+11, r25	; 0x0b
    26b2:	a4 87       	std	Z+12, r26	; 0x0c
    26b4:	b5 87       	std	Z+13, r27	; 0x0d
    26b6:	e9 89       	ldd	r30, Y+17	; 0x11
    26b8:	d8 01       	movw	r26, r16
    26ba:	ec 93       	st	X, r30
    26bc:	80 91 34 06 	lds	r24, 0x0634
    26c0:	90 91 35 06 	lds	r25, 0x0635
    26c4:	01 96       	adiw	r24, 0x01	; 1
    26c6:	90 93 35 06 	sts	0x0635, r25
    26ca:	80 93 34 06 	sts	0x0634, r24
    26ce:	17 96       	adiw	r26, 0x07	; 7
    26d0:	9c 93       	st	X, r25
    26d2:	8e 93       	st	-X, r24
    26d4:	16 97       	sbiw	r26, 0x06	; 6
    26d6:	04 c0       	rjmp	.+8      	; 0x26e0 <find_volume+0x48a>
    26d8:	8b e0       	ldi	r24, 0x0B	; 11
    26da:	09 c0       	rjmp	.+18     	; 0x26ee <find_volume+0x498>
    26dc:	8c e0       	ldi	r24, 0x0C	; 12
    26de:	07 c0       	rjmp	.+14     	; 0x26ee <find_volume+0x498>
    26e0:	80 e0       	ldi	r24, 0x00	; 0
    26e2:	05 c0       	rjmp	.+10     	; 0x26ee <find_volume+0x498>
    26e4:	83 e0       	ldi	r24, 0x03	; 3
    26e6:	03 c0       	rjmp	.+6      	; 0x26ee <find_volume+0x498>
    26e8:	8a e0       	ldi	r24, 0x0A	; 10
    26ea:	01 c0       	rjmp	.+2      	; 0x26ee <find_volume+0x498>
    26ec:	81 e0       	ldi	r24, 0x01	; 1
    26ee:	6d 96       	adiw	r28, 0x1d	; 29
    26f0:	0f b6       	in	r0, 0x3f	; 63
    26f2:	f8 94       	cli
    26f4:	de bf       	out	0x3e, r29	; 62
    26f6:	0f be       	out	0x3f, r0	; 63
    26f8:	cd bf       	out	0x3d, r28	; 61
    26fa:	df 91       	pop	r29
    26fc:	cf 91       	pop	r28
    26fe:	1f 91       	pop	r17
    2700:	0f 91       	pop	r16
    2702:	ff 90       	pop	r15
    2704:	ef 90       	pop	r14
    2706:	df 90       	pop	r13
    2708:	cf 90       	pop	r12
    270a:	bf 90       	pop	r11
    270c:	af 90       	pop	r10
    270e:	9f 90       	pop	r9
    2710:	8f 90       	pop	r8
    2712:	7f 90       	pop	r7
    2714:	6f 90       	pop	r6
    2716:	5f 90       	pop	r5
    2718:	4f 90       	pop	r4
    271a:	3f 90       	pop	r3
    271c:	2f 90       	pop	r2
    271e:	08 95       	ret

00002720 <sync_fs>:
    2720:	0f 93       	push	r16
    2722:	1f 93       	push	r17
    2724:	cf 93       	push	r28
    2726:	df 93       	push	r29
    2728:	ec 01       	movw	r28, r24
    272a:	b7 dc       	rcall	.-1682   	; 0x209a <sync_window>
    272c:	98 2f       	mov	r25, r24
    272e:	81 11       	cpse	r24, r1
    2730:	58 c0       	rjmp	.+176    	; 0x27e2 <sync_fs+0xc2>
    2732:	88 81       	ld	r24, Y
    2734:	83 30       	cpi	r24, 0x03	; 3
    2736:	09 f0       	breq	.+2      	; 0x273a <sync_fs+0x1a>
    2738:	4b c0       	rjmp	.+150    	; 0x27d0 <sync_fs+0xb0>
    273a:	8d 81       	ldd	r24, Y+5	; 0x05
    273c:	81 30       	cpi	r24, 0x01	; 1
    273e:	09 f0       	breq	.+2      	; 0x2742 <sync_fs+0x22>
    2740:	47 c0       	rjmp	.+142    	; 0x27d0 <sync_fs+0xb0>
    2742:	ce 01       	movw	r24, r28
    2744:	8e 96       	adiw	r24, 0x2e	; 46
    2746:	fc 01       	movw	r30, r24
    2748:	9e 01       	movw	r18, r28
    274a:	22 5d       	subi	r18, 0xD2	; 210
    274c:	3d 4f       	sbci	r19, 0xFD	; 253
    274e:	e2 17       	cp	r30, r18
    2750:	f3 07       	cpc	r31, r19
    2752:	11 f0       	breq	.+4      	; 0x2758 <sync_fs+0x38>
    2754:	11 92       	st	Z+, r1
    2756:	fb cf       	rjmp	.-10     	; 0x274e <sync_fs+0x2e>
    2758:	25 e5       	ldi	r18, 0x55	; 85
    275a:	3a ea       	ldi	r19, 0xAA	; 170
    275c:	fe 01       	movw	r30, r28
    275e:	e4 5d       	subi	r30, 0xD4	; 212
    2760:	fd 4f       	sbci	r31, 0xFD	; 253
    2762:	31 83       	std	Z+1, r19	; 0x01
    2764:	20 83       	st	Z, r18
    2766:	42 e5       	ldi	r20, 0x52	; 82
    2768:	52 e5       	ldi	r21, 0x52	; 82
    276a:	61 e6       	ldi	r22, 0x61	; 97
    276c:	71 e4       	ldi	r23, 0x41	; 65
    276e:	4e a7       	std	Y+46, r20	; 0x2e
    2770:	5f a7       	std	Y+47, r21	; 0x2f
    2772:	68 ab       	std	Y+48, r22	; 0x30
    2774:	79 ab       	std	Y+49, r23	; 0x31
    2776:	42 e7       	ldi	r20, 0x72	; 114
    2778:	52 e7       	ldi	r21, 0x72	; 114
    277a:	61 e4       	ldi	r22, 0x41	; 65
    277c:	71 e6       	ldi	r23, 0x61	; 97
    277e:	7a 97       	sbiw	r30, 0x1a	; 26
    2780:	40 83       	st	Z, r20
    2782:	51 83       	std	Z+1, r21	; 0x01
    2784:	62 83       	std	Z+2, r22	; 0x02
    2786:	73 83       	std	Z+3, r23	; 0x03
    2788:	4e 85       	ldd	r20, Y+14	; 0x0e
    278a:	5f 85       	ldd	r21, Y+15	; 0x0f
    278c:	68 89       	ldd	r22, Y+16	; 0x10
    278e:	79 89       	ldd	r23, Y+17	; 0x11
    2790:	34 96       	adiw	r30, 0x04	; 4
    2792:	40 83       	st	Z, r20
    2794:	51 83       	std	Z+1, r21	; 0x01
    2796:	62 83       	std	Z+2, r22	; 0x02
    2798:	73 83       	std	Z+3, r23	; 0x03
    279a:	4a 85       	ldd	r20, Y+10	; 0x0a
    279c:	5b 85       	ldd	r21, Y+11	; 0x0b
    279e:	6c 85       	ldd	r22, Y+12	; 0x0c
    27a0:	7d 85       	ldd	r23, Y+13	; 0x0d
    27a2:	34 96       	adiw	r30, 0x04	; 4
    27a4:	40 83       	st	Z, r20
    27a6:	51 83       	std	Z+1, r21	; 0x01
    27a8:	62 83       	std	Z+2, r22	; 0x02
    27aa:	73 83       	std	Z+3, r23	; 0x03
    27ac:	2a 8d       	ldd	r18, Y+26	; 0x1a
    27ae:	3b 8d       	ldd	r19, Y+27	; 0x1b
    27b0:	4c 8d       	ldd	r20, Y+28	; 0x1c
    27b2:	5d 8d       	ldd	r21, Y+29	; 0x1d
    27b4:	2f 5f       	subi	r18, 0xFF	; 255
    27b6:	3f 4f       	sbci	r19, 0xFF	; 255
    27b8:	4f 4f       	sbci	r20, 0xFF	; 255
    27ba:	5f 4f       	sbci	r21, 0xFF	; 255
    27bc:	2a a7       	std	Y+42, r18	; 0x2a
    27be:	3b a7       	std	Y+43, r19	; 0x2b
    27c0:	4c a7       	std	Y+44, r20	; 0x2c
    27c2:	5d a7       	std	Y+45, r21	; 0x2d
    27c4:	01 e0       	ldi	r16, 0x01	; 1
    27c6:	10 e0       	ldi	r17, 0x00	; 0
    27c8:	bc 01       	movw	r22, r24
    27ca:	89 81       	ldd	r24, Y+1	; 0x01
    27cc:	c2 da       	rcall	.-2684   	; 0x1d52 <disk_write>
    27ce:	1d 82       	std	Y+5, r1	; 0x05
    27d0:	40 e0       	ldi	r20, 0x00	; 0
    27d2:	50 e0       	ldi	r21, 0x00	; 0
    27d4:	60 e0       	ldi	r22, 0x00	; 0
    27d6:	89 81       	ldd	r24, Y+1	; 0x01
    27d8:	1c db       	rcall	.-2504   	; 0x1e12 <disk_ioctl>
    27da:	91 e0       	ldi	r25, 0x01	; 1
    27dc:	81 11       	cpse	r24, r1
    27de:	01 c0       	rjmp	.+2      	; 0x27e2 <sync_fs+0xc2>
    27e0:	90 e0       	ldi	r25, 0x00	; 0
    27e2:	89 2f       	mov	r24, r25
    27e4:	df 91       	pop	r29
    27e6:	cf 91       	pop	r28
    27e8:	1f 91       	pop	r17
    27ea:	0f 91       	pop	r16
    27ec:	08 95       	ret

000027ee <clust2sect>:
    27ee:	0f 93       	push	r16
    27f0:	1f 93       	push	r17
    27f2:	fc 01       	movw	r30, r24
    27f4:	42 50       	subi	r20, 0x02	; 2
    27f6:	51 09       	sbc	r21, r1
    27f8:	61 09       	sbc	r22, r1
    27fa:	71 09       	sbc	r23, r1
    27fc:	02 89       	ldd	r16, Z+18	; 0x12
    27fe:	13 89       	ldd	r17, Z+19	; 0x13
    2800:	24 89       	ldd	r18, Z+20	; 0x14
    2802:	35 89       	ldd	r19, Z+21	; 0x15
    2804:	02 50       	subi	r16, 0x02	; 2
    2806:	11 09       	sbc	r17, r1
    2808:	21 09       	sbc	r18, r1
    280a:	31 09       	sbc	r19, r1
    280c:	40 17       	cp	r20, r16
    280e:	51 07       	cpc	r21, r17
    2810:	62 07       	cpc	r22, r18
    2812:	73 07       	cpc	r23, r19
    2814:	78 f4       	brcc	.+30     	; 0x2834 <clust2sect+0x46>
    2816:	a2 81       	ldd	r26, Z+2	; 0x02
    2818:	b0 e0       	ldi	r27, 0x00	; 0
    281a:	9a 01       	movw	r18, r20
    281c:	ab 01       	movw	r20, r22
    281e:	0e 94 75 33 	call	0x66ea	; 0x66ea <__muluhisi3>
    2822:	06 a1       	ldd	r16, Z+38	; 0x26
    2824:	17 a1       	ldd	r17, Z+39	; 0x27
    2826:	20 a5       	ldd	r18, Z+40	; 0x28
    2828:	31 a5       	ldd	r19, Z+41	; 0x29
    282a:	60 0f       	add	r22, r16
    282c:	71 1f       	adc	r23, r17
    282e:	82 1f       	adc	r24, r18
    2830:	93 1f       	adc	r25, r19
    2832:	03 c0       	rjmp	.+6      	; 0x283a <clust2sect+0x4c>
    2834:	60 e0       	ldi	r22, 0x00	; 0
    2836:	70 e0       	ldi	r23, 0x00	; 0
    2838:	cb 01       	movw	r24, r22
    283a:	1f 91       	pop	r17
    283c:	0f 91       	pop	r16
    283e:	08 95       	ret

00002840 <get_fat>:
    2840:	af 92       	push	r10
    2842:	bf 92       	push	r11
    2844:	cf 92       	push	r12
    2846:	df 92       	push	r13
    2848:	ef 92       	push	r14
    284a:	ff 92       	push	r15
    284c:	0f 93       	push	r16
    284e:	1f 93       	push	r17
    2850:	cf 93       	push	r28
    2852:	df 93       	push	r29
    2854:	ec 01       	movw	r28, r24
    2856:	6a 01       	movw	r12, r20
    2858:	7b 01       	movw	r14, r22
    285a:	42 30       	cpi	r20, 0x02	; 2
    285c:	51 05       	cpc	r21, r1
    285e:	61 05       	cpc	r22, r1
    2860:	71 05       	cpc	r23, r1
    2862:	08 f4       	brcc	.+2      	; 0x2866 <get_fat+0x26>
    2864:	a2 c0       	rjmp	.+324    	; 0x29aa <get_fat+0x16a>
    2866:	8a 89       	ldd	r24, Y+18	; 0x12
    2868:	9b 89       	ldd	r25, Y+19	; 0x13
    286a:	ac 89       	ldd	r26, Y+20	; 0x14
    286c:	bd 89       	ldd	r27, Y+21	; 0x15
    286e:	48 17       	cp	r20, r24
    2870:	59 07       	cpc	r21, r25
    2872:	6a 07       	cpc	r22, r26
    2874:	7b 07       	cpc	r23, r27
    2876:	08 f0       	brcs	.+2      	; 0x287a <get_fat+0x3a>
    2878:	98 c0       	rjmp	.+304    	; 0x29aa <get_fat+0x16a>
    287a:	88 81       	ld	r24, Y
    287c:	82 30       	cpi	r24, 0x02	; 2
    287e:	09 f4       	brne	.+2      	; 0x2882 <get_fat+0x42>
    2880:	49 c0       	rjmp	.+146    	; 0x2914 <get_fat+0xd4>
    2882:	83 30       	cpi	r24, 0x03	; 3
    2884:	09 f4       	brne	.+2      	; 0x2888 <get_fat+0x48>
    2886:	68 c0       	rjmp	.+208    	; 0x2958 <get_fat+0x118>
    2888:	81 30       	cpi	r24, 0x01	; 1
    288a:	09 f0       	breq	.+2      	; 0x288e <get_fat+0x4e>
    288c:	8e c0       	rjmp	.+284    	; 0x29aa <get_fat+0x16a>
    288e:	5a 01       	movw	r10, r20
    2890:	b6 94       	lsr	r11
    2892:	a7 94       	ror	r10
    2894:	a4 0e       	add	r10, r20
    2896:	b5 1e       	adc	r11, r21
    2898:	c5 01       	movw	r24, r10
    289a:	89 2f       	mov	r24, r25
    289c:	99 27       	eor	r25, r25
    289e:	86 95       	lsr	r24
    28a0:	4e 8d       	ldd	r20, Y+30	; 0x1e
    28a2:	5f 8d       	ldd	r21, Y+31	; 0x1f
    28a4:	68 a1       	ldd	r22, Y+32	; 0x20
    28a6:	79 a1       	ldd	r23, Y+33	; 0x21
    28a8:	48 0f       	add	r20, r24
    28aa:	59 1f       	adc	r21, r25
    28ac:	61 1d       	adc	r22, r1
    28ae:	71 1d       	adc	r23, r1
    28b0:	ce 01       	movw	r24, r28
    28b2:	59 dc       	rcall	.-1870   	; 0x2166 <move_window>
    28b4:	88 23       	and	r24, r24
    28b6:	21 f0       	breq	.+8      	; 0x28c0 <get_fat+0x80>
    28b8:	6f ef       	ldi	r22, 0xFF	; 255
    28ba:	7f ef       	ldi	r23, 0xFF	; 255
    28bc:	cb 01       	movw	r24, r22
    28be:	79 c0       	rjmp	.+242    	; 0x29b2 <get_fat+0x172>
    28c0:	85 01       	movw	r16, r10
    28c2:	0f 5f       	subi	r16, 0xFF	; 255
    28c4:	1f 4f       	sbci	r17, 0xFF	; 255
    28c6:	f5 01       	movw	r30, r10
    28c8:	f1 70       	andi	r31, 0x01	; 1
    28ca:	ec 0f       	add	r30, r28
    28cc:	fd 1f       	adc	r31, r29
    28ce:	b6 a4       	ldd	r11, Z+46	; 0x2e
    28d0:	c8 01       	movw	r24, r16
    28d2:	89 2f       	mov	r24, r25
    28d4:	99 27       	eor	r25, r25
    28d6:	86 95       	lsr	r24
    28d8:	4e 8d       	ldd	r20, Y+30	; 0x1e
    28da:	5f 8d       	ldd	r21, Y+31	; 0x1f
    28dc:	68 a1       	ldd	r22, Y+32	; 0x20
    28de:	79 a1       	ldd	r23, Y+33	; 0x21
    28e0:	48 0f       	add	r20, r24
    28e2:	59 1f       	adc	r21, r25
    28e4:	61 1d       	adc	r22, r1
    28e6:	71 1d       	adc	r23, r1
    28e8:	ce 01       	movw	r24, r28
    28ea:	3d dc       	rcall	.-1926   	; 0x2166 <move_window>
    28ec:	81 11       	cpse	r24, r1
    28ee:	e4 cf       	rjmp	.-56     	; 0x28b8 <get_fat+0x78>
    28f0:	f8 01       	movw	r30, r16
    28f2:	f1 70       	andi	r31, 0x01	; 1
    28f4:	ec 0f       	add	r30, r28
    28f6:	fd 1f       	adc	r31, r29
    28f8:	86 a5       	ldd	r24, Z+46	; 0x2e
    28fa:	6b 2d       	mov	r22, r11
    28fc:	70 e0       	ldi	r23, 0x00	; 0
    28fe:	78 2b       	or	r23, r24
    2900:	c0 fe       	sbrs	r12, 0
    2902:	06 c0       	rjmp	.+12     	; 0x2910 <get_fat+0xd0>
    2904:	c4 e0       	ldi	r28, 0x04	; 4
    2906:	76 95       	lsr	r23
    2908:	67 95       	ror	r22
    290a:	ca 95       	dec	r28
    290c:	e1 f7       	brne	.-8      	; 0x2906 <get_fat+0xc6>
    290e:	21 c0       	rjmp	.+66     	; 0x2952 <get_fat+0x112>
    2910:	7f 70       	andi	r23, 0x0F	; 15
    2912:	1f c0       	rjmp	.+62     	; 0x2952 <get_fat+0x112>
    2914:	45 2f       	mov	r20, r21
    2916:	56 2f       	mov	r21, r22
    2918:	67 2f       	mov	r22, r23
    291a:	77 27       	eor	r23, r23
    291c:	8e 8d       	ldd	r24, Y+30	; 0x1e
    291e:	9f 8d       	ldd	r25, Y+31	; 0x1f
    2920:	a8 a1       	ldd	r26, Y+32	; 0x20
    2922:	b9 a1       	ldd	r27, Y+33	; 0x21
    2924:	48 0f       	add	r20, r24
    2926:	59 1f       	adc	r21, r25
    2928:	6a 1f       	adc	r22, r26
    292a:	7b 1f       	adc	r23, r27
    292c:	ce 01       	movw	r24, r28
    292e:	1b dc       	rcall	.-1994   	; 0x2166 <move_window>
    2930:	81 11       	cpse	r24, r1
    2932:	c2 cf       	rjmp	.-124    	; 0x28b8 <get_fat+0x78>
    2934:	cc 0c       	add	r12, r12
    2936:	dd 1c       	adc	r13, r13
    2938:	ee 1c       	adc	r14, r14
    293a:	ff 1c       	adc	r15, r15
    293c:	e8 94       	clt
    293e:	c0 f8       	bld	r12, 0
    2940:	81 e0       	ldi	r24, 0x01	; 1
    2942:	d8 22       	and	r13, r24
    2944:	ee 24       	eor	r14, r14
    2946:	ff 24       	eor	r15, r15
    2948:	fe 01       	movw	r30, r28
    294a:	ec 0d       	add	r30, r12
    294c:	fd 1d       	adc	r31, r13
    294e:	66 a5       	ldd	r22, Z+46	; 0x2e
    2950:	77 a5       	ldd	r23, Z+47	; 0x2f
    2952:	80 e0       	ldi	r24, 0x00	; 0
    2954:	90 e0       	ldi	r25, 0x00	; 0
    2956:	2d c0       	rjmp	.+90     	; 0x29b2 <get_fat+0x172>
    2958:	f7 e0       	ldi	r31, 0x07	; 7
    295a:	76 95       	lsr	r23
    295c:	67 95       	ror	r22
    295e:	57 95       	ror	r21
    2960:	47 95       	ror	r20
    2962:	fa 95       	dec	r31
    2964:	d1 f7       	brne	.-12     	; 0x295a <get_fat+0x11a>
    2966:	8e 8d       	ldd	r24, Y+30	; 0x1e
    2968:	9f 8d       	ldd	r25, Y+31	; 0x1f
    296a:	a8 a1       	ldd	r26, Y+32	; 0x20
    296c:	b9 a1       	ldd	r27, Y+33	; 0x21
    296e:	48 0f       	add	r20, r24
    2970:	59 1f       	adc	r21, r25
    2972:	6a 1f       	adc	r22, r26
    2974:	7b 1f       	adc	r23, r27
    2976:	ce 01       	movw	r24, r28
    2978:	f6 db       	rcall	.-2068   	; 0x2166 <move_window>
    297a:	81 11       	cpse	r24, r1
    297c:	9d cf       	rjmp	.-198    	; 0x28b8 <get_fat+0x78>
    297e:	e2 e0       	ldi	r30, 0x02	; 2
    2980:	cc 0c       	add	r12, r12
    2982:	dd 1c       	adc	r13, r13
    2984:	ee 1c       	adc	r14, r14
    2986:	ff 1c       	adc	r15, r15
    2988:	ea 95       	dec	r30
    298a:	d1 f7       	brne	.-12     	; 0x2980 <get_fat+0x140>
    298c:	8c ef       	ldi	r24, 0xFC	; 252
    298e:	c8 22       	and	r12, r24
    2990:	81 e0       	ldi	r24, 0x01	; 1
    2992:	d8 22       	and	r13, r24
    2994:	ee 24       	eor	r14, r14
    2996:	ff 24       	eor	r15, r15
    2998:	fe 01       	movw	r30, r28
    299a:	ec 0d       	add	r30, r12
    299c:	fd 1d       	adc	r31, r13
    299e:	66 a5       	ldd	r22, Z+46	; 0x2e
    29a0:	77 a5       	ldd	r23, Z+47	; 0x2f
    29a2:	80 a9       	ldd	r24, Z+48	; 0x30
    29a4:	91 a9       	ldd	r25, Z+49	; 0x31
    29a6:	9f 70       	andi	r25, 0x0F	; 15
    29a8:	04 c0       	rjmp	.+8      	; 0x29b2 <get_fat+0x172>
    29aa:	61 e0       	ldi	r22, 0x01	; 1
    29ac:	70 e0       	ldi	r23, 0x00	; 0
    29ae:	80 e0       	ldi	r24, 0x00	; 0
    29b0:	90 e0       	ldi	r25, 0x00	; 0
    29b2:	df 91       	pop	r29
    29b4:	cf 91       	pop	r28
    29b6:	1f 91       	pop	r17
    29b8:	0f 91       	pop	r16
    29ba:	ff 90       	pop	r15
    29bc:	ef 90       	pop	r14
    29be:	df 90       	pop	r13
    29c0:	cf 90       	pop	r12
    29c2:	bf 90       	pop	r11
    29c4:	af 90       	pop	r10
    29c6:	08 95       	ret

000029c8 <dir_sdi>:
    29c8:	af 92       	push	r10
    29ca:	bf 92       	push	r11
    29cc:	cf 92       	push	r12
    29ce:	df 92       	push	r13
    29d0:	ef 92       	push	r14
    29d2:	ff 92       	push	r15
    29d4:	0f 93       	push	r16
    29d6:	1f 93       	push	r17
    29d8:	cf 93       	push	r28
    29da:	df 93       	push	r29
    29dc:	ec 01       	movw	r28, r24
    29de:	8b 01       	movw	r16, r22
    29e0:	7d 83       	std	Y+5, r23	; 0x05
    29e2:	6c 83       	std	Y+4, r22	; 0x04
    29e4:	ce 80       	ldd	r12, Y+6	; 0x06
    29e6:	df 80       	ldd	r13, Y+7	; 0x07
    29e8:	e8 84       	ldd	r14, Y+8	; 0x08
    29ea:	f9 84       	ldd	r15, Y+9	; 0x09
    29ec:	81 e0       	ldi	r24, 0x01	; 1
    29ee:	c8 16       	cp	r12, r24
    29f0:	d1 04       	cpc	r13, r1
    29f2:	e1 04       	cpc	r14, r1
    29f4:	f1 04       	cpc	r15, r1
    29f6:	11 f4       	brne	.+4      	; 0x29fc <dir_sdi+0x34>
    29f8:	82 e0       	ldi	r24, 0x02	; 2
    29fa:	80 c0       	rjmp	.+256    	; 0x2afc <dir_sdi+0x134>
    29fc:	e8 81       	ld	r30, Y
    29fe:	f9 81       	ldd	r31, Y+1	; 0x01
    2a00:	82 89       	ldd	r24, Z+18	; 0x12
    2a02:	93 89       	ldd	r25, Z+19	; 0x13
    2a04:	a4 89       	ldd	r26, Z+20	; 0x14
    2a06:	b5 89       	ldd	r27, Z+21	; 0x15
    2a08:	c8 16       	cp	r12, r24
    2a0a:	d9 06       	cpc	r13, r25
    2a0c:	ea 06       	cpc	r14, r26
    2a0e:	fb 06       	cpc	r15, r27
    2a10:	98 f7       	brcc	.-26     	; 0x29f8 <dir_sdi+0x30>
    2a12:	c1 14       	cp	r12, r1
    2a14:	d1 04       	cpc	r13, r1
    2a16:	e1 04       	cpc	r14, r1
    2a18:	f1 04       	cpc	r15, r1
    2a1a:	b9 f4       	brne	.+46     	; 0x2a4a <dir_sdi+0x82>
    2a1c:	80 81       	ld	r24, Z
    2a1e:	83 30       	cpi	r24, 0x03	; 3
    2a20:	41 f4       	brne	.+16     	; 0x2a32 <dir_sdi+0x6a>
    2a22:	82 a1       	ldd	r24, Z+34	; 0x22
    2a24:	93 a1       	ldd	r25, Z+35	; 0x23
    2a26:	a4 a1       	ldd	r26, Z+36	; 0x24
    2a28:	b5 a1       	ldd	r27, Z+37	; 0x25
    2a2a:	00 97       	sbiw	r24, 0x00	; 0
    2a2c:	a1 05       	cpc	r26, r1
    2a2e:	b1 05       	cpc	r27, r1
    2a30:	51 f4       	brne	.+20     	; 0x2a46 <dir_sdi+0x7e>
    2a32:	80 85       	ldd	r24, Z+8	; 0x08
    2a34:	91 85       	ldd	r25, Z+9	; 0x09
    2a36:	08 17       	cp	r16, r24
    2a38:	19 07       	cpc	r17, r25
    2a3a:	f0 f6       	brcc	.-68     	; 0x29f8 <dir_sdi+0x30>
    2a3c:	62 a1       	ldd	r22, Z+34	; 0x22
    2a3e:	73 a1       	ldd	r23, Z+35	; 0x23
    2a40:	84 a1       	ldd	r24, Z+36	; 0x24
    2a42:	95 a1       	ldd	r25, Z+37	; 0x25
    2a44:	2f c0       	rjmp	.+94     	; 0x2aa4 <dir_sdi+0xdc>
    2a46:	6c 01       	movw	r12, r24
    2a48:	7d 01       	movw	r14, r26
    2a4a:	a2 80       	ldd	r10, Z+2	; 0x02
    2a4c:	80 e1       	ldi	r24, 0x10	; 16
    2a4e:	a8 9e       	mul	r10, r24
    2a50:	50 01       	movw	r10, r0
    2a52:	11 24       	eor	r1, r1
    2a54:	88 81       	ld	r24, Y
    2a56:	99 81       	ldd	r25, Y+1	; 0x01
    2a58:	b7 01       	movw	r22, r14
    2a5a:	a6 01       	movw	r20, r12
    2a5c:	0a 15       	cp	r16, r10
    2a5e:	1b 05       	cpc	r17, r11
    2a60:	00 f1       	brcs	.+64     	; 0x2aa2 <dir_sdi+0xda>
    2a62:	ee de       	rcall	.-548    	; 0x2840 <get_fat>
    2a64:	6b 01       	movw	r12, r22
    2a66:	7c 01       	movw	r14, r24
    2a68:	8f ef       	ldi	r24, 0xFF	; 255
    2a6a:	c8 16       	cp	r12, r24
    2a6c:	d8 06       	cpc	r13, r24
    2a6e:	e8 06       	cpc	r14, r24
    2a70:	f8 06       	cpc	r15, r24
    2a72:	09 f4       	brne	.+2      	; 0x2a76 <dir_sdi+0xae>
    2a74:	42 c0       	rjmp	.+132    	; 0x2afa <dir_sdi+0x132>
    2a76:	82 e0       	ldi	r24, 0x02	; 2
    2a78:	c8 16       	cp	r12, r24
    2a7a:	d1 04       	cpc	r13, r1
    2a7c:	e1 04       	cpc	r14, r1
    2a7e:	f1 04       	cpc	r15, r1
    2a80:	08 f4       	brcc	.+2      	; 0x2a84 <dir_sdi+0xbc>
    2a82:	ba cf       	rjmp	.-140    	; 0x29f8 <dir_sdi+0x30>
    2a84:	e8 81       	ld	r30, Y
    2a86:	f9 81       	ldd	r31, Y+1	; 0x01
    2a88:	82 89       	ldd	r24, Z+18	; 0x12
    2a8a:	93 89       	ldd	r25, Z+19	; 0x13
    2a8c:	a4 89       	ldd	r26, Z+20	; 0x14
    2a8e:	b5 89       	ldd	r27, Z+21	; 0x15
    2a90:	c8 16       	cp	r12, r24
    2a92:	d9 06       	cpc	r13, r25
    2a94:	ea 06       	cpc	r14, r26
    2a96:	fb 06       	cpc	r15, r27
    2a98:	08 f0       	brcs	.+2      	; 0x2a9c <dir_sdi+0xd4>
    2a9a:	ae cf       	rjmp	.-164    	; 0x29f8 <dir_sdi+0x30>
    2a9c:	0a 19       	sub	r16, r10
    2a9e:	1b 09       	sbc	r17, r11
    2aa0:	d9 cf       	rjmp	.-78     	; 0x2a54 <dir_sdi+0x8c>
    2aa2:	a5 de       	rcall	.-694    	; 0x27ee <clust2sect>
    2aa4:	ca 86       	std	Y+10, r12	; 0x0a
    2aa6:	db 86       	std	Y+11, r13	; 0x0b
    2aa8:	ec 86       	std	Y+12, r14	; 0x0c
    2aaa:	fd 86       	std	Y+13, r15	; 0x0d
    2aac:	61 15       	cp	r22, r1
    2aae:	71 05       	cpc	r23, r1
    2ab0:	81 05       	cpc	r24, r1
    2ab2:	91 05       	cpc	r25, r1
    2ab4:	09 f4       	brne	.+2      	; 0x2ab8 <dir_sdi+0xf0>
    2ab6:	a0 cf       	rjmp	.-192    	; 0x29f8 <dir_sdi+0x30>
    2ab8:	98 01       	movw	r18, r16
    2aba:	54 e0       	ldi	r21, 0x04	; 4
    2abc:	36 95       	lsr	r19
    2abe:	27 95       	ror	r18
    2ac0:	5a 95       	dec	r21
    2ac2:	e1 f7       	brne	.-8      	; 0x2abc <dir_sdi+0xf4>
    2ac4:	dc 01       	movw	r26, r24
    2ac6:	cb 01       	movw	r24, r22
    2ac8:	82 0f       	add	r24, r18
    2aca:	93 1f       	adc	r25, r19
    2acc:	a1 1d       	adc	r26, r1
    2ace:	b1 1d       	adc	r27, r1
    2ad0:	8e 87       	std	Y+14, r24	; 0x0e
    2ad2:	9f 87       	std	Y+15, r25	; 0x0f
    2ad4:	a8 8b       	std	Y+16, r26	; 0x10
    2ad6:	b9 8b       	std	Y+17, r27	; 0x11
    2ad8:	0f 70       	andi	r16, 0x0F	; 15
    2ada:	11 27       	eor	r17, r17
    2adc:	65 e0       	ldi	r22, 0x05	; 5
    2ade:	00 0f       	add	r16, r16
    2ae0:	11 1f       	adc	r17, r17
    2ae2:	6a 95       	dec	r22
    2ae4:	e1 f7       	brne	.-8      	; 0x2ade <dir_sdi+0x116>
    2ae6:	02 5d       	subi	r16, 0xD2	; 210
    2ae8:	1f 4f       	sbci	r17, 0xFF	; 255
    2aea:	88 81       	ld	r24, Y
    2aec:	99 81       	ldd	r25, Y+1	; 0x01
    2aee:	80 0f       	add	r24, r16
    2af0:	91 1f       	adc	r25, r17
    2af2:	9b 8b       	std	Y+19, r25	; 0x13
    2af4:	8a 8b       	std	Y+18, r24	; 0x12
    2af6:	80 e0       	ldi	r24, 0x00	; 0
    2af8:	01 c0       	rjmp	.+2      	; 0x2afc <dir_sdi+0x134>
    2afa:	81 e0       	ldi	r24, 0x01	; 1
    2afc:	df 91       	pop	r29
    2afe:	cf 91       	pop	r28
    2b00:	1f 91       	pop	r17
    2b02:	0f 91       	pop	r16
    2b04:	ff 90       	pop	r15
    2b06:	ef 90       	pop	r14
    2b08:	df 90       	pop	r13
    2b0a:	cf 90       	pop	r12
    2b0c:	bf 90       	pop	r11
    2b0e:	af 90       	pop	r10
    2b10:	08 95       	ret

00002b12 <put_fat>:
    2b12:	4f 92       	push	r4
    2b14:	5f 92       	push	r5
    2b16:	6f 92       	push	r6
    2b18:	7f 92       	push	r7
    2b1a:	8f 92       	push	r8
    2b1c:	9f 92       	push	r9
    2b1e:	af 92       	push	r10
    2b20:	bf 92       	push	r11
    2b22:	cf 92       	push	r12
    2b24:	df 92       	push	r13
    2b26:	ef 92       	push	r14
    2b28:	ff 92       	push	r15
    2b2a:	0f 93       	push	r16
    2b2c:	1f 93       	push	r17
    2b2e:	cf 93       	push	r28
    2b30:	df 93       	push	r29
    2b32:	ec 01       	movw	r28, r24
    2b34:	6a 01       	movw	r12, r20
    2b36:	7b 01       	movw	r14, r22
    2b38:	28 01       	movw	r4, r16
    2b3a:	39 01       	movw	r6, r18
    2b3c:	42 30       	cpi	r20, 0x02	; 2
    2b3e:	51 05       	cpc	r21, r1
    2b40:	61 05       	cpc	r22, r1
    2b42:	71 05       	cpc	r23, r1
    2b44:	08 f4       	brcc	.+2      	; 0x2b48 <put_fat+0x36>
    2b46:	c5 c0       	rjmp	.+394    	; 0x2cd2 <put_fat+0x1c0>
    2b48:	8a 89       	ldd	r24, Y+18	; 0x12
    2b4a:	9b 89       	ldd	r25, Y+19	; 0x13
    2b4c:	ac 89       	ldd	r26, Y+20	; 0x14
    2b4e:	bd 89       	ldd	r27, Y+21	; 0x15
    2b50:	48 17       	cp	r20, r24
    2b52:	59 07       	cpc	r21, r25
    2b54:	6a 07       	cpc	r22, r26
    2b56:	7b 07       	cpc	r23, r27
    2b58:	08 f0       	brcs	.+2      	; 0x2b5c <put_fat+0x4a>
    2b5a:	bb c0       	rjmp	.+374    	; 0x2cd2 <put_fat+0x1c0>
    2b5c:	88 81       	ld	r24, Y
    2b5e:	82 30       	cpi	r24, 0x02	; 2
    2b60:	09 f4       	brne	.+2      	; 0x2b64 <put_fat+0x52>
    2b62:	5f c0       	rjmp	.+190    	; 0x2c22 <put_fat+0x110>
    2b64:	83 30       	cpi	r24, 0x03	; 3
    2b66:	09 f4       	brne	.+2      	; 0x2b6a <put_fat+0x58>
    2b68:	7d c0       	rjmp	.+250    	; 0x2c64 <put_fat+0x152>
    2b6a:	81 30       	cpi	r24, 0x01	; 1
    2b6c:	09 f0       	breq	.+2      	; 0x2b70 <put_fat+0x5e>
    2b6e:	b1 c0       	rjmp	.+354    	; 0x2cd2 <put_fat+0x1c0>
    2b70:	5a 01       	movw	r10, r20
    2b72:	b6 94       	lsr	r11
    2b74:	a7 94       	ror	r10
    2b76:	a4 0e       	add	r10, r20
    2b78:	b5 1e       	adc	r11, r21
    2b7a:	c5 01       	movw	r24, r10
    2b7c:	89 2f       	mov	r24, r25
    2b7e:	99 27       	eor	r25, r25
    2b80:	86 95       	lsr	r24
    2b82:	4e 8d       	ldd	r20, Y+30	; 0x1e
    2b84:	5f 8d       	ldd	r21, Y+31	; 0x1f
    2b86:	68 a1       	ldd	r22, Y+32	; 0x20
    2b88:	79 a1       	ldd	r23, Y+33	; 0x21
    2b8a:	48 0f       	add	r20, r24
    2b8c:	59 1f       	adc	r21, r25
    2b8e:	61 1d       	adc	r22, r1
    2b90:	71 1d       	adc	r23, r1
    2b92:	ce 01       	movw	r24, r28
    2b94:	e8 da       	rcall	.-2608   	; 0x2166 <move_window>
    2b96:	81 11       	cpse	r24, r1
    2b98:	9d c0       	rjmp	.+314    	; 0x2cd4 <put_fat+0x1c2>
    2b9a:	85 01       	movw	r16, r10
    2b9c:	0f 5f       	subi	r16, 0xFF	; 255
    2b9e:	1f 4f       	sbci	r17, 0xFF	; 255
    2ba0:	f5 01       	movw	r30, r10
    2ba2:	f1 70       	andi	r31, 0x01	; 1
    2ba4:	ec 0f       	add	r30, r28
    2ba6:	fd 1f       	adc	r31, r29
    2ba8:	46 01       	movw	r8, r12
    2baa:	57 01       	movw	r10, r14
    2bac:	81 e0       	ldi	r24, 0x01	; 1
    2bae:	88 22       	and	r8, r24
    2bb0:	99 24       	eor	r9, r9
    2bb2:	aa 24       	eor	r10, r10
    2bb4:	bb 24       	eor	r11, r11
    2bb6:	c0 fe       	sbrs	r12, 0
    2bb8:	08 c0       	rjmp	.+16     	; 0x2bca <put_fat+0xb8>
    2bba:	26 a5       	ldd	r18, Z+46	; 0x2e
    2bbc:	2f 70       	andi	r18, 0x0F	; 15
    2bbe:	30 e1       	ldi	r19, 0x10	; 16
    2bc0:	43 9e       	mul	r4, r19
    2bc2:	c0 01       	movw	r24, r0
    2bc4:	11 24       	eor	r1, r1
    2bc6:	28 2b       	or	r18, r24
    2bc8:	01 c0       	rjmp	.+2      	; 0x2bcc <put_fat+0xba>
    2bca:	24 2d       	mov	r18, r4
    2bcc:	26 a7       	std	Z+46, r18	; 0x2e
    2bce:	81 e0       	ldi	r24, 0x01	; 1
    2bd0:	8c 83       	std	Y+4, r24	; 0x04
    2bd2:	4e 8d       	ldd	r20, Y+30	; 0x1e
    2bd4:	5f 8d       	ldd	r21, Y+31	; 0x1f
    2bd6:	68 a1       	ldd	r22, Y+32	; 0x20
    2bd8:	79 a1       	ldd	r23, Y+33	; 0x21
    2bda:	c8 01       	movw	r24, r16
    2bdc:	89 2f       	mov	r24, r25
    2bde:	99 27       	eor	r25, r25
    2be0:	86 95       	lsr	r24
    2be2:	48 0f       	add	r20, r24
    2be4:	59 1f       	adc	r21, r25
    2be6:	61 1d       	adc	r22, r1
    2be8:	71 1d       	adc	r23, r1
    2bea:	ce 01       	movw	r24, r28
    2bec:	bc da       	rcall	.-2696   	; 0x2166 <move_window>
    2bee:	81 11       	cpse	r24, r1
    2bf0:	71 c0       	rjmp	.+226    	; 0x2cd4 <put_fat+0x1c2>
    2bf2:	f8 01       	movw	r30, r16
    2bf4:	f1 70       	andi	r31, 0x01	; 1
    2bf6:	ec 0f       	add	r30, r28
    2bf8:	fd 1f       	adc	r31, r29
    2bfa:	89 28       	or	r8, r9
    2bfc:	8a 28       	or	r8, r10
    2bfe:	8b 28       	or	r8, r11
    2c00:	49 f0       	breq	.+18     	; 0x2c14 <put_fat+0x102>
    2c02:	b4 e0       	ldi	r27, 0x04	; 4
    2c04:	76 94       	lsr	r7
    2c06:	67 94       	ror	r6
    2c08:	57 94       	ror	r5
    2c0a:	47 94       	ror	r4
    2c0c:	ba 95       	dec	r27
    2c0e:	d1 f7       	brne	.-12     	; 0x2c04 <put_fat+0xf2>
    2c10:	94 2d       	mov	r25, r4
    2c12:	05 c0       	rjmp	.+10     	; 0x2c1e <put_fat+0x10c>
    2c14:	96 a5       	ldd	r25, Z+46	; 0x2e
    2c16:	90 7f       	andi	r25, 0xF0	; 240
    2c18:	25 2d       	mov	r18, r5
    2c1a:	2f 70       	andi	r18, 0x0F	; 15
    2c1c:	92 2b       	or	r25, r18
    2c1e:	96 a7       	std	Z+46, r25	; 0x2e
    2c20:	55 c0       	rjmp	.+170    	; 0x2ccc <put_fat+0x1ba>
    2c22:	45 2f       	mov	r20, r21
    2c24:	56 2f       	mov	r21, r22
    2c26:	67 2f       	mov	r22, r23
    2c28:	77 27       	eor	r23, r23
    2c2a:	8e 8d       	ldd	r24, Y+30	; 0x1e
    2c2c:	9f 8d       	ldd	r25, Y+31	; 0x1f
    2c2e:	a8 a1       	ldd	r26, Y+32	; 0x20
    2c30:	b9 a1       	ldd	r27, Y+33	; 0x21
    2c32:	48 0f       	add	r20, r24
    2c34:	59 1f       	adc	r21, r25
    2c36:	6a 1f       	adc	r22, r26
    2c38:	7b 1f       	adc	r23, r27
    2c3a:	ce 01       	movw	r24, r28
    2c3c:	94 da       	rcall	.-2776   	; 0x2166 <move_window>
    2c3e:	81 11       	cpse	r24, r1
    2c40:	49 c0       	rjmp	.+146    	; 0x2cd4 <put_fat+0x1c2>
    2c42:	cc 0c       	add	r12, r12
    2c44:	dd 1c       	adc	r13, r13
    2c46:	ee 1c       	adc	r14, r14
    2c48:	ff 1c       	adc	r15, r15
    2c4a:	e8 94       	clt
    2c4c:	c0 f8       	bld	r12, 0
    2c4e:	91 e0       	ldi	r25, 0x01	; 1
    2c50:	d9 22       	and	r13, r25
    2c52:	ee 24       	eor	r14, r14
    2c54:	ff 24       	eor	r15, r15
    2c56:	f6 01       	movw	r30, r12
    2c58:	be 96       	adiw	r30, 0x2e	; 46
    2c5a:	ec 0f       	add	r30, r28
    2c5c:	fd 1f       	adc	r31, r29
    2c5e:	51 82       	std	Z+1, r5	; 0x01
    2c60:	40 82       	st	Z, r4
    2c62:	34 c0       	rjmp	.+104    	; 0x2ccc <put_fat+0x1ba>
    2c64:	e7 e0       	ldi	r30, 0x07	; 7
    2c66:	76 95       	lsr	r23
    2c68:	67 95       	ror	r22
    2c6a:	57 95       	ror	r21
    2c6c:	47 95       	ror	r20
    2c6e:	ea 95       	dec	r30
    2c70:	d1 f7       	brne	.-12     	; 0x2c66 <put_fat+0x154>
    2c72:	8e 8d       	ldd	r24, Y+30	; 0x1e
    2c74:	9f 8d       	ldd	r25, Y+31	; 0x1f
    2c76:	a8 a1       	ldd	r26, Y+32	; 0x20
    2c78:	b9 a1       	ldd	r27, Y+33	; 0x21
    2c7a:	48 0f       	add	r20, r24
    2c7c:	59 1f       	adc	r21, r25
    2c7e:	6a 1f       	adc	r22, r26
    2c80:	7b 1f       	adc	r23, r27
    2c82:	ce 01       	movw	r24, r28
    2c84:	70 da       	rcall	.-2848   	; 0x2166 <move_window>
    2c86:	81 11       	cpse	r24, r1
    2c88:	25 c0       	rjmp	.+74     	; 0x2cd4 <put_fat+0x1c2>
    2c8a:	72 e0       	ldi	r23, 0x02	; 2
    2c8c:	cc 0c       	add	r12, r12
    2c8e:	dd 1c       	adc	r13, r13
    2c90:	ee 1c       	adc	r14, r14
    2c92:	ff 1c       	adc	r15, r15
    2c94:	7a 95       	dec	r23
    2c96:	d1 f7       	brne	.-12     	; 0x2c8c <put_fat+0x17a>
    2c98:	3c ef       	ldi	r19, 0xFC	; 252
    2c9a:	c3 22       	and	r12, r19
    2c9c:	31 e0       	ldi	r19, 0x01	; 1
    2c9e:	d3 22       	and	r13, r19
    2ca0:	ee 24       	eor	r14, r14
    2ca2:	ff 24       	eor	r15, r15
    2ca4:	f6 01       	movw	r30, r12
    2ca6:	be 96       	adiw	r30, 0x2e	; 46
    2ca8:	ec 0f       	add	r30, r28
    2caa:	fd 1f       	adc	r31, r29
    2cac:	40 81       	ld	r20, Z
    2cae:	51 81       	ldd	r21, Z+1	; 0x01
    2cb0:	62 81       	ldd	r22, Z+2	; 0x02
    2cb2:	73 81       	ldd	r23, Z+3	; 0x03
    2cb4:	44 27       	eor	r20, r20
    2cb6:	55 27       	eor	r21, r21
    2cb8:	66 27       	eor	r22, r22
    2cba:	70 7f       	andi	r23, 0xF0	; 240
    2cbc:	44 29       	or	r20, r4
    2cbe:	55 29       	or	r21, r5
    2cc0:	66 29       	or	r22, r6
    2cc2:	77 29       	or	r23, r7
    2cc4:	40 83       	st	Z, r20
    2cc6:	51 83       	std	Z+1, r21	; 0x01
    2cc8:	62 83       	std	Z+2, r22	; 0x02
    2cca:	73 83       	std	Z+3, r23	; 0x03
    2ccc:	91 e0       	ldi	r25, 0x01	; 1
    2cce:	9c 83       	std	Y+4, r25	; 0x04
    2cd0:	01 c0       	rjmp	.+2      	; 0x2cd4 <put_fat+0x1c2>
    2cd2:	82 e0       	ldi	r24, 0x02	; 2
    2cd4:	df 91       	pop	r29
    2cd6:	cf 91       	pop	r28
    2cd8:	1f 91       	pop	r17
    2cda:	0f 91       	pop	r16
    2cdc:	ff 90       	pop	r15
    2cde:	ef 90       	pop	r14
    2ce0:	df 90       	pop	r13
    2ce2:	cf 90       	pop	r12
    2ce4:	bf 90       	pop	r11
    2ce6:	af 90       	pop	r10
    2ce8:	9f 90       	pop	r9
    2cea:	8f 90       	pop	r8
    2cec:	7f 90       	pop	r7
    2cee:	6f 90       	pop	r6
    2cf0:	5f 90       	pop	r5
    2cf2:	4f 90       	pop	r4
    2cf4:	08 95       	ret

00002cf6 <create_chain>:
    2cf6:	4f 92       	push	r4
    2cf8:	5f 92       	push	r5
    2cfa:	6f 92       	push	r6
    2cfc:	7f 92       	push	r7
    2cfe:	8f 92       	push	r8
    2d00:	9f 92       	push	r9
    2d02:	af 92       	push	r10
    2d04:	bf 92       	push	r11
    2d06:	cf 92       	push	r12
    2d08:	df 92       	push	r13
    2d0a:	ef 92       	push	r14
    2d0c:	ff 92       	push	r15
    2d0e:	0f 93       	push	r16
    2d10:	1f 93       	push	r17
    2d12:	cf 93       	push	r28
    2d14:	df 93       	push	r29
    2d16:	ec 01       	movw	r28, r24
    2d18:	2a 01       	movw	r4, r20
    2d1a:	3b 01       	movw	r6, r22
    2d1c:	41 15       	cp	r20, r1
    2d1e:	51 05       	cpc	r21, r1
    2d20:	61 05       	cpc	r22, r1
    2d22:	71 05       	cpc	r23, r1
    2d24:	99 f4       	brne	.+38     	; 0x2d4c <create_chain+0x56>
    2d26:	8a 84       	ldd	r8, Y+10	; 0x0a
    2d28:	9b 84       	ldd	r9, Y+11	; 0x0b
    2d2a:	ac 84       	ldd	r10, Y+12	; 0x0c
    2d2c:	bd 84       	ldd	r11, Y+13	; 0x0d
    2d2e:	81 14       	cp	r8, r1
    2d30:	91 04       	cpc	r9, r1
    2d32:	a1 04       	cpc	r10, r1
    2d34:	b1 04       	cpc	r11, r1
    2d36:	49 f1       	breq	.+82     	; 0x2d8a <create_chain+0x94>
    2d38:	4a 89       	ldd	r20, Y+18	; 0x12
    2d3a:	5b 89       	ldd	r21, Y+19	; 0x13
    2d3c:	6c 89       	ldd	r22, Y+20	; 0x14
    2d3e:	7d 89       	ldd	r23, Y+21	; 0x15
    2d40:	84 16       	cp	r8, r20
    2d42:	95 06       	cpc	r9, r21
    2d44:	a6 06       	cpc	r10, r22
    2d46:	b7 06       	cpc	r11, r23
    2d48:	00 f5       	brcc	.+64     	; 0x2d8a <create_chain+0x94>
    2d4a:	23 c0       	rjmp	.+70     	; 0x2d92 <create_chain+0x9c>
    2d4c:	79 dd       	rcall	.-1294   	; 0x2840 <get_fat>
    2d4e:	62 30       	cpi	r22, 0x02	; 2
    2d50:	71 05       	cpc	r23, r1
    2d52:	81 05       	cpc	r24, r1
    2d54:	91 05       	cpc	r25, r1
    2d56:	08 f4       	brcc	.+2      	; 0x2d5a <create_chain+0x64>
    2d58:	92 c0       	rjmp	.+292    	; 0x2e7e <create_chain+0x188>
    2d5a:	6f 3f       	cpi	r22, 0xFF	; 255
    2d5c:	2f ef       	ldi	r18, 0xFF	; 255
    2d5e:	72 07       	cpc	r23, r18
    2d60:	82 07       	cpc	r24, r18
    2d62:	92 07       	cpc	r25, r18
    2d64:	29 f4       	brne	.+10     	; 0x2d70 <create_chain+0x7a>
    2d66:	4f ef       	ldi	r20, 0xFF	; 255
    2d68:	3f ef       	ldi	r19, 0xFF	; 255
    2d6a:	2f ef       	ldi	r18, 0xFF	; 255
    2d6c:	9f ef       	ldi	r25, 0xFF	; 255
    2d6e:	8c c0       	rjmp	.+280    	; 0x2e88 <create_chain+0x192>
    2d70:	ca 88       	ldd	r12, Y+18	; 0x12
    2d72:	db 88       	ldd	r13, Y+19	; 0x13
    2d74:	ec 88       	ldd	r14, Y+20	; 0x14
    2d76:	fd 88       	ldd	r15, Y+21	; 0x15
    2d78:	6c 15       	cp	r22, r12
    2d7a:	7d 05       	cpc	r23, r13
    2d7c:	8e 05       	cpc	r24, r14
    2d7e:	9f 05       	cpc	r25, r15
    2d80:	08 f4       	brcc	.+2      	; 0x2d84 <create_chain+0x8e>
    2d82:	7f c0       	rjmp	.+254    	; 0x2e82 <create_chain+0x18c>
    2d84:	53 01       	movw	r10, r6
    2d86:	42 01       	movw	r8, r4
    2d88:	04 c0       	rjmp	.+8      	; 0x2d92 <create_chain+0x9c>
    2d8a:	81 2c       	mov	r8, r1
    2d8c:	91 2c       	mov	r9, r1
    2d8e:	54 01       	movw	r10, r8
    2d90:	83 94       	inc	r8
    2d92:	75 01       	movw	r14, r10
    2d94:	64 01       	movw	r12, r8
    2d96:	8f ef       	ldi	r24, 0xFF	; 255
    2d98:	c8 1a       	sub	r12, r24
    2d9a:	d8 0a       	sbc	r13, r24
    2d9c:	e8 0a       	sbc	r14, r24
    2d9e:	f8 0a       	sbc	r15, r24
    2da0:	4a 89       	ldd	r20, Y+18	; 0x12
    2da2:	5b 89       	ldd	r21, Y+19	; 0x13
    2da4:	6c 89       	ldd	r22, Y+20	; 0x14
    2da6:	7d 89       	ldd	r23, Y+21	; 0x15
    2da8:	c4 16       	cp	r12, r20
    2daa:	d5 06       	cpc	r13, r21
    2dac:	e6 06       	cpc	r14, r22
    2dae:	f7 06       	cpc	r15, r23
    2db0:	80 f0       	brcs	.+32     	; 0x2dd2 <create_chain+0xdc>
    2db2:	22 e0       	ldi	r18, 0x02	; 2
    2db4:	82 16       	cp	r8, r18
    2db6:	91 04       	cpc	r9, r1
    2db8:	a1 04       	cpc	r10, r1
    2dba:	b1 04       	cpc	r11, r1
    2dbc:	28 f4       	brcc	.+10     	; 0x2dc8 <create_chain+0xd2>
    2dbe:	40 e0       	ldi	r20, 0x00	; 0
    2dc0:	30 e0       	ldi	r19, 0x00	; 0
    2dc2:	20 e0       	ldi	r18, 0x00	; 0
    2dc4:	90 e0       	ldi	r25, 0x00	; 0
    2dc6:	60 c0       	rjmp	.+192    	; 0x2e88 <create_chain+0x192>
    2dc8:	52 e0       	ldi	r21, 0x02	; 2
    2dca:	c5 2e       	mov	r12, r21
    2dcc:	d1 2c       	mov	r13, r1
    2dce:	e1 2c       	mov	r14, r1
    2dd0:	f1 2c       	mov	r15, r1
    2dd2:	b7 01       	movw	r22, r14
    2dd4:	a6 01       	movw	r20, r12
    2dd6:	ce 01       	movw	r24, r28
    2dd8:	33 dd       	rcall	.-1434   	; 0x2840 <get_fat>
    2dda:	61 15       	cp	r22, r1
    2ddc:	71 05       	cpc	r23, r1
    2dde:	81 05       	cpc	r24, r1
    2de0:	91 05       	cpc	r25, r1
    2de2:	99 f0       	breq	.+38     	; 0x2e0a <create_chain+0x114>
    2de4:	6f 3f       	cpi	r22, 0xFF	; 255
    2de6:	2f ef       	ldi	r18, 0xFF	; 255
    2de8:	72 07       	cpc	r23, r18
    2dea:	82 07       	cpc	r24, r18
    2dec:	92 07       	cpc	r25, r18
    2dee:	09 f4       	brne	.+2      	; 0x2df2 <create_chain+0xfc>
    2df0:	ba cf       	rjmp	.-140    	; 0x2d66 <create_chain+0x70>
    2df2:	61 30       	cpi	r22, 0x01	; 1
    2df4:	71 05       	cpc	r23, r1
    2df6:	81 05       	cpc	r24, r1
    2df8:	91 05       	cpc	r25, r1
    2dfa:	09 f4       	brne	.+2      	; 0x2dfe <create_chain+0x108>
    2dfc:	40 c0       	rjmp	.+128    	; 0x2e7e <create_chain+0x188>
    2dfe:	c8 14       	cp	r12, r8
    2e00:	d9 04       	cpc	r13, r9
    2e02:	ea 04       	cpc	r14, r10
    2e04:	fb 04       	cpc	r15, r11
    2e06:	39 f6       	brne	.-114    	; 0x2d96 <create_chain+0xa0>
    2e08:	da cf       	rjmp	.-76     	; 0x2dbe <create_chain+0xc8>
    2e0a:	0f ef       	ldi	r16, 0xFF	; 255
    2e0c:	1f ef       	ldi	r17, 0xFF	; 255
    2e0e:	2f ef       	ldi	r18, 0xFF	; 255
    2e10:	3f e0       	ldi	r19, 0x0F	; 15
    2e12:	b7 01       	movw	r22, r14
    2e14:	a6 01       	movw	r20, r12
    2e16:	ce 01       	movw	r24, r28
    2e18:	7c de       	rcall	.-776    	; 0x2b12 <put_fat>
    2e1a:	81 11       	cpse	r24, r1
    2e1c:	2d c0       	rjmp	.+90     	; 0x2e78 <create_chain+0x182>
    2e1e:	41 14       	cp	r4, r1
    2e20:	51 04       	cpc	r5, r1
    2e22:	61 04       	cpc	r6, r1
    2e24:	71 04       	cpc	r7, r1
    2e26:	d1 f4       	brne	.+52     	; 0x2e5c <create_chain+0x166>
    2e28:	ca 86       	std	Y+10, r12	; 0x0a
    2e2a:	db 86       	std	Y+11, r13	; 0x0b
    2e2c:	ec 86       	std	Y+12, r14	; 0x0c
    2e2e:	fd 86       	std	Y+13, r15	; 0x0d
    2e30:	4e 85       	ldd	r20, Y+14	; 0x0e
    2e32:	5f 85       	ldd	r21, Y+15	; 0x0f
    2e34:	68 89       	ldd	r22, Y+16	; 0x10
    2e36:	79 89       	ldd	r23, Y+17	; 0x11
    2e38:	4f 3f       	cpi	r20, 0xFF	; 255
    2e3a:	8f ef       	ldi	r24, 0xFF	; 255
    2e3c:	58 07       	cpc	r21, r24
    2e3e:	68 07       	cpc	r22, r24
    2e40:	78 07       	cpc	r23, r24
    2e42:	a9 f0       	breq	.+42     	; 0x2e6e <create_chain+0x178>
    2e44:	41 50       	subi	r20, 0x01	; 1
    2e46:	51 09       	sbc	r21, r1
    2e48:	61 09       	sbc	r22, r1
    2e4a:	71 09       	sbc	r23, r1
    2e4c:	4e 87       	std	Y+14, r20	; 0x0e
    2e4e:	5f 87       	std	Y+15, r21	; 0x0f
    2e50:	68 8b       	std	Y+16, r22	; 0x10
    2e52:	79 8b       	std	Y+17, r23	; 0x11
    2e54:	8d 81       	ldd	r24, Y+5	; 0x05
    2e56:	81 60       	ori	r24, 0x01	; 1
    2e58:	8d 83       	std	Y+5, r24	; 0x05
    2e5a:	09 c0       	rjmp	.+18     	; 0x2e6e <create_chain+0x178>
    2e5c:	97 01       	movw	r18, r14
    2e5e:	86 01       	movw	r16, r12
    2e60:	b3 01       	movw	r22, r6
    2e62:	a2 01       	movw	r20, r4
    2e64:	ce 01       	movw	r24, r28
    2e66:	55 de       	rcall	.-854    	; 0x2b12 <put_fat>
    2e68:	88 23       	and	r24, r24
    2e6a:	f1 f2       	breq	.-68     	; 0x2e28 <create_chain+0x132>
    2e6c:	05 c0       	rjmp	.+10     	; 0x2e78 <create_chain+0x182>
    2e6e:	4c 2d       	mov	r20, r12
    2e70:	3d 2d       	mov	r19, r13
    2e72:	2e 2d       	mov	r18, r14
    2e74:	9f 2d       	mov	r25, r15
    2e76:	08 c0       	rjmp	.+16     	; 0x2e88 <create_chain+0x192>
    2e78:	81 30       	cpi	r24, 0x01	; 1
    2e7a:	09 f4       	brne	.+2      	; 0x2e7e <create_chain+0x188>
    2e7c:	74 cf       	rjmp	.-280    	; 0x2d66 <create_chain+0x70>
    2e7e:	41 e0       	ldi	r20, 0x01	; 1
    2e80:	9f cf       	rjmp	.-194    	; 0x2dc0 <create_chain+0xca>
    2e82:	46 2f       	mov	r20, r22
    2e84:	37 2f       	mov	r19, r23
    2e86:	28 2f       	mov	r18, r24
    2e88:	64 2f       	mov	r22, r20
    2e8a:	73 2f       	mov	r23, r19
    2e8c:	82 2f       	mov	r24, r18
    2e8e:	df 91       	pop	r29
    2e90:	cf 91       	pop	r28
    2e92:	1f 91       	pop	r17
    2e94:	0f 91       	pop	r16
    2e96:	ff 90       	pop	r15
    2e98:	ef 90       	pop	r14
    2e9a:	df 90       	pop	r13
    2e9c:	cf 90       	pop	r12
    2e9e:	bf 90       	pop	r11
    2ea0:	af 90       	pop	r10
    2ea2:	9f 90       	pop	r9
    2ea4:	8f 90       	pop	r8
    2ea6:	7f 90       	pop	r7
    2ea8:	6f 90       	pop	r6
    2eaa:	5f 90       	pop	r5
    2eac:	4f 90       	pop	r4
    2eae:	08 95       	ret

00002eb0 <dir_next>:
    2eb0:	7f 92       	push	r7
    2eb2:	8f 92       	push	r8
    2eb4:	9f 92       	push	r9
    2eb6:	af 92       	push	r10
    2eb8:	bf 92       	push	r11
    2eba:	cf 92       	push	r12
    2ebc:	df 92       	push	r13
    2ebe:	ef 92       	push	r14
    2ec0:	ff 92       	push	r15
    2ec2:	0f 93       	push	r16
    2ec4:	1f 93       	push	r17
    2ec6:	cf 93       	push	r28
    2ec8:	df 93       	push	r29
    2eca:	ec 01       	movw	r28, r24
    2ecc:	6b 01       	movw	r12, r22
    2ece:	0c 81       	ldd	r16, Y+4	; 0x04
    2ed0:	1d 81       	ldd	r17, Y+5	; 0x05
    2ed2:	0f 5f       	subi	r16, 0xFF	; 255
    2ed4:	1f 4f       	sbci	r17, 0xFF	; 255
    2ed6:	01 15       	cp	r16, r1
    2ed8:	11 05       	cpc	r17, r1
    2eda:	11 f4       	brne	.+4      	; 0x2ee0 <dir_next+0x30>
    2edc:	84 e0       	ldi	r24, 0x04	; 4
    2ede:	db c0       	rjmp	.+438    	; 0x3096 <dir_next+0x1e6>
    2ee0:	8e 85       	ldd	r24, Y+14	; 0x0e
    2ee2:	9f 85       	ldd	r25, Y+15	; 0x0f
    2ee4:	a8 89       	ldd	r26, Y+16	; 0x10
    2ee6:	b9 89       	ldd	r27, Y+17	; 0x11
    2ee8:	00 97       	sbiw	r24, 0x00	; 0
    2eea:	a1 05       	cpc	r26, r1
    2eec:	b1 05       	cpc	r27, r1
    2eee:	b1 f3       	breq	.-20     	; 0x2edc <dir_next+0x2c>
    2ef0:	78 01       	movw	r14, r16
    2ef2:	2f e0       	ldi	r18, 0x0F	; 15
    2ef4:	e2 22       	and	r14, r18
    2ef6:	ff 24       	eor	r15, r15
    2ef8:	e1 14       	cp	r14, r1
    2efa:	f1 04       	cpc	r15, r1
    2efc:	09 f0       	breq	.+2      	; 0x2f00 <dir_next+0x50>
    2efe:	b8 c0       	rjmp	.+368    	; 0x3070 <dir_next+0x1c0>
    2f00:	01 96       	adiw	r24, 0x01	; 1
    2f02:	a1 1d       	adc	r26, r1
    2f04:	b1 1d       	adc	r27, r1
    2f06:	8e 87       	std	Y+14, r24	; 0x0e
    2f08:	9f 87       	std	Y+15, r25	; 0x0f
    2f0a:	a8 8b       	std	Y+16, r26	; 0x10
    2f0c:	b9 8b       	std	Y+17, r27	; 0x11
    2f0e:	4a 85       	ldd	r20, Y+10	; 0x0a
    2f10:	5b 85       	ldd	r21, Y+11	; 0x0b
    2f12:	6c 85       	ldd	r22, Y+12	; 0x0c
    2f14:	7d 85       	ldd	r23, Y+13	; 0x0d
    2f16:	88 81       	ld	r24, Y
    2f18:	99 81       	ldd	r25, Y+1	; 0x01
    2f1a:	fc 01       	movw	r30, r24
    2f1c:	41 15       	cp	r20, r1
    2f1e:	51 05       	cpc	r21, r1
    2f20:	61 05       	cpc	r22, r1
    2f22:	71 05       	cpc	r23, r1
    2f24:	31 f4       	brne	.+12     	; 0x2f32 <dir_next+0x82>
    2f26:	80 85       	ldd	r24, Z+8	; 0x08
    2f28:	91 85       	ldd	r25, Z+9	; 0x09
    2f2a:	08 17       	cp	r16, r24
    2f2c:	19 07       	cpc	r17, r25
    2f2e:	b0 f6       	brcc	.-84     	; 0x2edc <dir_next+0x2c>
    2f30:	9f c0       	rjmp	.+318    	; 0x3070 <dir_next+0x1c0>
    2f32:	22 81       	ldd	r18, Z+2	; 0x02
    2f34:	30 e0       	ldi	r19, 0x00	; 0
    2f36:	21 50       	subi	r18, 0x01	; 1
    2f38:	31 09       	sbc	r19, r1
    2f3a:	f8 01       	movw	r30, r16
    2f3c:	a4 e0       	ldi	r26, 0x04	; 4
    2f3e:	f6 95       	lsr	r31
    2f40:	e7 95       	ror	r30
    2f42:	aa 95       	dec	r26
    2f44:	e1 f7       	brne	.-8      	; 0x2f3e <dir_next+0x8e>
    2f46:	2e 23       	and	r18, r30
    2f48:	3f 23       	and	r19, r31
    2f4a:	23 2b       	or	r18, r19
    2f4c:	09 f0       	breq	.+2      	; 0x2f50 <dir_next+0xa0>
    2f4e:	90 c0       	rjmp	.+288    	; 0x3070 <dir_next+0x1c0>
    2f50:	77 dc       	rcall	.-1810   	; 0x2840 <get_fat>
    2f52:	4b 01       	movw	r8, r22
    2f54:	5c 01       	movw	r10, r24
    2f56:	62 30       	cpi	r22, 0x02	; 2
    2f58:	71 05       	cpc	r23, r1
    2f5a:	81 05       	cpc	r24, r1
    2f5c:	91 05       	cpc	r25, r1
    2f5e:	10 f4       	brcc	.+4      	; 0x2f64 <dir_next+0xb4>
    2f60:	82 e0       	ldi	r24, 0x02	; 2
    2f62:	99 c0       	rjmp	.+306    	; 0x3096 <dir_next+0x1e6>
    2f64:	6f 3f       	cpi	r22, 0xFF	; 255
    2f66:	2f ef       	ldi	r18, 0xFF	; 255
    2f68:	72 07       	cpc	r23, r18
    2f6a:	82 07       	cpc	r24, r18
    2f6c:	92 07       	cpc	r25, r18
    2f6e:	11 f4       	brne	.+4      	; 0x2f74 <dir_next+0xc4>
    2f70:	81 e0       	ldi	r24, 0x01	; 1
    2f72:	91 c0       	rjmp	.+290    	; 0x3096 <dir_next+0x1e6>
    2f74:	88 81       	ld	r24, Y
    2f76:	99 81       	ldd	r25, Y+1	; 0x01
    2f78:	fc 01       	movw	r30, r24
    2f7a:	42 89       	ldd	r20, Z+18	; 0x12
    2f7c:	53 89       	ldd	r21, Z+19	; 0x13
    2f7e:	64 89       	ldd	r22, Z+20	; 0x14
    2f80:	75 89       	ldd	r23, Z+21	; 0x15
    2f82:	84 16       	cp	r8, r20
    2f84:	95 06       	cpc	r9, r21
    2f86:	a6 06       	cpc	r10, r22
    2f88:	b7 06       	cpc	r11, r23
    2f8a:	08 f4       	brcc	.+2      	; 0x2f8e <dir_next+0xde>
    2f8c:	64 c0       	rjmp	.+200    	; 0x3056 <dir_next+0x1a6>
    2f8e:	cd 28       	or	r12, r13
    2f90:	09 f4       	brne	.+2      	; 0x2f94 <dir_next+0xe4>
    2f92:	a4 cf       	rjmp	.-184    	; 0x2edc <dir_next+0x2c>
    2f94:	4a 85       	ldd	r20, Y+10	; 0x0a
    2f96:	5b 85       	ldd	r21, Y+11	; 0x0b
    2f98:	6c 85       	ldd	r22, Y+12	; 0x0c
    2f9a:	7d 85       	ldd	r23, Y+13	; 0x0d
    2f9c:	ac de       	rcall	.-680    	; 0x2cf6 <create_chain>
    2f9e:	4b 01       	movw	r8, r22
    2fa0:	5c 01       	movw	r10, r24
    2fa2:	61 15       	cp	r22, r1
    2fa4:	71 05       	cpc	r23, r1
    2fa6:	81 05       	cpc	r24, r1
    2fa8:	91 05       	cpc	r25, r1
    2faa:	09 f4       	brne	.+2      	; 0x2fae <dir_next+0xfe>
    2fac:	73 c0       	rjmp	.+230    	; 0x3094 <dir_next+0x1e4>
    2fae:	61 30       	cpi	r22, 0x01	; 1
    2fb0:	71 05       	cpc	r23, r1
    2fb2:	81 05       	cpc	r24, r1
    2fb4:	91 05       	cpc	r25, r1
    2fb6:	a1 f2       	breq	.-88     	; 0x2f60 <dir_next+0xb0>
    2fb8:	6f 3f       	cpi	r22, 0xFF	; 255
    2fba:	2f ef       	ldi	r18, 0xFF	; 255
    2fbc:	72 07       	cpc	r23, r18
    2fbe:	82 07       	cpc	r24, r18
    2fc0:	92 07       	cpc	r25, r18
    2fc2:	b1 f2       	breq	.-84     	; 0x2f70 <dir_next+0xc0>
    2fc4:	88 81       	ld	r24, Y
    2fc6:	99 81       	ldd	r25, Y+1	; 0x01
    2fc8:	68 d8       	rcall	.-3888   	; 0x209a <sync_window>
    2fca:	81 11       	cpse	r24, r1
    2fcc:	d1 cf       	rjmp	.-94     	; 0x2f70 <dir_next+0xc0>
    2fce:	88 81       	ld	r24, Y
    2fd0:	99 81       	ldd	r25, Y+1	; 0x01
    2fd2:	fc 01       	movw	r30, r24
    2fd4:	be 96       	adiw	r30, 0x2e	; 46
    2fd6:	82 5d       	subi	r24, 0xD2	; 210
    2fd8:	9d 4f       	sbci	r25, 0xFD	; 253
    2fda:	e8 17       	cp	r30, r24
    2fdc:	f9 07       	cpc	r31, r25
    2fde:	11 f0       	breq	.+4      	; 0x2fe4 <dir_next+0x134>
    2fe0:	11 92       	st	Z+, r1
    2fe2:	fb cf       	rjmp	.-10     	; 0x2fda <dir_next+0x12a>
    2fe4:	c8 80       	ld	r12, Y
    2fe6:	d9 80       	ldd	r13, Y+1	; 0x01
    2fe8:	b5 01       	movw	r22, r10
    2fea:	a4 01       	movw	r20, r8
    2fec:	c6 01       	movw	r24, r12
    2fee:	ff db       	rcall	.-2050   	; 0x27ee <clust2sect>
    2ff0:	f6 01       	movw	r30, r12
    2ff2:	62 a7       	std	Z+42, r22	; 0x2a
    2ff4:	73 a7       	std	Z+43, r23	; 0x2b
    2ff6:	84 a7       	std	Z+44, r24	; 0x2c
    2ff8:	95 a7       	std	Z+45, r25	; 0x2d
    2ffa:	c1 2c       	mov	r12, r1
    2ffc:	d1 2c       	mov	r13, r1
    2ffe:	77 24       	eor	r7, r7
    3000:	73 94       	inc	r7
    3002:	e8 81       	ld	r30, Y
    3004:	f9 81       	ldd	r31, Y+1	; 0x01
    3006:	82 81       	ldd	r24, Z+2	; 0x02
    3008:	90 e0       	ldi	r25, 0x00	; 0
    300a:	c8 16       	cp	r12, r24
    300c:	d9 06       	cpc	r13, r25
    300e:	b8 f4       	brcc	.+46     	; 0x303e <dir_next+0x18e>
    3010:	74 82       	std	Z+4, r7	; 0x04
    3012:	88 81       	ld	r24, Y
    3014:	99 81       	ldd	r25, Y+1	; 0x01
    3016:	41 d8       	rcall	.-3966   	; 0x209a <sync_window>
    3018:	81 11       	cpse	r24, r1
    301a:	aa cf       	rjmp	.-172    	; 0x2f70 <dir_next+0xc0>
    301c:	e8 81       	ld	r30, Y
    301e:	f9 81       	ldd	r31, Y+1	; 0x01
    3020:	82 a5       	ldd	r24, Z+42	; 0x2a
    3022:	93 a5       	ldd	r25, Z+43	; 0x2b
    3024:	a4 a5       	ldd	r26, Z+44	; 0x2c
    3026:	b5 a5       	ldd	r27, Z+45	; 0x2d
    3028:	01 96       	adiw	r24, 0x01	; 1
    302a:	a1 1d       	adc	r26, r1
    302c:	b1 1d       	adc	r27, r1
    302e:	82 a7       	std	Z+42, r24	; 0x2a
    3030:	93 a7       	std	Z+43, r25	; 0x2b
    3032:	a4 a7       	std	Z+44, r26	; 0x2c
    3034:	b5 a7       	std	Z+45, r27	; 0x2d
    3036:	ff ef       	ldi	r31, 0xFF	; 255
    3038:	cf 1a       	sub	r12, r31
    303a:	df 0a       	sbc	r13, r31
    303c:	e2 cf       	rjmp	.-60     	; 0x3002 <dir_next+0x152>
    303e:	82 a5       	ldd	r24, Z+42	; 0x2a
    3040:	93 a5       	ldd	r25, Z+43	; 0x2b
    3042:	a4 a5       	ldd	r26, Z+44	; 0x2c
    3044:	b5 a5       	ldd	r27, Z+45	; 0x2d
    3046:	8c 19       	sub	r24, r12
    3048:	9d 09       	sbc	r25, r13
    304a:	a1 09       	sbc	r26, r1
    304c:	b1 09       	sbc	r27, r1
    304e:	82 a7       	std	Z+42, r24	; 0x2a
    3050:	93 a7       	std	Z+43, r25	; 0x2b
    3052:	a4 a7       	std	Z+44, r26	; 0x2c
    3054:	b5 a7       	std	Z+45, r27	; 0x2d
    3056:	8a 86       	std	Y+10, r8	; 0x0a
    3058:	9b 86       	std	Y+11, r9	; 0x0b
    305a:	ac 86       	std	Y+12, r10	; 0x0c
    305c:	bd 86       	std	Y+13, r11	; 0x0d
    305e:	b5 01       	movw	r22, r10
    3060:	a4 01       	movw	r20, r8
    3062:	88 81       	ld	r24, Y
    3064:	99 81       	ldd	r25, Y+1	; 0x01
    3066:	c3 db       	rcall	.-2170   	; 0x27ee <clust2sect>
    3068:	6e 87       	std	Y+14, r22	; 0x0e
    306a:	7f 87       	std	Y+15, r23	; 0x0f
    306c:	88 8b       	std	Y+16, r24	; 0x10
    306e:	99 8b       	std	Y+17, r25	; 0x11
    3070:	1d 83       	std	Y+5, r17	; 0x05
    3072:	0c 83       	std	Y+4, r16	; 0x04
    3074:	75 e0       	ldi	r23, 0x05	; 5
    3076:	ee 0c       	add	r14, r14
    3078:	ff 1c       	adc	r15, r15
    307a:	7a 95       	dec	r23
    307c:	e1 f7       	brne	.-8      	; 0x3076 <dir_next+0x1c6>
    307e:	2e e2       	ldi	r18, 0x2E	; 46
    3080:	e2 0e       	add	r14, r18
    3082:	f1 1c       	adc	r15, r1
    3084:	88 81       	ld	r24, Y
    3086:	99 81       	ldd	r25, Y+1	; 0x01
    3088:	8e 0d       	add	r24, r14
    308a:	9f 1d       	adc	r25, r15
    308c:	9b 8b       	std	Y+19, r25	; 0x13
    308e:	8a 8b       	std	Y+18, r24	; 0x12
    3090:	80 e0       	ldi	r24, 0x00	; 0
    3092:	01 c0       	rjmp	.+2      	; 0x3096 <dir_next+0x1e6>
    3094:	87 e0       	ldi	r24, 0x07	; 7
    3096:	df 91       	pop	r29
    3098:	cf 91       	pop	r28
    309a:	1f 91       	pop	r17
    309c:	0f 91       	pop	r16
    309e:	ff 90       	pop	r15
    30a0:	ef 90       	pop	r14
    30a2:	df 90       	pop	r13
    30a4:	cf 90       	pop	r12
    30a6:	bf 90       	pop	r11
    30a8:	af 90       	pop	r10
    30aa:	9f 90       	pop	r9
    30ac:	8f 90       	pop	r8
    30ae:	7f 90       	pop	r7
    30b0:	08 95       	ret

000030b2 <follow_path>:
    30b2:	6f 92       	push	r6
    30b4:	7f 92       	push	r7
    30b6:	8f 92       	push	r8
    30b8:	9f 92       	push	r9
    30ba:	af 92       	push	r10
    30bc:	bf 92       	push	r11
    30be:	cf 92       	push	r12
    30c0:	df 92       	push	r13
    30c2:	ef 92       	push	r14
    30c4:	ff 92       	push	r15
    30c6:	0f 93       	push	r16
    30c8:	1f 93       	push	r17
    30ca:	cf 93       	push	r28
    30cc:	df 93       	push	r29
    30ce:	ec 01       	movw	r28, r24
    30d0:	8b 01       	movw	r16, r22
    30d2:	db 01       	movw	r26, r22
    30d4:	8c 91       	ld	r24, X
    30d6:	8f 32       	cpi	r24, 0x2F	; 47
    30d8:	11 f0       	breq	.+4      	; 0x30de <follow_path+0x2c>
    30da:	8c 35       	cpi	r24, 0x5C	; 92
    30dc:	11 f4       	brne	.+4      	; 0x30e2 <follow_path+0x30>
    30de:	0f 5f       	subi	r16, 0xFF	; 255
    30e0:	1f 4f       	sbci	r17, 0xFF	; 255
    30e2:	1e 82       	std	Y+6, r1	; 0x06
    30e4:	1f 82       	std	Y+7, r1	; 0x07
    30e6:	18 86       	std	Y+8, r1	; 0x08
    30e8:	19 86       	std	Y+9, r1	; 0x09
    30ea:	f8 01       	movw	r30, r16
    30ec:	80 81       	ld	r24, Z
    30ee:	80 32       	cpi	r24, 0x20	; 32
    30f0:	38 f4       	brcc	.+14     	; 0x3100 <follow_path+0x4e>
    30f2:	60 e0       	ldi	r22, 0x00	; 0
    30f4:	70 e0       	ldi	r23, 0x00	; 0
    30f6:	ce 01       	movw	r24, r28
    30f8:	67 dc       	rcall	.-1842   	; 0x29c8 <dir_sdi>
    30fa:	1b 8a       	std	Y+19, r1	; 0x13
    30fc:	1a 8a       	std	Y+18, r1	; 0x12
    30fe:	e5 c0       	rjmp	.+458    	; 0x32ca <follow_path+0x218>
    3100:	30 e2       	ldi	r19, 0x20	; 32
    3102:	a3 2e       	mov	r10, r19
    3104:	45 e0       	ldi	r20, 0x05	; 5
    3106:	b4 2e       	mov	r11, r20
    3108:	38 01       	movw	r6, r16
    310a:	d8 01       	movw	r26, r16
    310c:	8c 91       	ld	r24, X
    310e:	0f 5f       	subi	r16, 0xFF	; 255
    3110:	1f 4f       	sbci	r17, 0xFF	; 255
    3112:	8f 32       	cpi	r24, 0x2F	; 47
    3114:	c9 f3       	breq	.-14     	; 0x3108 <follow_path+0x56>
    3116:	8c 35       	cpi	r24, 0x5C	; 92
    3118:	b9 f3       	breq	.-18     	; 0x3108 <follow_path+0x56>
    311a:	ec 89       	ldd	r30, Y+20	; 0x14
    311c:	fd 89       	ldd	r31, Y+21	; 0x15
    311e:	cf 01       	movw	r24, r30
    3120:	9f 01       	movw	r18, r30
    3122:	25 5f       	subi	r18, 0xF5	; 245
    3124:	3f 4f       	sbci	r19, 0xFF	; 255
    3126:	82 17       	cp	r24, r18
    3128:	93 07       	cpc	r25, r19
    312a:	21 f0       	breq	.+8      	; 0x3134 <follow_path+0x82>
    312c:	dc 01       	movw	r26, r24
    312e:	ad 92       	st	X+, r10
    3130:	cd 01       	movw	r24, r26
    3132:	f9 cf       	rjmp	.-14     	; 0x3126 <follow_path+0x74>
    3134:	43 01       	movw	r8, r6
    3136:	80 e0       	ldi	r24, 0x00	; 0
    3138:	90 e0       	ldi	r25, 0x00	; 0
    313a:	60 e0       	ldi	r22, 0x00	; 0
    313c:	70 e0       	ldi	r23, 0x00	; 0
    313e:	28 e0       	ldi	r18, 0x08	; 8
    3140:	30 e0       	ldi	r19, 0x00	; 0
    3142:	50 e0       	ldi	r21, 0x00	; 0
    3144:	6f 5f       	subi	r22, 0xFF	; 255
    3146:	7f 4f       	sbci	r23, 0xFF	; 255
    3148:	d4 01       	movw	r26, r8
    314a:	4d 91       	ld	r20, X+
    314c:	4d 01       	movw	r8, r26
    314e:	41 32       	cpi	r20, 0x21	; 33
    3150:	18 f1       	brcs	.+70     	; 0x3198 <follow_path+0xe6>
    3152:	4f 32       	cpi	r20, 0x2F	; 47
    3154:	09 f1       	breq	.+66     	; 0x3198 <follow_path+0xe6>
    3156:	4c 35       	cpi	r20, 0x5C	; 92
    3158:	f9 f0       	breq	.+62     	; 0x3198 <follow_path+0xe6>
    315a:	4e 32       	cpi	r20, 0x2E	; 46
    315c:	09 f4       	brne	.+2      	; 0x3160 <follow_path+0xae>
    315e:	ab c0       	rjmp	.+342    	; 0x32b6 <follow_path+0x204>
    3160:	82 17       	cp	r24, r18
    3162:	93 07       	cpc	r25, r19
    3164:	08 f0       	brcs	.+2      	; 0x3168 <follow_path+0xb6>
    3166:	92 c0       	rjmp	.+292    	; 0x328c <follow_path+0x1da>
    3168:	47 ff       	sbrs	r20, 7
    316a:	07 c0       	rjmp	.+14     	; 0x317a <follow_path+0xc8>
    316c:	53 60       	ori	r21, 0x03	; 3
    316e:	04 2f       	mov	r16, r20
    3170:	10 e0       	ldi	r17, 0x00	; 0
    3172:	0b 54       	subi	r16, 0x4B	; 75
    3174:	1d 4f       	sbci	r17, 0xFD	; 253
    3176:	d8 01       	movw	r26, r16
    3178:	4c 91       	ld	r20, X
    317a:	e4 2e       	mov	r14, r20
    317c:	f1 2c       	mov	r15, r1
    317e:	06 e2       	ldi	r16, 0x26	; 38
    3180:	13 e0       	ldi	r17, 0x03	; 3
    3182:	d8 01       	movw	r26, r16
    3184:	cd 90       	ld	r12, X+
    3186:	8d 01       	movw	r16, r26
    3188:	cc 20       	and	r12, r12
    318a:	09 f4       	brne	.+2      	; 0x318e <follow_path+0xdc>
    318c:	81 c0       	rjmp	.+258    	; 0x3290 <follow_path+0x1de>
    318e:	d1 2c       	mov	r13, r1
    3190:	ce 14       	cp	r12, r14
    3192:	df 04       	cpc	r13, r15
    3194:	b1 f7       	brne	.-20     	; 0x3182 <follow_path+0xd0>
    3196:	7a c0       	rjmp	.+244    	; 0x328c <follow_path+0x1da>
    3198:	83 01       	movw	r16, r6
    319a:	06 0f       	add	r16, r22
    319c:	17 1f       	adc	r17, r23
    319e:	41 32       	cpi	r20, 0x21	; 33
    31a0:	10 f4       	brcc	.+4      	; 0x31a6 <follow_path+0xf4>
    31a2:	44 e0       	ldi	r20, 0x04	; 4
    31a4:	01 c0       	rjmp	.+2      	; 0x31a8 <follow_path+0xf6>
    31a6:	40 e0       	ldi	r20, 0x00	; 0
    31a8:	89 2b       	or	r24, r25
    31aa:	09 f4       	brne	.+2      	; 0x31ae <follow_path+0xfc>
    31ac:	6f c0       	rjmp	.+222    	; 0x328c <follow_path+0x1da>
    31ae:	80 81       	ld	r24, Z
    31b0:	85 3e       	cpi	r24, 0xE5	; 229
    31b2:	09 f4       	brne	.+2      	; 0x31b6 <follow_path+0x104>
    31b4:	b0 82       	st	Z, r11
    31b6:	28 30       	cpi	r18, 0x08	; 8
    31b8:	31 05       	cpc	r19, r1
    31ba:	11 f4       	brne	.+4      	; 0x31c0 <follow_path+0x10e>
    31bc:	55 0f       	add	r21, r21
    31be:	55 0f       	add	r21, r21
    31c0:	85 2f       	mov	r24, r21
    31c2:	83 70       	andi	r24, 0x03	; 3
    31c4:	81 30       	cpi	r24, 0x01	; 1
    31c6:	09 f4       	brne	.+2      	; 0x31ca <follow_path+0x118>
    31c8:	40 61       	ori	r20, 0x10	; 16
    31ca:	85 2f       	mov	r24, r21
    31cc:	8c 70       	andi	r24, 0x0C	; 12
    31ce:	84 30       	cpi	r24, 0x04	; 4
    31d0:	09 f4       	brne	.+2      	; 0x31d4 <follow_path+0x122>
    31d2:	48 60       	ori	r20, 0x08	; 8
    31d4:	43 87       	std	Z+11, r20	; 0x0b
    31d6:	60 e0       	ldi	r22, 0x00	; 0
    31d8:	70 e0       	ldi	r23, 0x00	; 0
    31da:	ce 01       	movw	r24, r28
    31dc:	f5 db       	rcall	.-2070   	; 0x29c8 <dir_sdi>
    31de:	81 11       	cpse	r24, r1
    31e0:	25 c0       	rjmp	.+74     	; 0x322c <follow_path+0x17a>
    31e2:	4e 85       	ldd	r20, Y+14	; 0x0e
    31e4:	5f 85       	ldd	r21, Y+15	; 0x0f
    31e6:	68 89       	ldd	r22, Y+16	; 0x10
    31e8:	79 89       	ldd	r23, Y+17	; 0x11
    31ea:	88 81       	ld	r24, Y
    31ec:	99 81       	ldd	r25, Y+1	; 0x01
    31ee:	0e 94 b3 10 	call	0x2166	; 0x2166 <move_window>
    31f2:	81 11       	cpse	r24, r1
    31f4:	1b c0       	rjmp	.+54     	; 0x322c <follow_path+0x17a>
    31f6:	ea 89       	ldd	r30, Y+18	; 0x12
    31f8:	fb 89       	ldd	r31, Y+19	; 0x13
    31fa:	80 81       	ld	r24, Z
    31fc:	88 23       	and	r24, r24
    31fe:	99 f0       	breq	.+38     	; 0x3226 <follow_path+0x174>
    3200:	83 85       	ldd	r24, Z+11	; 0x0b
    3202:	83 fd       	sbrc	r24, 3
    3204:	0b c0       	rjmp	.+22     	; 0x321c <follow_path+0x16a>
    3206:	ac 89       	ldd	r26, Y+20	; 0x14
    3208:	bd 89       	ldd	r27, Y+21	; 0x15
    320a:	cf 01       	movw	r24, r30
    320c:	0b 96       	adiw	r24, 0x0b	; 11
    320e:	e8 17       	cp	r30, r24
    3210:	f9 07       	cpc	r31, r25
    3212:	59 f0       	breq	.+22     	; 0x322a <follow_path+0x178>
    3214:	31 91       	ld	r19, Z+
    3216:	2d 91       	ld	r18, X+
    3218:	32 17       	cp	r19, r18
    321a:	c9 f3       	breq	.-14     	; 0x320e <follow_path+0x15c>
    321c:	60 e0       	ldi	r22, 0x00	; 0
    321e:	70 e0       	ldi	r23, 0x00	; 0
    3220:	ce 01       	movw	r24, r28
    3222:	46 de       	rcall	.-884    	; 0x2eb0 <dir_next>
    3224:	dc cf       	rjmp	.-72     	; 0x31de <follow_path+0x12c>
    3226:	84 e0       	ldi	r24, 0x04	; 4
    3228:	01 c0       	rjmp	.+2      	; 0x322c <follow_path+0x17a>
    322a:	80 e0       	ldi	r24, 0x00	; 0
    322c:	ec 89       	ldd	r30, Y+20	; 0x14
    322e:	fd 89       	ldd	r31, Y+21	; 0x15
    3230:	93 85       	ldd	r25, Z+11	; 0x0b
    3232:	88 23       	and	r24, r24
    3234:	31 f0       	breq	.+12     	; 0x3242 <follow_path+0x190>
    3236:	84 30       	cpi	r24, 0x04	; 4
    3238:	09 f0       	breq	.+2      	; 0x323c <follow_path+0x18a>
    323a:	47 c0       	rjmp	.+142    	; 0x32ca <follow_path+0x218>
    323c:	92 ff       	sbrs	r25, 2
    323e:	24 c0       	rjmp	.+72     	; 0x3288 <follow_path+0x1d6>
    3240:	44 c0       	rjmp	.+136    	; 0x32ca <follow_path+0x218>
    3242:	92 fd       	sbrc	r25, 2
    3244:	42 c0       	rjmp	.+132    	; 0x32ca <follow_path+0x218>
    3246:	4a 89       	ldd	r20, Y+18	; 0x12
    3248:	5b 89       	ldd	r21, Y+19	; 0x13
    324a:	fa 01       	movw	r30, r20
    324c:	83 85       	ldd	r24, Z+11	; 0x0b
    324e:	84 ff       	sbrs	r24, 4
    3250:	1b c0       	rjmp	.+54     	; 0x3288 <follow_path+0x1d6>
    3252:	82 8d       	ldd	r24, Z+26	; 0x1a
    3254:	93 8d       	ldd	r25, Z+27	; 0x1b
    3256:	a0 e0       	ldi	r26, 0x00	; 0
    3258:	b0 e0       	ldi	r27, 0x00	; 0
    325a:	28 81       	ld	r18, Y
    325c:	39 81       	ldd	r19, Y+1	; 0x01
    325e:	f9 01       	movw	r30, r18
    3260:	20 81       	ld	r18, Z
    3262:	23 30       	cpi	r18, 0x03	; 3
    3264:	61 f4       	brne	.+24     	; 0x327e <follow_path+0x1cc>
    3266:	fa 01       	movw	r30, r20
    3268:	44 89       	ldd	r20, Z+20	; 0x14
    326a:	55 89       	ldd	r21, Z+21	; 0x15
    326c:	60 e0       	ldi	r22, 0x00	; 0
    326e:	70 e0       	ldi	r23, 0x00	; 0
    3270:	ba 01       	movw	r22, r20
    3272:	55 27       	eor	r21, r21
    3274:	44 27       	eor	r20, r20
    3276:	84 2b       	or	r24, r20
    3278:	95 2b       	or	r25, r21
    327a:	a6 2b       	or	r26, r22
    327c:	b7 2b       	or	r27, r23
    327e:	8e 83       	std	Y+6, r24	; 0x06
    3280:	9f 83       	std	Y+7, r25	; 0x07
    3282:	a8 87       	std	Y+8, r26	; 0x08
    3284:	b9 87       	std	Y+9, r27	; 0x09
    3286:	40 cf       	rjmp	.-384    	; 0x3108 <follow_path+0x56>
    3288:	85 e0       	ldi	r24, 0x05	; 5
    328a:	1f c0       	rjmp	.+62     	; 0x32ca <follow_path+0x218>
    328c:	86 e0       	ldi	r24, 0x06	; 6
    328e:	1d c0       	rjmp	.+58     	; 0x32ca <follow_path+0x218>
    3290:	1f eb       	ldi	r17, 0xBF	; 191
    3292:	14 0f       	add	r17, r20
    3294:	1a 31       	cpi	r17, 0x1A	; 26
    3296:	10 f4       	brcc	.+4      	; 0x329c <follow_path+0x1ea>
    3298:	52 60       	ori	r21, 0x02	; 2
    329a:	06 c0       	rjmp	.+12     	; 0x32a8 <follow_path+0x1f6>
    329c:	1f e9       	ldi	r17, 0x9F	; 159
    329e:	14 0f       	add	r17, r20
    32a0:	1a 31       	cpi	r17, 0x1A	; 26
    32a2:	10 f4       	brcc	.+4      	; 0x32a8 <follow_path+0x1f6>
    32a4:	51 60       	ori	r21, 0x01	; 1
    32a6:	40 52       	subi	r20, 0x20	; 32
    32a8:	7f 01       	movw	r14, r30
    32aa:	e8 0e       	add	r14, r24
    32ac:	f9 1e       	adc	r15, r25
    32ae:	d7 01       	movw	r26, r14
    32b0:	4c 93       	st	X, r20
    32b2:	01 96       	adiw	r24, 0x01	; 1
    32b4:	47 cf       	rjmp	.-370    	; 0x3144 <follow_path+0x92>
    32b6:	28 30       	cpi	r18, 0x08	; 8
    32b8:	31 05       	cpc	r19, r1
    32ba:	41 f7       	brne	.-48     	; 0x328c <follow_path+0x1da>
    32bc:	55 0f       	add	r21, r21
    32be:	55 0f       	add	r21, r21
    32c0:	88 e0       	ldi	r24, 0x08	; 8
    32c2:	90 e0       	ldi	r25, 0x00	; 0
    32c4:	2b e0       	ldi	r18, 0x0B	; 11
    32c6:	30 e0       	ldi	r19, 0x00	; 0
    32c8:	3d cf       	rjmp	.-390    	; 0x3144 <follow_path+0x92>
    32ca:	df 91       	pop	r29
    32cc:	cf 91       	pop	r28
    32ce:	1f 91       	pop	r17
    32d0:	0f 91       	pop	r16
    32d2:	ff 90       	pop	r15
    32d4:	ef 90       	pop	r14
    32d6:	df 90       	pop	r13
    32d8:	cf 90       	pop	r12
    32da:	bf 90       	pop	r11
    32dc:	af 90       	pop	r10
    32de:	9f 90       	pop	r9
    32e0:	8f 90       	pop	r8
    32e2:	7f 90       	pop	r7
    32e4:	6f 90       	pop	r6
    32e6:	08 95       	ret

000032e8 <dir_register>:
    32e8:	1f 93       	push	r17
    32ea:	cf 93       	push	r28
    32ec:	df 93       	push	r29
    32ee:	ec 01       	movw	r28, r24
    32f0:	60 e0       	ldi	r22, 0x00	; 0
    32f2:	70 e0       	ldi	r23, 0x00	; 0
    32f4:	69 db       	rcall	.-2350   	; 0x29c8 <dir_sdi>
    32f6:	18 2f       	mov	r17, r24
    32f8:	81 11       	cpse	r24, r1
    32fa:	17 c0       	rjmp	.+46     	; 0x332a <dir_register+0x42>
    32fc:	4e 85       	ldd	r20, Y+14	; 0x0e
    32fe:	5f 85       	ldd	r21, Y+15	; 0x0f
    3300:	68 89       	ldd	r22, Y+16	; 0x10
    3302:	79 89       	ldd	r23, Y+17	; 0x11
    3304:	88 81       	ld	r24, Y
    3306:	99 81       	ldd	r25, Y+1	; 0x01
    3308:	0e 94 b3 10 	call	0x2166	; 0x2166 <move_window>
    330c:	18 2f       	mov	r17, r24
    330e:	81 11       	cpse	r24, r1
    3310:	0c c0       	rjmp	.+24     	; 0x332a <dir_register+0x42>
    3312:	ea 89       	ldd	r30, Y+18	; 0x12
    3314:	fb 89       	ldd	r31, Y+19	; 0x13
    3316:	80 81       	ld	r24, Z
    3318:	85 3e       	cpi	r24, 0xE5	; 229
    331a:	59 f0       	breq	.+22     	; 0x3332 <dir_register+0x4a>
    331c:	88 23       	and	r24, r24
    331e:	49 f0       	breq	.+18     	; 0x3332 <dir_register+0x4a>
    3320:	61 e0       	ldi	r22, 0x01	; 1
    3322:	70 e0       	ldi	r23, 0x00	; 0
    3324:	ce 01       	movw	r24, r28
    3326:	c4 dd       	rcall	.-1144   	; 0x2eb0 <dir_next>
    3328:	e6 cf       	rjmp	.-52     	; 0x32f6 <dir_register+0xe>
    332a:	14 30       	cpi	r17, 0x04	; 4
    332c:	19 f5       	brne	.+70     	; 0x3374 <dir_register+0x8c>
    332e:	17 e0       	ldi	r17, 0x07	; 7
    3330:	21 c0       	rjmp	.+66     	; 0x3374 <dir_register+0x8c>
    3332:	4e 85       	ldd	r20, Y+14	; 0x0e
    3334:	5f 85       	ldd	r21, Y+15	; 0x0f
    3336:	68 89       	ldd	r22, Y+16	; 0x10
    3338:	79 89       	ldd	r23, Y+17	; 0x11
    333a:	88 81       	ld	r24, Y
    333c:	99 81       	ldd	r25, Y+1	; 0x01
    333e:	0e 94 b3 10 	call	0x2166	; 0x2166 <move_window>
    3342:	18 2f       	mov	r17, r24
    3344:	81 11       	cpse	r24, r1
    3346:	16 c0       	rjmp	.+44     	; 0x3374 <dir_register+0x8c>
    3348:	ea 89       	ldd	r30, Y+18	; 0x12
    334a:	fb 89       	ldd	r31, Y+19	; 0x13
    334c:	9f 01       	movw	r18, r30
    334e:	20 5e       	subi	r18, 0xE0	; 224
    3350:	3f 4f       	sbci	r19, 0xFF	; 255
    3352:	e2 17       	cp	r30, r18
    3354:	f3 07       	cpc	r31, r19
    3356:	11 f0       	breq	.+4      	; 0x335c <dir_register+0x74>
    3358:	11 92       	st	Z+, r1
    335a:	fb cf       	rjmp	.-10     	; 0x3352 <dir_register+0x6a>
    335c:	6c 89       	ldd	r22, Y+20	; 0x14
    335e:	7d 89       	ldd	r23, Y+21	; 0x15
    3360:	4b e0       	ldi	r20, 0x0B	; 11
    3362:	50 e0       	ldi	r21, 0x00	; 0
    3364:	8a 89       	ldd	r24, Y+18	; 0x12
    3366:	9b 89       	ldd	r25, Y+19	; 0x13
    3368:	0e 94 a5 0f 	call	0x1f4a	; 0x1f4a <mem_cpy>
    336c:	e8 81       	ld	r30, Y
    336e:	f9 81       	ldd	r31, Y+1	; 0x01
    3370:	81 e0       	ldi	r24, 0x01	; 1
    3372:	84 83       	std	Z+4, r24	; 0x04
    3374:	81 2f       	mov	r24, r17
    3376:	df 91       	pop	r29
    3378:	cf 91       	pop	r28
    337a:	1f 91       	pop	r17
    337c:	08 95       	ret

0000337e <remove_chain>:
    337e:	8f 92       	push	r8
    3380:	9f 92       	push	r9
    3382:	af 92       	push	r10
    3384:	bf 92       	push	r11
    3386:	cf 92       	push	r12
    3388:	df 92       	push	r13
    338a:	ef 92       	push	r14
    338c:	ff 92       	push	r15
    338e:	0f 93       	push	r16
    3390:	1f 93       	push	r17
    3392:	cf 93       	push	r28
    3394:	df 93       	push	r29
    3396:	ec 01       	movw	r28, r24
    3398:	6a 01       	movw	r12, r20
    339a:	7b 01       	movw	r14, r22
    339c:	42 30       	cpi	r20, 0x02	; 2
    339e:	51 05       	cpc	r21, r1
    33a0:	61 05       	cpc	r22, r1
    33a2:	71 05       	cpc	r23, r1
    33a4:	08 f4       	brcc	.+2      	; 0x33a8 <remove_chain+0x2a>
    33a6:	4f c0       	rjmp	.+158    	; 0x3446 <remove_chain+0xc8>
    33a8:	4a 89       	ldd	r20, Y+18	; 0x12
    33aa:	5b 89       	ldd	r21, Y+19	; 0x13
    33ac:	6c 89       	ldd	r22, Y+20	; 0x14
    33ae:	7d 89       	ldd	r23, Y+21	; 0x15
    33b0:	c4 16       	cp	r12, r20
    33b2:	d5 06       	cpc	r13, r21
    33b4:	e6 06       	cpc	r14, r22
    33b6:	f7 06       	cpc	r15, r23
    33b8:	08 f0       	brcs	.+2      	; 0x33bc <remove_chain+0x3e>
    33ba:	45 c0       	rjmp	.+138    	; 0x3446 <remove_chain+0xc8>
    33bc:	4a 89       	ldd	r20, Y+18	; 0x12
    33be:	5b 89       	ldd	r21, Y+19	; 0x13
    33c0:	6c 89       	ldd	r22, Y+20	; 0x14
    33c2:	7d 89       	ldd	r23, Y+21	; 0x15
    33c4:	c4 16       	cp	r12, r20
    33c6:	d5 06       	cpc	r13, r21
    33c8:	e6 06       	cpc	r14, r22
    33ca:	f7 06       	cpc	r15, r23
    33cc:	58 f4       	brcc	.+22     	; 0x33e4 <remove_chain+0x66>
    33ce:	b7 01       	movw	r22, r14
    33d0:	a6 01       	movw	r20, r12
    33d2:	ce 01       	movw	r24, r28
    33d4:	35 da       	rcall	.-2966   	; 0x2840 <get_fat>
    33d6:	4b 01       	movw	r8, r22
    33d8:	5c 01       	movw	r10, r24
    33da:	61 15       	cp	r22, r1
    33dc:	71 05       	cpc	r23, r1
    33de:	81 05       	cpc	r24, r1
    33e0:	91 05       	cpc	r25, r1
    33e2:	11 f4       	brne	.+4      	; 0x33e8 <remove_chain+0x6a>
    33e4:	80 e0       	ldi	r24, 0x00	; 0
    33e6:	30 c0       	rjmp	.+96     	; 0x3448 <remove_chain+0xca>
    33e8:	81 e0       	ldi	r24, 0x01	; 1
    33ea:	88 16       	cp	r8, r24
    33ec:	91 04       	cpc	r9, r1
    33ee:	a1 04       	cpc	r10, r1
    33f0:	b1 04       	cpc	r11, r1
    33f2:	49 f1       	breq	.+82     	; 0x3446 <remove_chain+0xc8>
    33f4:	8f ef       	ldi	r24, 0xFF	; 255
    33f6:	88 16       	cp	r8, r24
    33f8:	98 06       	cpc	r9, r24
    33fa:	a8 06       	cpc	r10, r24
    33fc:	b8 06       	cpc	r11, r24
    33fe:	09 f1       	breq	.+66     	; 0x3442 <remove_chain+0xc4>
    3400:	00 e0       	ldi	r16, 0x00	; 0
    3402:	10 e0       	ldi	r17, 0x00	; 0
    3404:	98 01       	movw	r18, r16
    3406:	b7 01       	movw	r22, r14
    3408:	a6 01       	movw	r20, r12
    340a:	ce 01       	movw	r24, r28
    340c:	82 db       	rcall	.-2300   	; 0x2b12 <put_fat>
    340e:	81 11       	cpse	r24, r1
    3410:	1b c0       	rjmp	.+54     	; 0x3448 <remove_chain+0xca>
    3412:	4e 85       	ldd	r20, Y+14	; 0x0e
    3414:	5f 85       	ldd	r21, Y+15	; 0x0f
    3416:	68 89       	ldd	r22, Y+16	; 0x10
    3418:	79 89       	ldd	r23, Y+17	; 0x11
    341a:	4f 3f       	cpi	r20, 0xFF	; 255
    341c:	8f ef       	ldi	r24, 0xFF	; 255
    341e:	58 07       	cpc	r21, r24
    3420:	68 07       	cpc	r22, r24
    3422:	78 07       	cpc	r23, r24
    3424:	59 f0       	breq	.+22     	; 0x343c <remove_chain+0xbe>
    3426:	4f 5f       	subi	r20, 0xFF	; 255
    3428:	5f 4f       	sbci	r21, 0xFF	; 255
    342a:	6f 4f       	sbci	r22, 0xFF	; 255
    342c:	7f 4f       	sbci	r23, 0xFF	; 255
    342e:	4e 87       	std	Y+14, r20	; 0x0e
    3430:	5f 87       	std	Y+15, r21	; 0x0f
    3432:	68 8b       	std	Y+16, r22	; 0x10
    3434:	79 8b       	std	Y+17, r23	; 0x11
    3436:	8d 81       	ldd	r24, Y+5	; 0x05
    3438:	81 60       	ori	r24, 0x01	; 1
    343a:	8d 83       	std	Y+5, r24	; 0x05
    343c:	75 01       	movw	r14, r10
    343e:	64 01       	movw	r12, r8
    3440:	bd cf       	rjmp	.-134    	; 0x33bc <remove_chain+0x3e>
    3442:	81 e0       	ldi	r24, 0x01	; 1
    3444:	01 c0       	rjmp	.+2      	; 0x3448 <remove_chain+0xca>
    3446:	82 e0       	ldi	r24, 0x02	; 2
    3448:	df 91       	pop	r29
    344a:	cf 91       	pop	r28
    344c:	1f 91       	pop	r17
    344e:	0f 91       	pop	r16
    3450:	ff 90       	pop	r15
    3452:	ef 90       	pop	r14
    3454:	df 90       	pop	r13
    3456:	cf 90       	pop	r12
    3458:	bf 90       	pop	r11
    345a:	af 90       	pop	r10
    345c:	9f 90       	pop	r9
    345e:	8f 90       	pop	r8
    3460:	08 95       	ret

00003462 <f_mount>:
    3462:	cf 93       	push	r28
    3464:	df 93       	push	r29
    3466:	cd b7       	in	r28, 0x3d	; 61
    3468:	de b7       	in	r29, 0x3e	; 62
    346a:	27 97       	sbiw	r28, 0x07	; 7
    346c:	0f b6       	in	r0, 0x3f	; 63
    346e:	f8 94       	cli
    3470:	de bf       	out	0x3e, r29	; 62
    3472:	0f be       	out	0x3f, r0	; 63
    3474:	cd bf       	out	0x3d, r28	; 61
    3476:	9c 83       	std	Y+4, r25	; 0x04
    3478:	8b 83       	std	Y+3, r24	; 0x03
    347a:	7e 83       	std	Y+6, r23	; 0x06
    347c:	6d 83       	std	Y+5, r22	; 0x05
    347e:	7a 83       	std	Y+2, r23	; 0x02
    3480:	69 83       	std	Y+1, r22	; 0x01
    3482:	ce 01       	movw	r24, r28
    3484:	01 96       	adiw	r24, 0x01	; 1
    3486:	4f 83       	std	Y+7, r20	; 0x07
    3488:	0e 94 10 10 	call	0x2020	; 0x2020 <get_ldnumber>
    348c:	4f 81       	ldd	r20, Y+7	; 0x07
    348e:	97 fd       	sbrc	r25, 7
    3490:	24 c0       	rjmp	.+72     	; 0x34da <f_mount+0x78>
    3492:	88 0f       	add	r24, r24
    3494:	99 1f       	adc	r25, r25
    3496:	fc 01       	movw	r30, r24
    3498:	ea 5c       	subi	r30, 0xCA	; 202
    349a:	f9 4f       	sbci	r31, 0xF9	; 249
    349c:	01 90       	ld	r0, Z+
    349e:	f0 81       	ld	r31, Z
    34a0:	e0 2d       	mov	r30, r0
    34a2:	30 97       	sbiw	r30, 0x00	; 0
    34a4:	09 f0       	breq	.+2      	; 0x34a8 <f_mount+0x46>
    34a6:	10 82       	st	Z, r1
    34a8:	eb 81       	ldd	r30, Y+3	; 0x03
    34aa:	fc 81       	ldd	r31, Y+4	; 0x04
    34ac:	30 97       	sbiw	r30, 0x00	; 0
    34ae:	09 f0       	breq	.+2      	; 0x34b2 <f_mount+0x50>
    34b0:	10 82       	st	Z, r1
    34b2:	2b 81       	ldd	r18, Y+3	; 0x03
    34b4:	3c 81       	ldd	r19, Y+4	; 0x04
    34b6:	fc 01       	movw	r30, r24
    34b8:	ea 5c       	subi	r30, 0xCA	; 202
    34ba:	f9 4f       	sbci	r31, 0xF9	; 249
    34bc:	31 83       	std	Z+1, r19	; 0x01
    34be:	20 83       	st	Z, r18
    34c0:	23 2b       	or	r18, r19
    34c2:	69 f0       	breq	.+26     	; 0x34de <f_mount+0x7c>
    34c4:	41 30       	cpi	r20, 0x01	; 1
    34c6:	59 f4       	brne	.+22     	; 0x34de <f_mount+0x7c>
    34c8:	40 e0       	ldi	r20, 0x00	; 0
    34ca:	be 01       	movw	r22, r28
    34cc:	6b 5f       	subi	r22, 0xFB	; 251
    34ce:	7f 4f       	sbci	r23, 0xFF	; 255
    34d0:	ce 01       	movw	r24, r28
    34d2:	03 96       	adiw	r24, 0x03	; 3
    34d4:	0e 94 2b 11 	call	0x2256	; 0x2256 <find_volume>
    34d8:	03 c0       	rjmp	.+6      	; 0x34e0 <f_mount+0x7e>
    34da:	8b e0       	ldi	r24, 0x0B	; 11
    34dc:	01 c0       	rjmp	.+2      	; 0x34e0 <f_mount+0x7e>
    34de:	80 e0       	ldi	r24, 0x00	; 0
    34e0:	27 96       	adiw	r28, 0x07	; 7
    34e2:	0f b6       	in	r0, 0x3f	; 63
    34e4:	f8 94       	cli
    34e6:	de bf       	out	0x3e, r29	; 62
    34e8:	0f be       	out	0x3f, r0	; 63
    34ea:	cd bf       	out	0x3d, r28	; 61
    34ec:	df 91       	pop	r29
    34ee:	cf 91       	pop	r28
    34f0:	08 95       	ret

000034f2 <f_open>:
    34f2:	4f 92       	push	r4
    34f4:	5f 92       	push	r5
    34f6:	6f 92       	push	r6
    34f8:	7f 92       	push	r7
    34fa:	9f 92       	push	r9
    34fc:	af 92       	push	r10
    34fe:	bf 92       	push	r11
    3500:	cf 92       	push	r12
    3502:	df 92       	push	r13
    3504:	ef 92       	push	r14
    3506:	ff 92       	push	r15
    3508:	0f 93       	push	r16
    350a:	1f 93       	push	r17
    350c:	cf 93       	push	r28
    350e:	df 93       	push	r29
    3510:	cd b7       	in	r28, 0x3d	; 61
    3512:	de b7       	in	r29, 0x3e	; 62
    3514:	a4 97       	sbiw	r28, 0x24	; 36
    3516:	0f b6       	in	r0, 0x3f	; 63
    3518:	f8 94       	cli
    351a:	de bf       	out	0x3e, r29	; 62
    351c:	0f be       	out	0x3f, r0	; 63
    351e:	cd bf       	out	0x3d, r28	; 61
    3520:	5c 01       	movw	r10, r24
    3522:	7c a3       	std	Y+36, r23	; 0x24
    3524:	6b a3       	std	Y+35, r22	; 0x23
    3526:	f4 2e       	mov	r15, r20
    3528:	00 97       	sbiw	r24, 0x00	; 0
    352a:	09 f4       	brne	.+2      	; 0x352e <f_open+0x3c>
    352c:	ef c0       	rjmp	.+478    	; 0x370c <f_open+0x21a>
    352e:	dc 01       	movw	r26, r24
    3530:	1d 92       	st	X+, r1
    3532:	1c 92       	st	X, r1
    3534:	4e 71       	andi	r20, 0x1E	; 30
    3536:	be 01       	movw	r22, r28
    3538:	6d 5d       	subi	r22, 0xDD	; 221
    353a:	7f 4f       	sbci	r23, 0xFF	; 255
    353c:	ce 01       	movw	r24, r28
    353e:	01 96       	adiw	r24, 0x01	; 1
    3540:	0e 94 2b 11 	call	0x2256	; 0x2256 <find_volume>
    3544:	81 11       	cpse	r24, r1
    3546:	e9 c0       	rjmp	.+466    	; 0x371a <f_open+0x228>
    3548:	ce 01       	movw	r24, r28
    354a:	47 96       	adiw	r24, 0x17	; 23
    354c:	9e 8b       	std	Y+22, r25	; 0x16
    354e:	8d 8b       	std	Y+21, r24	; 0x15
    3550:	6b a1       	ldd	r22, Y+35	; 0x23
    3552:	7c a1       	ldd	r23, Y+36	; 0x24
    3554:	46 97       	sbiw	r24, 0x16	; 22
    3556:	ad dd       	rcall	.-1190   	; 0x30b2 <follow_path>
    3558:	0b 89       	ldd	r16, Y+19	; 0x13
    355a:	1c 89       	ldd	r17, Y+20	; 0x14
    355c:	81 11       	cpse	r24, r1
    355e:	04 c0       	rjmp	.+8      	; 0x3568 <f_open+0x76>
    3560:	01 15       	cp	r16, r1
    3562:	11 05       	cpc	r17, r1
    3564:	09 f4       	brne	.+2      	; 0x3568 <f_open+0x76>
    3566:	86 e0       	ldi	r24, 0x06	; 6
    3568:	bf 2d       	mov	r27, r15
    356a:	bf 71       	andi	r27, 0x1F	; 31
    356c:	9b 2e       	mov	r9, r27
    356e:	9f 2d       	mov	r25, r15
    3570:	9c 71       	andi	r25, 0x1C	; 28
    3572:	09 f4       	brne	.+2      	; 0x3576 <f_open+0x84>
    3574:	6d c0       	rjmp	.+218    	; 0x3650 <f_open+0x15e>
    3576:	88 23       	and	r24, r24
    3578:	69 f0       	breq	.+26     	; 0x3594 <f_open+0xa2>
    357a:	84 30       	cpi	r24, 0x04	; 4
    357c:	19 f4       	brne	.+6      	; 0x3584 <f_open+0x92>
    357e:	ce 01       	movw	r24, r28
    3580:	01 96       	adiw	r24, 0x01	; 1
    3582:	b2 de       	rcall	.-668    	; 0x32e8 <dir_register>
    3584:	e9 2d       	mov	r30, r9
    3586:	e8 60       	ori	r30, 0x08	; 8
    3588:	9e 2e       	mov	r9, r30
    358a:	0b 89       	ldd	r16, Y+19	; 0x13
    358c:	1c 89       	ldd	r17, Y+20	; 0x14
    358e:	88 23       	and	r24, r24
    3590:	49 f0       	breq	.+18     	; 0x35a4 <f_open+0xb2>
    3592:	c3 c0       	rjmp	.+390    	; 0x371a <f_open+0x228>
    3594:	d8 01       	movw	r26, r16
    3596:	1b 96       	adiw	r26, 0x0b	; 11
    3598:	8c 91       	ld	r24, X
    359a:	81 71       	andi	r24, 0x11	; 17
    359c:	09 f0       	breq	.+2      	; 0x35a0 <f_open+0xae>
    359e:	bc c0       	rjmp	.+376    	; 0x3718 <f_open+0x226>
    35a0:	f2 fc       	sbrc	r15, 2
    35a2:	b6 c0       	rjmp	.+364    	; 0x3710 <f_open+0x21e>
    35a4:	93 fe       	sbrs	r9, 3
    35a6:	5f c0       	rjmp	.+190    	; 0x3666 <f_open+0x174>
    35a8:	80 e0       	ldi	r24, 0x00	; 0
    35aa:	90 e0       	ldi	r25, 0x00	; 0
    35ac:	a9 e6       	ldi	r26, 0x69	; 105
    35ae:	b5 e4       	ldi	r27, 0x45	; 69
    35b0:	f8 01       	movw	r30, r16
    35b2:	86 87       	std	Z+14, r24	; 0x0e
    35b4:	97 87       	std	Z+15, r25	; 0x0f
    35b6:	a0 8b       	std	Z+16, r26	; 0x10
    35b8:	b1 8b       	std	Z+17, r27	; 0x11
    35ba:	13 86       	std	Z+11, r1	; 0x0b
    35bc:	d8 01       	movw	r26, r16
    35be:	14 8e       	std	Z+28, r1	; 0x1c
    35c0:	15 8e       	std	Z+29, r1	; 0x1d
    35c2:	16 8e       	std	Z+30, r1	; 0x1e
    35c4:	17 8e       	std	Z+31, r1	; 0x1f
    35c6:	e9 81       	ldd	r30, Y+1	; 0x01
    35c8:	fa 81       	ldd	r31, Y+2	; 0x02
    35ca:	5a 96       	adiw	r26, 0x1a	; 26
    35cc:	cd 90       	ld	r12, X+
    35ce:	dc 90       	ld	r13, X
    35d0:	5b 97       	sbiw	r26, 0x1b	; 27
    35d2:	e1 2c       	mov	r14, r1
    35d4:	f1 2c       	mov	r15, r1
    35d6:	80 81       	ld	r24, Z
    35d8:	83 30       	cpi	r24, 0x03	; 3
    35da:	69 f4       	brne	.+26     	; 0x35f6 <f_open+0x104>
    35dc:	54 96       	adiw	r26, 0x14	; 20
    35de:	4d 91       	ld	r20, X+
    35e0:	5c 91       	ld	r21, X
    35e2:	55 97       	sbiw	r26, 0x15	; 21
    35e4:	60 e0       	ldi	r22, 0x00	; 0
    35e6:	70 e0       	ldi	r23, 0x00	; 0
    35e8:	ba 01       	movw	r22, r20
    35ea:	55 27       	eor	r21, r21
    35ec:	44 27       	eor	r20, r20
    35ee:	c4 2a       	or	r12, r20
    35f0:	d5 2a       	or	r13, r21
    35f2:	e6 2a       	or	r14, r22
    35f4:	f7 2a       	or	r15, r23
    35f6:	d8 01       	movw	r26, r16
    35f8:	5b 96       	adiw	r26, 0x1b	; 27
    35fa:	1c 92       	st	X, r1
    35fc:	1e 92       	st	-X, r1
    35fe:	5a 97       	sbiw	r26, 0x1a	; 26
    3600:	55 96       	adiw	r26, 0x15	; 21
    3602:	1c 92       	st	X, r1
    3604:	1e 92       	st	-X, r1
    3606:	54 97       	sbiw	r26, 0x14	; 20
    3608:	81 e0       	ldi	r24, 0x01	; 1
    360a:	84 83       	std	Z+4, r24	; 0x04
    360c:	c1 14       	cp	r12, r1
    360e:	d1 04       	cpc	r13, r1
    3610:	e1 04       	cpc	r14, r1
    3612:	f1 04       	cpc	r15, r1
    3614:	41 f1       	breq	.+80     	; 0x3666 <f_open+0x174>
    3616:	42 a4       	ldd	r4, Z+42	; 0x2a
    3618:	53 a4       	ldd	r5, Z+43	; 0x2b
    361a:	64 a4       	ldd	r6, Z+44	; 0x2c
    361c:	75 a4       	ldd	r7, Z+45	; 0x2d
    361e:	b7 01       	movw	r22, r14
    3620:	a6 01       	movw	r20, r12
    3622:	cf 01       	movw	r24, r30
    3624:	ac de       	rcall	.-680    	; 0x337e <remove_chain>
    3626:	81 11       	cpse	r24, r1
    3628:	78 c0       	rjmp	.+240    	; 0x371a <f_open+0x228>
    362a:	89 81       	ldd	r24, Y+1	; 0x01
    362c:	9a 81       	ldd	r25, Y+2	; 0x02
    362e:	b1 e0       	ldi	r27, 0x01	; 1
    3630:	cb 1a       	sub	r12, r27
    3632:	d1 08       	sbc	r13, r1
    3634:	e1 08       	sbc	r14, r1
    3636:	f1 08       	sbc	r15, r1
    3638:	fc 01       	movw	r30, r24
    363a:	c2 86       	std	Z+10, r12	; 0x0a
    363c:	d3 86       	std	Z+11, r13	; 0x0b
    363e:	e4 86       	std	Z+12, r14	; 0x0c
    3640:	f5 86       	std	Z+13, r15	; 0x0d
    3642:	b3 01       	movw	r22, r6
    3644:	a2 01       	movw	r20, r4
    3646:	0e 94 b3 10 	call	0x2166	; 0x2166 <move_window>
    364a:	88 23       	and	r24, r24
    364c:	61 f0       	breq	.+24     	; 0x3666 <f_open+0x174>
    364e:	65 c0       	rjmp	.+202    	; 0x371a <f_open+0x228>
    3650:	81 11       	cpse	r24, r1
    3652:	63 c0       	rjmp	.+198    	; 0x371a <f_open+0x228>
    3654:	d8 01       	movw	r26, r16
    3656:	1b 96       	adiw	r26, 0x0b	; 11
    3658:	8c 91       	ld	r24, X
    365a:	84 fd       	sbrc	r24, 4
    365c:	5b c0       	rjmp	.+182    	; 0x3714 <f_open+0x222>
    365e:	f1 fe       	sbrs	r15, 1
    3660:	02 c0       	rjmp	.+4      	; 0x3666 <f_open+0x174>
    3662:	80 fd       	sbrc	r24, 0
    3664:	59 c0       	rjmp	.+178    	; 0x3718 <f_open+0x226>
    3666:	93 fe       	sbrs	r9, 3
    3668:	03 c0       	rjmp	.+6      	; 0x3670 <f_open+0x17e>
    366a:	b9 2d       	mov	r27, r9
    366c:	b0 62       	ori	r27, 0x20	; 32
    366e:	9b 2e       	mov	r9, r27
    3670:	e9 80       	ldd	r14, Y+1	; 0x01
    3672:	fa 80       	ldd	r15, Y+2	; 0x02
    3674:	f7 01       	movw	r30, r14
    3676:	42 a5       	ldd	r20, Z+42	; 0x2a
    3678:	53 a5       	ldd	r21, Z+43	; 0x2b
    367a:	64 a5       	ldd	r22, Z+44	; 0x2c
    367c:	75 a5       	ldd	r23, Z+45	; 0x2d
    367e:	d5 01       	movw	r26, r10
    3680:	5a 96       	adiw	r26, 0x1a	; 26
    3682:	4d 93       	st	X+, r20
    3684:	5d 93       	st	X+, r21
    3686:	6d 93       	st	X+, r22
    3688:	7c 93       	st	X, r23
    368a:	5d 97       	sbiw	r26, 0x1d	; 29
    368c:	5f 96       	adiw	r26, 0x1f	; 31
    368e:	1c 93       	st	X, r17
    3690:	0e 93       	st	-X, r16
    3692:	5e 97       	sbiw	r26, 0x1e	; 30
    3694:	14 96       	adiw	r26, 0x04	; 4
    3696:	9c 92       	st	X, r9
    3698:	14 97       	sbiw	r26, 0x04	; 4
    369a:	15 96       	adiw	r26, 0x05	; 5
    369c:	1c 92       	st	X, r1
    369e:	f8 01       	movw	r30, r16
    36a0:	82 8d       	ldd	r24, Z+26	; 0x1a
    36a2:	93 8d       	ldd	r25, Z+27	; 0x1b
    36a4:	a0 e0       	ldi	r26, 0x00	; 0
    36a6:	b0 e0       	ldi	r27, 0x00	; 0
    36a8:	f7 01       	movw	r30, r14
    36aa:	20 81       	ld	r18, Z
    36ac:	23 30       	cpi	r18, 0x03	; 3
    36ae:	61 f4       	brne	.+24     	; 0x36c8 <f_open+0x1d6>
    36b0:	f8 01       	movw	r30, r16
    36b2:	44 89       	ldd	r20, Z+20	; 0x14
    36b4:	55 89       	ldd	r21, Z+21	; 0x15
    36b6:	60 e0       	ldi	r22, 0x00	; 0
    36b8:	70 e0       	ldi	r23, 0x00	; 0
    36ba:	ba 01       	movw	r22, r20
    36bc:	55 27       	eor	r21, r21
    36be:	44 27       	eor	r20, r20
    36c0:	84 2b       	or	r24, r20
    36c2:	95 2b       	or	r25, r21
    36c4:	a6 2b       	or	r26, r22
    36c6:	b7 2b       	or	r27, r23
    36c8:	f5 01       	movw	r30, r10
    36ca:	86 87       	std	Z+14, r24	; 0x0e
    36cc:	97 87       	std	Z+15, r25	; 0x0f
    36ce:	a0 8b       	std	Z+16, r26	; 0x10
    36d0:	b1 8b       	std	Z+17, r27	; 0x11
    36d2:	f8 01       	movw	r30, r16
    36d4:	84 8d       	ldd	r24, Z+28	; 0x1c
    36d6:	95 8d       	ldd	r25, Z+29	; 0x1d
    36d8:	a6 8d       	ldd	r26, Z+30	; 0x1e
    36da:	b7 8d       	ldd	r27, Z+31	; 0x1f
    36dc:	f5 01       	movw	r30, r10
    36de:	82 87       	std	Z+10, r24	; 0x0a
    36e0:	93 87       	std	Z+11, r25	; 0x0b
    36e2:	a4 87       	std	Z+12, r26	; 0x0c
    36e4:	b5 87       	std	Z+13, r27	; 0x0d
    36e6:	16 82       	std	Z+6, r1	; 0x06
    36e8:	17 82       	std	Z+7, r1	; 0x07
    36ea:	10 86       	std	Z+8, r1	; 0x08
    36ec:	11 86       	std	Z+9, r1	; 0x09
    36ee:	16 8a       	std	Z+22, r1	; 0x16
    36f0:	17 8a       	std	Z+23, r1	; 0x17
    36f2:	10 8e       	std	Z+24, r1	; 0x18
    36f4:	11 8e       	std	Z+25, r1	; 0x19
    36f6:	f1 82       	std	Z+1, r15	; 0x01
    36f8:	e0 82       	st	Z, r14
    36fa:	d7 01       	movw	r26, r14
    36fc:	16 96       	adiw	r26, 0x06	; 6
    36fe:	8d 91       	ld	r24, X+
    3700:	9c 91       	ld	r25, X
    3702:	17 97       	sbiw	r26, 0x07	; 7
    3704:	93 83       	std	Z+3, r25	; 0x03
    3706:	82 83       	std	Z+2, r24	; 0x02
    3708:	80 e0       	ldi	r24, 0x00	; 0
    370a:	07 c0       	rjmp	.+14     	; 0x371a <f_open+0x228>
    370c:	89 e0       	ldi	r24, 0x09	; 9
    370e:	05 c0       	rjmp	.+10     	; 0x371a <f_open+0x228>
    3710:	88 e0       	ldi	r24, 0x08	; 8
    3712:	03 c0       	rjmp	.+6      	; 0x371a <f_open+0x228>
    3714:	84 e0       	ldi	r24, 0x04	; 4
    3716:	01 c0       	rjmp	.+2      	; 0x371a <f_open+0x228>
    3718:	87 e0       	ldi	r24, 0x07	; 7
    371a:	a4 96       	adiw	r28, 0x24	; 36
    371c:	0f b6       	in	r0, 0x3f	; 63
    371e:	f8 94       	cli
    3720:	de bf       	out	0x3e, r29	; 62
    3722:	0f be       	out	0x3f, r0	; 63
    3724:	cd bf       	out	0x3d, r28	; 61
    3726:	df 91       	pop	r29
    3728:	cf 91       	pop	r28
    372a:	1f 91       	pop	r17
    372c:	0f 91       	pop	r16
    372e:	ff 90       	pop	r15
    3730:	ef 90       	pop	r14
    3732:	df 90       	pop	r13
    3734:	cf 90       	pop	r12
    3736:	bf 90       	pop	r11
    3738:	af 90       	pop	r10
    373a:	9f 90       	pop	r9
    373c:	7f 90       	pop	r7
    373e:	6f 90       	pop	r6
    3740:	5f 90       	pop	r5
    3742:	4f 90       	pop	r4
    3744:	08 95       	ret

00003746 <f_write>:
    3746:	2f 92       	push	r2
    3748:	3f 92       	push	r3
    374a:	4f 92       	push	r4
    374c:	5f 92       	push	r5
    374e:	6f 92       	push	r6
    3750:	7f 92       	push	r7
    3752:	8f 92       	push	r8
    3754:	9f 92       	push	r9
    3756:	af 92       	push	r10
    3758:	bf 92       	push	r11
    375a:	cf 92       	push	r12
    375c:	df 92       	push	r13
    375e:	ef 92       	push	r14
    3760:	ff 92       	push	r15
    3762:	0f 93       	push	r16
    3764:	1f 93       	push	r17
    3766:	cf 93       	push	r28
    3768:	df 93       	push	r29
    376a:	ec 01       	movw	r28, r24
    376c:	5b 01       	movw	r10, r22
    376e:	7a 01       	movw	r14, r20
    3770:	19 01       	movw	r2, r18
    3772:	f9 01       	movw	r30, r18
    3774:	11 82       	std	Z+1, r1	; 0x01
    3776:	10 82       	st	Z, r1
    3778:	0e 94 2f 10 	call	0x205e	; 0x205e <validate>
    377c:	81 11       	cpse	r24, r1
    377e:	62 c1       	rjmp	.+708    	; 0x3a44 <f_write+0x2fe>
    3780:	8d 81       	ldd	r24, Y+5	; 0x05
    3782:	81 11       	cpse	r24, r1
    3784:	5f c1       	rjmp	.+702    	; 0x3a44 <f_write+0x2fe>
    3786:	8c 81       	ldd	r24, Y+4	; 0x04
    3788:	81 ff       	sbrs	r24, 1
    378a:	5b c1       	rjmp	.+694    	; 0x3a42 <f_write+0x2fc>
    378c:	8e 81       	ldd	r24, Y+6	; 0x06
    378e:	9f 81       	ldd	r25, Y+7	; 0x07
    3790:	a8 85       	ldd	r26, Y+8	; 0x08
    3792:	b9 85       	ldd	r27, Y+9	; 0x09
    3794:	ac 01       	movw	r20, r24
    3796:	bd 01       	movw	r22, r26
    3798:	4e 0d       	add	r20, r14
    379a:	5f 1d       	adc	r21, r15
    379c:	61 1d       	adc	r22, r1
    379e:	71 1d       	adc	r23, r1
    37a0:	48 17       	cp	r20, r24
    37a2:	59 07       	cpc	r21, r25
    37a4:	6a 07       	cpc	r22, r26
    37a6:	7b 07       	cpc	r23, r27
    37a8:	08 f0       	brcs	.+2      	; 0x37ac <f_write+0x66>
    37aa:	a2 c0       	rjmp	.+324    	; 0x38f0 <f_write+0x1aa>
    37ac:	e1 2c       	mov	r14, r1
    37ae:	f1 2c       	mov	r15, r1
    37b0:	9f c0       	rjmp	.+318    	; 0x38f0 <f_write+0x1aa>
    37b2:	4e 81       	ldd	r20, Y+6	; 0x06
    37b4:	5f 81       	ldd	r21, Y+7	; 0x07
    37b6:	68 85       	ldd	r22, Y+8	; 0x08
    37b8:	79 85       	ldd	r23, Y+9	; 0x09
    37ba:	db 01       	movw	r26, r22
    37bc:	ca 01       	movw	r24, r20
    37be:	91 70       	andi	r25, 0x01	; 1
    37c0:	aa 27       	eor	r26, r26
    37c2:	bb 27       	eor	r27, r27
    37c4:	89 2b       	or	r24, r25
    37c6:	8a 2b       	or	r24, r26
    37c8:	8b 2b       	or	r24, r27
    37ca:	09 f0       	breq	.+2      	; 0x37ce <f_write+0x88>
    37cc:	07 c1       	rjmp	.+526    	; 0x39dc <f_write+0x296>
    37ce:	e8 81       	ld	r30, Y
    37d0:	f9 81       	ldd	r31, Y+1	; 0x01
    37d2:	12 81       	ldd	r17, Z+2	; 0x02
    37d4:	11 50       	subi	r17, 0x01	; 1
    37d6:	2a 01       	movw	r4, r20
    37d8:	3b 01       	movw	r6, r22
    37da:	a9 e0       	ldi	r26, 0x09	; 9
    37dc:	76 94       	lsr	r7
    37de:	67 94       	ror	r6
    37e0:	57 94       	ror	r5
    37e2:	47 94       	ror	r4
    37e4:	aa 95       	dec	r26
    37e6:	d1 f7       	brne	.-12     	; 0x37dc <f_write+0x96>
    37e8:	14 21       	and	r17, r4
    37ea:	09 f4       	brne	.+2      	; 0x37ee <f_write+0xa8>
    37ec:	86 c0       	rjmp	.+268    	; 0x38fa <f_write+0x1b4>
    37ee:	88 81       	ld	r24, Y
    37f0:	99 81       	ldd	r25, Y+1	; 0x01
    37f2:	fc 01       	movw	r30, r24
    37f4:	42 a4       	ldd	r4, Z+42	; 0x2a
    37f6:	53 a4       	ldd	r5, Z+43	; 0x2b
    37f8:	64 a4       	ldd	r6, Z+44	; 0x2c
    37fa:	75 a4       	ldd	r7, Z+45	; 0x2d
    37fc:	4e 89       	ldd	r20, Y+22	; 0x16
    37fe:	5f 89       	ldd	r21, Y+23	; 0x17
    3800:	68 8d       	ldd	r22, Y+24	; 0x18
    3802:	79 8d       	ldd	r23, Y+25	; 0x19
    3804:	44 16       	cp	r4, r20
    3806:	55 06       	cpc	r5, r21
    3808:	66 06       	cpc	r6, r22
    380a:	77 06       	cpc	r7, r23
    380c:	09 f4       	brne	.+2      	; 0x3810 <f_write+0xca>
    380e:	c2 c0       	rjmp	.+388    	; 0x3994 <f_write+0x24e>
    3810:	88 80       	ld	r8, Y
    3812:	99 80       	ldd	r9, Y+1	; 0x01
    3814:	4a 89       	ldd	r20, Y+18	; 0x12
    3816:	5b 89       	ldd	r21, Y+19	; 0x13
    3818:	6c 89       	ldd	r22, Y+20	; 0x14
    381a:	7d 89       	ldd	r23, Y+21	; 0x15
    381c:	c4 01       	movw	r24, r8
    381e:	0e 94 f7 13 	call	0x27ee	; 0x27ee <clust2sect>
    3822:	61 15       	cp	r22, r1
    3824:	71 05       	cpc	r23, r1
    3826:	81 05       	cpc	r24, r1
    3828:	91 05       	cpc	r25, r1
    382a:	09 f4       	brne	.+2      	; 0x382e <f_write+0xe8>
    382c:	b9 c0       	rjmp	.+370    	; 0x39a0 <f_write+0x25a>
    382e:	2b 01       	movw	r4, r22
    3830:	3c 01       	movw	r6, r24
    3832:	41 0e       	add	r4, r17
    3834:	51 1c       	adc	r5, r1
    3836:	61 1c       	adc	r6, r1
    3838:	71 1c       	adc	r7, r1
    383a:	67 01       	movw	r12, r14
    383c:	cd 2c       	mov	r12, r13
    383e:	dd 24       	eor	r13, r13
    3840:	c6 94       	lsr	r12
    3842:	c1 14       	cp	r12, r1
    3844:	d1 04       	cpc	r13, r1
    3846:	09 f4       	brne	.+2      	; 0x384a <f_write+0x104>
    3848:	ad c0       	rjmp	.+346    	; 0x39a4 <f_write+0x25e>
    384a:	f4 01       	movw	r30, r8
    384c:	82 81       	ldd	r24, Z+2	; 0x02
    384e:	21 2f       	mov	r18, r17
    3850:	30 e0       	ldi	r19, 0x00	; 0
    3852:	a6 01       	movw	r20, r12
    3854:	42 0f       	add	r20, r18
    3856:	53 1f       	adc	r21, r19
    3858:	90 e0       	ldi	r25, 0x00	; 0
    385a:	84 17       	cp	r24, r20
    385c:	95 07       	cpc	r25, r21
    385e:	18 f4       	brcc	.+6      	; 0x3866 <f_write+0x120>
    3860:	6c 01       	movw	r12, r24
    3862:	c2 1a       	sub	r12, r18
    3864:	d3 0a       	sbc	r13, r19
    3866:	86 01       	movw	r16, r12
    3868:	a3 01       	movw	r20, r6
    386a:	92 01       	movw	r18, r4
    386c:	b5 01       	movw	r22, r10
    386e:	f4 01       	movw	r30, r8
    3870:	81 81       	ldd	r24, Z+1	; 0x01
    3872:	0e 94 a9 0e 	call	0x1d52	; 0x1d52 <disk_write>
    3876:	81 11       	cpse	r24, r1
    3878:	c7 c0       	rjmp	.+398    	; 0x3a08 <f_write+0x2c2>
    387a:	88 81       	ld	r24, Y
    387c:	99 81       	ldd	r25, Y+1	; 0x01
    387e:	fc 01       	movw	r30, r24
    3880:	42 a5       	ldd	r20, Z+42	; 0x2a
    3882:	53 a5       	ldd	r21, Z+43	; 0x2b
    3884:	64 a5       	ldd	r22, Z+44	; 0x2c
    3886:	75 a5       	ldd	r23, Z+45	; 0x2d
    3888:	44 19       	sub	r20, r4
    388a:	55 09       	sbc	r21, r5
    388c:	66 09       	sbc	r22, r6
    388e:	77 09       	sbc	r23, r7
    3890:	26 01       	movw	r4, r12
    3892:	61 2c       	mov	r6, r1
    3894:	71 2c       	mov	r7, r1
    3896:	44 15       	cp	r20, r4
    3898:	55 05       	cpc	r21, r5
    389a:	66 05       	cpc	r22, r6
    389c:	77 05       	cpc	r23, r7
    389e:	70 f4       	brcc	.+28     	; 0x38bc <f_write+0x176>
    38a0:	ba 01       	movw	r22, r20
    38a2:	76 2f       	mov	r23, r22
    38a4:	66 27       	eor	r22, r22
    38a6:	77 0f       	add	r23, r23
    38a8:	6a 0d       	add	r22, r10
    38aa:	7b 1d       	adc	r23, r11
    38ac:	40 e0       	ldi	r20, 0x00	; 0
    38ae:	52 e0       	ldi	r21, 0x02	; 2
    38b0:	8e 96       	adiw	r24, 0x2e	; 46
    38b2:	0e 94 a5 0f 	call	0x1f4a	; 0x1f4a <mem_cpy>
    38b6:	e8 81       	ld	r30, Y
    38b8:	f9 81       	ldd	r31, Y+1	; 0x01
    38ba:	14 82       	std	Z+4, r1	; 0x04
    38bc:	dc 2c       	mov	r13, r12
    38be:	cc 24       	eor	r12, r12
    38c0:	dd 0c       	add	r13, r13
    38c2:	ac 0c       	add	r10, r12
    38c4:	bd 1c       	adc	r11, r13
    38c6:	8e 81       	ldd	r24, Y+6	; 0x06
    38c8:	9f 81       	ldd	r25, Y+7	; 0x07
    38ca:	a8 85       	ldd	r26, Y+8	; 0x08
    38cc:	b9 85       	ldd	r27, Y+9	; 0x09
    38ce:	8c 0d       	add	r24, r12
    38d0:	9d 1d       	adc	r25, r13
    38d2:	a1 1d       	adc	r26, r1
    38d4:	b1 1d       	adc	r27, r1
    38d6:	8e 83       	std	Y+6, r24	; 0x06
    38d8:	9f 83       	std	Y+7, r25	; 0x07
    38da:	a8 87       	std	Y+8, r26	; 0x08
    38dc:	b9 87       	std	Y+9, r27	; 0x09
    38de:	f1 01       	movw	r30, r2
    38e0:	80 81       	ld	r24, Z
    38e2:	91 81       	ldd	r25, Z+1	; 0x01
    38e4:	8c 0d       	add	r24, r12
    38e6:	9d 1d       	adc	r25, r13
    38e8:	91 83       	std	Z+1, r25	; 0x01
    38ea:	80 83       	st	Z, r24
    38ec:	ec 18       	sub	r14, r12
    38ee:	fd 08       	sbc	r15, r13
    38f0:	e1 14       	cp	r14, r1
    38f2:	f1 04       	cpc	r15, r1
    38f4:	09 f0       	breq	.+2      	; 0x38f8 <f_write+0x1b2>
    38f6:	5d cf       	rjmp	.-326    	; 0x37b2 <f_write+0x6c>
    38f8:	1c c0       	rjmp	.+56     	; 0x3932 <f_write+0x1ec>
    38fa:	45 2b       	or	r20, r21
    38fc:	46 2b       	or	r20, r22
    38fe:	47 2b       	or	r20, r23
    3900:	69 f4       	brne	.+26     	; 0x391c <f_write+0x1d6>
    3902:	6e 85       	ldd	r22, Y+14	; 0x0e
    3904:	7f 85       	ldd	r23, Y+15	; 0x0f
    3906:	88 89       	ldd	r24, Y+16	; 0x10
    3908:	99 89       	ldd	r25, Y+17	; 0x11
    390a:	61 15       	cp	r22, r1
    390c:	71 05       	cpc	r23, r1
    390e:	81 05       	cpc	r24, r1
    3910:	91 05       	cpc	r25, r1
    3912:	11 f5       	brne	.+68     	; 0x3958 <f_write+0x212>
    3914:	40 e0       	ldi	r20, 0x00	; 0
    3916:	50 e0       	ldi	r21, 0x00	; 0
    3918:	ba 01       	movw	r22, r20
    391a:	04 c0       	rjmp	.+8      	; 0x3924 <f_write+0x1de>
    391c:	4a 89       	ldd	r20, Y+18	; 0x12
    391e:	5b 89       	ldd	r21, Y+19	; 0x13
    3920:	6c 89       	ldd	r22, Y+20	; 0x14
    3922:	7d 89       	ldd	r23, Y+21	; 0x15
    3924:	cf 01       	movw	r24, r30
    3926:	e7 d9       	rcall	.-3122   	; 0x2cf6 <create_chain>
    3928:	61 15       	cp	r22, r1
    392a:	71 05       	cpc	r23, r1
    392c:	81 05       	cpc	r24, r1
    392e:	91 05       	cpc	r25, r1
    3930:	99 f4       	brne	.+38     	; 0x3958 <f_write+0x212>
    3932:	8e 81       	ldd	r24, Y+6	; 0x06
    3934:	9f 81       	ldd	r25, Y+7	; 0x07
    3936:	a8 85       	ldd	r26, Y+8	; 0x08
    3938:	b9 85       	ldd	r27, Y+9	; 0x09
    393a:	4a 85       	ldd	r20, Y+10	; 0x0a
    393c:	5b 85       	ldd	r21, Y+11	; 0x0b
    393e:	6c 85       	ldd	r22, Y+12	; 0x0c
    3940:	7d 85       	ldd	r23, Y+13	; 0x0d
    3942:	48 17       	cp	r20, r24
    3944:	59 07       	cpc	r21, r25
    3946:	6a 07       	cpc	r22, r26
    3948:	7b 07       	cpc	r23, r27
    394a:	08 f0       	brcs	.+2      	; 0x394e <f_write+0x208>
    394c:	75 c0       	rjmp	.+234    	; 0x3a38 <f_write+0x2f2>
    394e:	8a 87       	std	Y+10, r24	; 0x0a
    3950:	9b 87       	std	Y+11, r25	; 0x0b
    3952:	ac 87       	std	Y+12, r26	; 0x0c
    3954:	bd 87       	std	Y+13, r27	; 0x0d
    3956:	70 c0       	rjmp	.+224    	; 0x3a38 <f_write+0x2f2>
    3958:	61 30       	cpi	r22, 0x01	; 1
    395a:	71 05       	cpc	r23, r1
    395c:	81 05       	cpc	r24, r1
    395e:	91 05       	cpc	r25, r1
    3960:	f9 f0       	breq	.+62     	; 0x39a0 <f_write+0x25a>
    3962:	6f 3f       	cpi	r22, 0xFF	; 255
    3964:	ff ef       	ldi	r31, 0xFF	; 255
    3966:	7f 07       	cpc	r23, r31
    3968:	8f 07       	cpc	r24, r31
    396a:	9f 07       	cpc	r25, r31
    396c:	09 f4       	brne	.+2      	; 0x3970 <f_write+0x22a>
    396e:	4c c0       	rjmp	.+152    	; 0x3a08 <f_write+0x2c2>
    3970:	6a 8b       	std	Y+18, r22	; 0x12
    3972:	7b 8b       	std	Y+19, r23	; 0x13
    3974:	8c 8b       	std	Y+20, r24	; 0x14
    3976:	9d 8b       	std	Y+21, r25	; 0x15
    3978:	4e 84       	ldd	r4, Y+14	; 0x0e
    397a:	5f 84       	ldd	r5, Y+15	; 0x0f
    397c:	68 88       	ldd	r6, Y+16	; 0x10
    397e:	79 88       	ldd	r7, Y+17	; 0x11
    3980:	45 28       	or	r4, r5
    3982:	46 28       	or	r4, r6
    3984:	47 28       	or	r4, r7
    3986:	09 f0       	breq	.+2      	; 0x398a <f_write+0x244>
    3988:	32 cf       	rjmp	.-412    	; 0x37ee <f_write+0xa8>
    398a:	6e 87       	std	Y+14, r22	; 0x0e
    398c:	7f 87       	std	Y+15, r23	; 0x0f
    398e:	88 8b       	std	Y+16, r24	; 0x10
    3990:	99 8b       	std	Y+17, r25	; 0x11
    3992:	2d cf       	rjmp	.-422    	; 0x37ee <f_write+0xa8>
    3994:	0e 94 4d 10 	call	0x209a	; 0x209a <sync_window>
    3998:	88 23       	and	r24, r24
    399a:	09 f4       	brne	.+2      	; 0x399e <f_write+0x258>
    399c:	39 cf       	rjmp	.-398    	; 0x3810 <f_write+0xca>
    399e:	34 c0       	rjmp	.+104    	; 0x3a08 <f_write+0x2c2>
    39a0:	82 e0       	ldi	r24, 0x02	; 2
    39a2:	33 c0       	rjmp	.+102    	; 0x3a0a <f_write+0x2c4>
    39a4:	4e 81       	ldd	r20, Y+6	; 0x06
    39a6:	5f 81       	ldd	r21, Y+7	; 0x07
    39a8:	68 85       	ldd	r22, Y+8	; 0x08
    39aa:	79 85       	ldd	r23, Y+9	; 0x09
    39ac:	8a 85       	ldd	r24, Y+10	; 0x0a
    39ae:	9b 85       	ldd	r25, Y+11	; 0x0b
    39b0:	ac 85       	ldd	r26, Y+12	; 0x0c
    39b2:	bd 85       	ldd	r27, Y+13	; 0x0d
    39b4:	48 17       	cp	r20, r24
    39b6:	59 07       	cpc	r21, r25
    39b8:	6a 07       	cpc	r22, r26
    39ba:	7b 07       	cpc	r23, r27
    39bc:	58 f0       	brcs	.+22     	; 0x39d4 <f_write+0x28e>
    39be:	c4 01       	movw	r24, r8
    39c0:	0e 94 4d 10 	call	0x209a	; 0x209a <sync_window>
    39c4:	81 11       	cpse	r24, r1
    39c6:	20 c0       	rjmp	.+64     	; 0x3a08 <f_write+0x2c2>
    39c8:	e8 81       	ld	r30, Y
    39ca:	f9 81       	ldd	r31, Y+1	; 0x01
    39cc:	42 a6       	std	Z+42, r4	; 0x2a
    39ce:	53 a6       	std	Z+43, r5	; 0x2b
    39d0:	64 a6       	std	Z+44, r6	; 0x2c
    39d2:	75 a6       	std	Z+45, r7	; 0x2d
    39d4:	4e 8a       	std	Y+22, r4	; 0x16
    39d6:	5f 8a       	std	Y+23, r5	; 0x17
    39d8:	68 8e       	std	Y+24, r6	; 0x18
    39da:	79 8e       	std	Y+25, r7	; 0x19
    39dc:	8e 81       	ldd	r24, Y+6	; 0x06
    39de:	9f 81       	ldd	r25, Y+7	; 0x07
    39e0:	91 70       	andi	r25, 0x01	; 1
    39e2:	20 e0       	ldi	r18, 0x00	; 0
    39e4:	32 e0       	ldi	r19, 0x02	; 2
    39e6:	28 1b       	sub	r18, r24
    39e8:	39 0b       	sbc	r19, r25
    39ea:	67 01       	movw	r12, r14
    39ec:	2e 15       	cp	r18, r14
    39ee:	3f 05       	cpc	r19, r15
    39f0:	08 f4       	brcc	.+2      	; 0x39f4 <f_write+0x2ae>
    39f2:	69 01       	movw	r12, r18
    39f4:	4e 89       	ldd	r20, Y+22	; 0x16
    39f6:	5f 89       	ldd	r21, Y+23	; 0x17
    39f8:	68 8d       	ldd	r22, Y+24	; 0x18
    39fa:	79 8d       	ldd	r23, Y+25	; 0x19
    39fc:	88 81       	ld	r24, Y
    39fe:	99 81       	ldd	r25, Y+1	; 0x01
    3a00:	0e 94 b3 10 	call	0x2166	; 0x2166 <move_window>
    3a04:	88 23       	and	r24, r24
    3a06:	19 f0       	breq	.+6      	; 0x3a0e <f_write+0x2c8>
    3a08:	81 e0       	ldi	r24, 0x01	; 1
    3a0a:	8d 83       	std	Y+5, r24	; 0x05
    3a0c:	1b c0       	rjmp	.+54     	; 0x3a44 <f_write+0x2fe>
    3a0e:	8e 81       	ldd	r24, Y+6	; 0x06
    3a10:	9f 81       	ldd	r25, Y+7	; 0x07
    3a12:	a8 85       	ldd	r26, Y+8	; 0x08
    3a14:	b9 85       	ldd	r27, Y+9	; 0x09
    3a16:	91 70       	andi	r25, 0x01	; 1
    3a18:	aa 27       	eor	r26, r26
    3a1a:	bb 27       	eor	r27, r27
    3a1c:	8e 96       	adiw	r24, 0x2e	; 46
    3a1e:	28 81       	ld	r18, Y
    3a20:	39 81       	ldd	r19, Y+1	; 0x01
    3a22:	a6 01       	movw	r20, r12
    3a24:	b5 01       	movw	r22, r10
    3a26:	82 0f       	add	r24, r18
    3a28:	93 1f       	adc	r25, r19
    3a2a:	0e 94 a5 0f 	call	0x1f4a	; 0x1f4a <mem_cpy>
    3a2e:	e8 81       	ld	r30, Y
    3a30:	f9 81       	ldd	r31, Y+1	; 0x01
    3a32:	31 e0       	ldi	r19, 0x01	; 1
    3a34:	34 83       	std	Z+4, r19	; 0x04
    3a36:	45 cf       	rjmp	.-374    	; 0x38c2 <f_write+0x17c>
    3a38:	8c 81       	ldd	r24, Y+4	; 0x04
    3a3a:	80 62       	ori	r24, 0x20	; 32
    3a3c:	8c 83       	std	Y+4, r24	; 0x04
    3a3e:	80 e0       	ldi	r24, 0x00	; 0
    3a40:	01 c0       	rjmp	.+2      	; 0x3a44 <f_write+0x2fe>
    3a42:	87 e0       	ldi	r24, 0x07	; 7
    3a44:	df 91       	pop	r29
    3a46:	cf 91       	pop	r28
    3a48:	1f 91       	pop	r17
    3a4a:	0f 91       	pop	r16
    3a4c:	ff 90       	pop	r15
    3a4e:	ef 90       	pop	r14
    3a50:	df 90       	pop	r13
    3a52:	cf 90       	pop	r12
    3a54:	bf 90       	pop	r11
    3a56:	af 90       	pop	r10
    3a58:	9f 90       	pop	r9
    3a5a:	8f 90       	pop	r8
    3a5c:	7f 90       	pop	r7
    3a5e:	6f 90       	pop	r6
    3a60:	5f 90       	pop	r5
    3a62:	4f 90       	pop	r4
    3a64:	3f 90       	pop	r3
    3a66:	2f 90       	pop	r2
    3a68:	08 95       	ret

00003a6a <f_sync>:
    3a6a:	cf 93       	push	r28
    3a6c:	df 93       	push	r29
    3a6e:	ec 01       	movw	r28, r24
    3a70:	0e 94 2f 10 	call	0x205e	; 0x205e <validate>
    3a74:	81 11       	cpse	r24, r1
    3a76:	39 c0       	rjmp	.+114    	; 0x3aea <f_sync+0x80>
    3a78:	9c 81       	ldd	r25, Y+4	; 0x04
    3a7a:	95 ff       	sbrs	r25, 5
    3a7c:	36 c0       	rjmp	.+108    	; 0x3aea <f_sync+0x80>
    3a7e:	4a 8d       	ldd	r20, Y+26	; 0x1a
    3a80:	5b 8d       	ldd	r21, Y+27	; 0x1b
    3a82:	6c 8d       	ldd	r22, Y+28	; 0x1c
    3a84:	7d 8d       	ldd	r23, Y+29	; 0x1d
    3a86:	88 81       	ld	r24, Y
    3a88:	99 81       	ldd	r25, Y+1	; 0x01
    3a8a:	0e 94 b3 10 	call	0x2166	; 0x2166 <move_window>
    3a8e:	81 11       	cpse	r24, r1
    3a90:	2c c0       	rjmp	.+88     	; 0x3aea <f_sync+0x80>
    3a92:	ee 8d       	ldd	r30, Y+30	; 0x1e
    3a94:	ff 8d       	ldd	r31, Y+31	; 0x1f
    3a96:	83 85       	ldd	r24, Z+11	; 0x0b
    3a98:	80 62       	ori	r24, 0x20	; 32
    3a9a:	83 87       	std	Z+11, r24	; 0x0b
    3a9c:	4a 85       	ldd	r20, Y+10	; 0x0a
    3a9e:	5b 85       	ldd	r21, Y+11	; 0x0b
    3aa0:	6c 85       	ldd	r22, Y+12	; 0x0c
    3aa2:	7d 85       	ldd	r23, Y+13	; 0x0d
    3aa4:	44 8f       	std	Z+28, r20	; 0x1c
    3aa6:	55 8f       	std	Z+29, r21	; 0x1d
    3aa8:	66 8f       	std	Z+30, r22	; 0x1e
    3aaa:	77 8f       	std	Z+31, r23	; 0x1f
    3aac:	4e 85       	ldd	r20, Y+14	; 0x0e
    3aae:	5f 85       	ldd	r21, Y+15	; 0x0f
    3ab0:	68 89       	ldd	r22, Y+16	; 0x10
    3ab2:	79 89       	ldd	r23, Y+17	; 0x11
    3ab4:	53 8f       	std	Z+27, r21	; 0x1b
    3ab6:	42 8f       	std	Z+26, r20	; 0x1a
    3ab8:	75 8b       	std	Z+21, r23	; 0x15
    3aba:	64 8b       	std	Z+20, r22	; 0x14
    3abc:	40 e0       	ldi	r20, 0x00	; 0
    3abe:	50 e0       	ldi	r21, 0x00	; 0
    3ac0:	69 e6       	ldi	r22, 0x69	; 105
    3ac2:	75 e4       	ldi	r23, 0x45	; 69
    3ac4:	46 8b       	std	Z+22, r20	; 0x16
    3ac6:	57 8b       	std	Z+23, r21	; 0x17
    3ac8:	60 8f       	std	Z+24, r22	; 0x18
    3aca:	71 8f       	std	Z+25, r23	; 0x19
    3acc:	13 8a       	std	Z+19, r1	; 0x13
    3ace:	12 8a       	std	Z+18, r1	; 0x12
    3ad0:	8c 81       	ldd	r24, Y+4	; 0x04
    3ad2:	8f 7d       	andi	r24, 0xDF	; 223
    3ad4:	8c 83       	std	Y+4, r24	; 0x04
    3ad6:	e8 81       	ld	r30, Y
    3ad8:	f9 81       	ldd	r31, Y+1	; 0x01
    3ada:	81 e0       	ldi	r24, 0x01	; 1
    3adc:	84 83       	std	Z+4, r24	; 0x04
    3ade:	88 81       	ld	r24, Y
    3ae0:	99 81       	ldd	r25, Y+1	; 0x01
    3ae2:	df 91       	pop	r29
    3ae4:	cf 91       	pop	r28
    3ae6:	0c 94 90 13 	jmp	0x2720	; 0x2720 <sync_fs>
    3aea:	df 91       	pop	r29
    3aec:	cf 91       	pop	r28
    3aee:	08 95       	ret

00003af0 <f_close>:
    3af0:	cf 93       	push	r28
    3af2:	df 93       	push	r29
    3af4:	ec 01       	movw	r28, r24
    3af6:	b9 df       	rcall	.-142    	; 0x3a6a <f_sync>
    3af8:	81 11       	cpse	r24, r1
    3afa:	07 c0       	rjmp	.+14     	; 0x3b0a <f_close+0x1a>
    3afc:	ce 01       	movw	r24, r28
    3afe:	0e 94 2f 10 	call	0x205e	; 0x205e <validate>
    3b02:	81 11       	cpse	r24, r1
    3b04:	02 c0       	rjmp	.+4      	; 0x3b0a <f_close+0x1a>
    3b06:	19 82       	std	Y+1, r1	; 0x01
    3b08:	18 82       	st	Y, r1
    3b0a:	df 91       	pop	r29
    3b0c:	cf 91       	pop	r28
    3b0e:	08 95       	ret

00003b10 <f_lseek>:
    3b10:	2f 92       	push	r2
    3b12:	3f 92       	push	r3
    3b14:	4f 92       	push	r4
    3b16:	5f 92       	push	r5
    3b18:	6f 92       	push	r6
    3b1a:	7f 92       	push	r7
    3b1c:	8f 92       	push	r8
    3b1e:	9f 92       	push	r9
    3b20:	af 92       	push	r10
    3b22:	bf 92       	push	r11
    3b24:	cf 92       	push	r12
    3b26:	df 92       	push	r13
    3b28:	ef 92       	push	r14
    3b2a:	ff 92       	push	r15
    3b2c:	0f 93       	push	r16
    3b2e:	1f 93       	push	r17
    3b30:	cf 93       	push	r28
    3b32:	df 93       	push	r29
    3b34:	cd b7       	in	r28, 0x3d	; 61
    3b36:	de b7       	in	r29, 0x3e	; 62
    3b38:	28 97       	sbiw	r28, 0x08	; 8
    3b3a:	0f b6       	in	r0, 0x3f	; 63
    3b3c:	f8 94       	cli
    3b3e:	de bf       	out	0x3e, r29	; 62
    3b40:	0f be       	out	0x3f, r0	; 63
    3b42:	cd bf       	out	0x3d, r28	; 61
    3b44:	1c 01       	movw	r2, r24
    3b46:	4d 83       	std	Y+5, r20	; 0x05
    3b48:	5e 83       	std	Y+6, r21	; 0x06
    3b4a:	6f 83       	std	Y+7, r22	; 0x07
    3b4c:	78 87       	std	Y+8, r23	; 0x08
    3b4e:	0e 94 2f 10 	call	0x205e	; 0x205e <validate>
    3b52:	4d 81       	ldd	r20, Y+5	; 0x05
    3b54:	5e 81       	ldd	r21, Y+6	; 0x06
    3b56:	6f 81       	ldd	r22, Y+7	; 0x07
    3b58:	78 85       	ldd	r23, Y+8	; 0x08
    3b5a:	81 11       	cpse	r24, r1
    3b5c:	5f c1       	rjmp	.+702    	; 0x3e1c <f_lseek+0x30c>
    3b5e:	d1 01       	movw	r26, r2
    3b60:	15 96       	adiw	r26, 0x05	; 5
    3b62:	8c 91       	ld	r24, X
    3b64:	15 97       	sbiw	r26, 0x05	; 5
    3b66:	81 11       	cpse	r24, r1
    3b68:	59 c1       	rjmp	.+690    	; 0x3e1c <f_lseek+0x30c>
    3b6a:	1a 96       	adiw	r26, 0x0a	; 10
    3b6c:	cd 90       	ld	r12, X+
    3b6e:	dd 90       	ld	r13, X+
    3b70:	ed 90       	ld	r14, X+
    3b72:	fc 90       	ld	r15, X
    3b74:	1d 97       	sbiw	r26, 0x0d	; 13
    3b76:	c4 16       	cp	r12, r20
    3b78:	d5 06       	cpc	r13, r21
    3b7a:	e6 06       	cpc	r14, r22
    3b7c:	f7 06       	cpc	r15, r23
    3b7e:	18 f0       	brcs	.+6      	; 0x3b86 <f_lseek+0x76>
    3b80:	6a 01       	movw	r12, r20
    3b82:	7b 01       	movw	r14, r22
    3b84:	04 c0       	rjmp	.+8      	; 0x3b8e <f_lseek+0x7e>
    3b86:	f1 01       	movw	r30, r2
    3b88:	84 81       	ldd	r24, Z+4	; 0x04
    3b8a:	81 fd       	sbrc	r24, 1
    3b8c:	f9 cf       	rjmp	.-14     	; 0x3b80 <f_lseek+0x70>
    3b8e:	d1 01       	movw	r26, r2
    3b90:	16 96       	adiw	r26, 0x06	; 6
    3b92:	4d 90       	ld	r4, X+
    3b94:	5d 90       	ld	r5, X+
    3b96:	6d 90       	ld	r6, X+
    3b98:	7c 90       	ld	r7, X
    3b9a:	19 97       	sbiw	r26, 0x09	; 9
    3b9c:	f1 01       	movw	r30, r2
    3b9e:	16 82       	std	Z+6, r1	; 0x06
    3ba0:	17 82       	std	Z+7, r1	; 0x07
    3ba2:	10 86       	std	Z+8, r1	; 0x08
    3ba4:	11 86       	std	Z+9, r1	; 0x09
    3ba6:	c1 14       	cp	r12, r1
    3ba8:	d1 04       	cpc	r13, r1
    3baa:	e1 04       	cpc	r14, r1
    3bac:	f1 04       	cpc	r15, r1
    3bae:	21 f4       	brne	.+8      	; 0x3bb8 <f_lseek+0xa8>
    3bb0:	c1 2c       	mov	r12, r1
    3bb2:	d1 2c       	mov	r13, r1
    3bb4:	76 01       	movw	r14, r12
    3bb6:	05 c1       	rjmp	.+522    	; 0x3dc2 <f_lseek+0x2b2>
    3bb8:	00 81       	ld	r16, Z
    3bba:	11 81       	ldd	r17, Z+1	; 0x01
    3bbc:	f8 01       	movw	r30, r16
    3bbe:	82 80       	ldd	r8, Z+2	; 0x02
    3bc0:	91 2c       	mov	r9, r1
    3bc2:	a1 2c       	mov	r10, r1
    3bc4:	b1 2c       	mov	r11, r1
    3bc6:	89 e0       	ldi	r24, 0x09	; 9
    3bc8:	88 0c       	add	r8, r8
    3bca:	99 1c       	adc	r9, r9
    3bcc:	aa 1c       	adc	r10, r10
    3bce:	bb 1c       	adc	r11, r11
    3bd0:	8a 95       	dec	r24
    3bd2:	d1 f7       	brne	.-12     	; 0x3bc8 <f_lseek+0xb8>
    3bd4:	41 14       	cp	r4, r1
    3bd6:	51 04       	cpc	r5, r1
    3bd8:	61 04       	cpc	r6, r1
    3bda:	71 04       	cpc	r7, r1
    3bdc:	d9 f1       	breq	.+118    	; 0x3c54 <f_lseek+0x144>
    3bde:	f1 e0       	ldi	r31, 0x01	; 1
    3be0:	4f 1a       	sub	r4, r31
    3be2:	51 08       	sbc	r5, r1
    3be4:	61 08       	sbc	r6, r1
    3be6:	71 08       	sbc	r7, r1
    3be8:	c7 01       	movw	r24, r14
    3bea:	b6 01       	movw	r22, r12
    3bec:	61 50       	subi	r22, 0x01	; 1
    3bee:	71 09       	sbc	r23, r1
    3bf0:	81 09       	sbc	r24, r1
    3bf2:	91 09       	sbc	r25, r1
    3bf4:	a5 01       	movw	r20, r10
    3bf6:	94 01       	movw	r18, r8
    3bf8:	0e 94 53 33 	call	0x66a6	; 0x66a6 <__udivmodsi4>
    3bfc:	29 83       	std	Y+1, r18	; 0x01
    3bfe:	3a 83       	std	Y+2, r19	; 0x02
    3c00:	4b 83       	std	Y+3, r20	; 0x03
    3c02:	5c 83       	std	Y+4, r21	; 0x04
    3c04:	c3 01       	movw	r24, r6
    3c06:	b2 01       	movw	r22, r4
    3c08:	a5 01       	movw	r20, r10
    3c0a:	94 01       	movw	r18, r8
    3c0c:	0e 94 53 33 	call	0x66a6	; 0x66a6 <__udivmodsi4>
    3c10:	89 81       	ldd	r24, Y+1	; 0x01
    3c12:	9a 81       	ldd	r25, Y+2	; 0x02
    3c14:	ab 81       	ldd	r26, Y+3	; 0x03
    3c16:	bc 81       	ldd	r27, Y+4	; 0x04
    3c18:	82 17       	cp	r24, r18
    3c1a:	93 07       	cpc	r25, r19
    3c1c:	a4 07       	cpc	r26, r20
    3c1e:	b5 07       	cpc	r27, r21
    3c20:	c8 f0       	brcs	.+50     	; 0x3c54 <f_lseek+0x144>
    3c22:	88 27       	eor	r24, r24
    3c24:	99 27       	eor	r25, r25
    3c26:	dc 01       	movw	r26, r24
    3c28:	88 19       	sub	r24, r8
    3c2a:	99 09       	sbc	r25, r9
    3c2c:	aa 09       	sbc	r26, r10
    3c2e:	bb 09       	sbc	r27, r11
    3c30:	84 21       	and	r24, r4
    3c32:	95 21       	and	r25, r5
    3c34:	a6 21       	and	r26, r6
    3c36:	b7 21       	and	r27, r7
    3c38:	f1 01       	movw	r30, r2
    3c3a:	86 83       	std	Z+6, r24	; 0x06
    3c3c:	97 83       	std	Z+7, r25	; 0x07
    3c3e:	a0 87       	std	Z+8, r26	; 0x08
    3c40:	b1 87       	std	Z+9, r27	; 0x09
    3c42:	c8 1a       	sub	r12, r24
    3c44:	d9 0a       	sbc	r13, r25
    3c46:	ea 0a       	sbc	r14, r26
    3c48:	fb 0a       	sbc	r15, r27
    3c4a:	42 89       	ldd	r20, Z+18	; 0x12
    3c4c:	53 89       	ldd	r21, Z+19	; 0x13
    3c4e:	64 89       	ldd	r22, Z+20	; 0x14
    3c50:	75 89       	ldd	r23, Z+21	; 0x15
    3c52:	2c c0       	rjmp	.+88     	; 0x3cac <f_lseek+0x19c>
    3c54:	d1 01       	movw	r26, r2
    3c56:	1e 96       	adiw	r26, 0x0e	; 14
    3c58:	4d 91       	ld	r20, X+
    3c5a:	5d 91       	ld	r21, X+
    3c5c:	6d 91       	ld	r22, X+
    3c5e:	7c 91       	ld	r23, X
    3c60:	51 97       	sbiw	r26, 0x11	; 17
    3c62:	41 15       	cp	r20, r1
    3c64:	51 05       	cpc	r21, r1
    3c66:	61 05       	cpc	r22, r1
    3c68:	71 05       	cpc	r23, r1
    3c6a:	c9 f4       	brne	.+50     	; 0x3c9e <f_lseek+0x18e>
    3c6c:	40 e0       	ldi	r20, 0x00	; 0
    3c6e:	50 e0       	ldi	r21, 0x00	; 0
    3c70:	ba 01       	movw	r22, r20
    3c72:	c8 01       	movw	r24, r16
    3c74:	40 d8       	rcall	.-3968   	; 0x2cf6 <create_chain>
    3c76:	ab 01       	movw	r20, r22
    3c78:	bc 01       	movw	r22, r24
    3c7a:	41 30       	cpi	r20, 0x01	; 1
    3c7c:	51 05       	cpc	r21, r1
    3c7e:	61 05       	cpc	r22, r1
    3c80:	71 05       	cpc	r23, r1
    3c82:	09 f4       	brne	.+2      	; 0x3c86 <f_lseek+0x176>
    3c84:	63 c0       	rjmp	.+198    	; 0x3d4c <f_lseek+0x23c>
    3c86:	4f 3f       	cpi	r20, 0xFF	; 255
    3c88:	ff ef       	ldi	r31, 0xFF	; 255
    3c8a:	5f 07       	cpc	r21, r31
    3c8c:	6f 07       	cpc	r22, r31
    3c8e:	7f 07       	cpc	r23, r31
    3c90:	09 f4       	brne	.+2      	; 0x3c94 <f_lseek+0x184>
    3c92:	5a c0       	rjmp	.+180    	; 0x3d48 <f_lseek+0x238>
    3c94:	f1 01       	movw	r30, r2
    3c96:	46 87       	std	Z+14, r20	; 0x0e
    3c98:	57 87       	std	Z+15, r21	; 0x0f
    3c9a:	60 8b       	std	Z+16, r22	; 0x10
    3c9c:	71 8b       	std	Z+17, r23	; 0x11
    3c9e:	d1 01       	movw	r26, r2
    3ca0:	52 96       	adiw	r26, 0x12	; 18
    3ca2:	4d 93       	st	X+, r20
    3ca4:	5d 93       	st	X+, r21
    3ca6:	6d 93       	st	X+, r22
    3ca8:	7c 93       	st	X, r23
    3caa:	55 97       	sbiw	r26, 0x15	; 21
    3cac:	41 15       	cp	r20, r1
    3cae:	51 05       	cpc	r21, r1
    3cb0:	61 05       	cpc	r22, r1
    3cb2:	71 05       	cpc	r23, r1
    3cb4:	09 f4       	brne	.+2      	; 0x3cb8 <f_lseek+0x1a8>
    3cb6:	7c cf       	rjmp	.-264    	; 0x3bb0 <f_lseek+0xa0>
    3cb8:	2c c0       	rjmp	.+88     	; 0x3d12 <f_lseek+0x202>
    3cba:	42 30       	cpi	r20, 0x02	; 2
    3cbc:	51 05       	cpc	r21, r1
    3cbe:	61 05       	cpc	r22, r1
    3cc0:	71 05       	cpc	r23, r1
    3cc2:	08 f4       	brcc	.+2      	; 0x3cc6 <f_lseek+0x1b6>
    3cc4:	43 c0       	rjmp	.+134    	; 0x3d4c <f_lseek+0x23c>
    3cc6:	d1 01       	movw	r26, r2
    3cc8:	ed 91       	ld	r30, X+
    3cca:	fc 91       	ld	r31, X
    3ccc:	82 89       	ldd	r24, Z+18	; 0x12
    3cce:	93 89       	ldd	r25, Z+19	; 0x13
    3cd0:	a4 89       	ldd	r26, Z+20	; 0x14
    3cd2:	b5 89       	ldd	r27, Z+21	; 0x15
    3cd4:	48 17       	cp	r20, r24
    3cd6:	59 07       	cpc	r21, r25
    3cd8:	6a 07       	cpc	r22, r26
    3cda:	7b 07       	cpc	r23, r27
    3cdc:	b8 f5       	brcc	.+110    	; 0x3d4c <f_lseek+0x23c>
    3cde:	d1 01       	movw	r26, r2
    3ce0:	52 96       	adiw	r26, 0x12	; 18
    3ce2:	4d 93       	st	X+, r20
    3ce4:	5d 93       	st	X+, r21
    3ce6:	6d 93       	st	X+, r22
    3ce8:	7c 93       	st	X, r23
    3cea:	55 97       	sbiw	r26, 0x15	; 21
    3cec:	16 96       	adiw	r26, 0x06	; 6
    3cee:	8d 91       	ld	r24, X+
    3cf0:	9d 91       	ld	r25, X+
    3cf2:	0d 90       	ld	r0, X+
    3cf4:	bc 91       	ld	r27, X
    3cf6:	a0 2d       	mov	r26, r0
    3cf8:	88 0d       	add	r24, r8
    3cfa:	99 1d       	adc	r25, r9
    3cfc:	aa 1d       	adc	r26, r10
    3cfe:	bb 1d       	adc	r27, r11
    3d00:	f1 01       	movw	r30, r2
    3d02:	86 83       	std	Z+6, r24	; 0x06
    3d04:	97 83       	std	Z+7, r25	; 0x07
    3d06:	a0 87       	std	Z+8, r26	; 0x08
    3d08:	b1 87       	std	Z+9, r27	; 0x09
    3d0a:	c8 18       	sub	r12, r8
    3d0c:	d9 08       	sbc	r13, r9
    3d0e:	ea 08       	sbc	r14, r10
    3d10:	fb 08       	sbc	r15, r11
    3d12:	8c 14       	cp	r8, r12
    3d14:	9d 04       	cpc	r9, r13
    3d16:	ae 04       	cpc	r10, r14
    3d18:	bf 04       	cpc	r11, r15
    3d1a:	18 f5       	brcc	.+70     	; 0x3d62 <f_lseek+0x252>
    3d1c:	f1 01       	movw	r30, r2
    3d1e:	24 81       	ldd	r18, Z+4	; 0x04
    3d20:	80 81       	ld	r24, Z
    3d22:	91 81       	ldd	r25, Z+1	; 0x01
    3d24:	21 ff       	sbrs	r18, 1
    3d26:	16 c0       	rjmp	.+44     	; 0x3d54 <f_lseek+0x244>
    3d28:	0e 94 7b 16 	call	0x2cf6	; 0x2cf6 <create_chain>
    3d2c:	ab 01       	movw	r20, r22
    3d2e:	bc 01       	movw	r22, r24
    3d30:	41 15       	cp	r20, r1
    3d32:	51 05       	cpc	r21, r1
    3d34:	61 05       	cpc	r22, r1
    3d36:	71 05       	cpc	r23, r1
    3d38:	91 f0       	breq	.+36     	; 0x3d5e <f_lseek+0x24e>
    3d3a:	4f 3f       	cpi	r20, 0xFF	; 255
    3d3c:	ff ef       	ldi	r31, 0xFF	; 255
    3d3e:	5f 07       	cpc	r21, r31
    3d40:	6f 07       	cpc	r22, r31
    3d42:	7f 07       	cpc	r23, r31
    3d44:	09 f0       	breq	.+2      	; 0x3d48 <f_lseek+0x238>
    3d46:	b9 cf       	rjmp	.-142    	; 0x3cba <f_lseek+0x1aa>
    3d48:	81 e0       	ldi	r24, 0x01	; 1
    3d4a:	2c c0       	rjmp	.+88     	; 0x3da4 <f_lseek+0x294>
    3d4c:	82 e0       	ldi	r24, 0x02	; 2
    3d4e:	f1 01       	movw	r30, r2
    3d50:	85 83       	std	Z+5, r24	; 0x05
    3d52:	64 c0       	rjmp	.+200    	; 0x3e1c <f_lseek+0x30c>
    3d54:	0e 94 20 14 	call	0x2840	; 0x2840 <get_fat>
    3d58:	ab 01       	movw	r20, r22
    3d5a:	bc 01       	movw	r22, r24
    3d5c:	ee cf       	rjmp	.-36     	; 0x3d3a <f_lseek+0x22a>
    3d5e:	75 01       	movw	r14, r10
    3d60:	64 01       	movw	r12, r8
    3d62:	f1 01       	movw	r30, r2
    3d64:	86 81       	ldd	r24, Z+6	; 0x06
    3d66:	97 81       	ldd	r25, Z+7	; 0x07
    3d68:	a0 85       	ldd	r26, Z+8	; 0x08
    3d6a:	b1 85       	ldd	r27, Z+9	; 0x09
    3d6c:	8c 0d       	add	r24, r12
    3d6e:	9d 1d       	adc	r25, r13
    3d70:	ae 1d       	adc	r26, r14
    3d72:	bf 1d       	adc	r27, r15
    3d74:	86 83       	std	Z+6, r24	; 0x06
    3d76:	97 83       	std	Z+7, r25	; 0x07
    3d78:	a0 87       	std	Z+8, r26	; 0x08
    3d7a:	b1 87       	std	Z+9, r27	; 0x09
    3d7c:	d7 01       	movw	r26, r14
    3d7e:	c6 01       	movw	r24, r12
    3d80:	91 70       	andi	r25, 0x01	; 1
    3d82:	aa 27       	eor	r26, r26
    3d84:	bb 27       	eor	r27, r27
    3d86:	89 2b       	or	r24, r25
    3d88:	8a 2b       	or	r24, r26
    3d8a:	8b 2b       	or	r24, r27
    3d8c:	09 f4       	brne	.+2      	; 0x3d90 <f_lseek+0x280>
    3d8e:	10 cf       	rjmp	.-480    	; 0x3bb0 <f_lseek+0xa0>
    3d90:	80 81       	ld	r24, Z
    3d92:	91 81       	ldd	r25, Z+1	; 0x01
    3d94:	0e 94 f7 13 	call	0x27ee	; 0x27ee <clust2sect>
    3d98:	61 15       	cp	r22, r1
    3d9a:	71 05       	cpc	r23, r1
    3d9c:	81 05       	cpc	r24, r1
    3d9e:	91 05       	cpc	r25, r1
    3da0:	29 f4       	brne	.+10     	; 0x3dac <f_lseek+0x29c>
    3da2:	82 e0       	ldi	r24, 0x02	; 2
    3da4:	d1 01       	movw	r26, r2
    3da6:	15 96       	adiw	r26, 0x05	; 5
    3da8:	8c 93       	st	X, r24
    3daa:	38 c0       	rjmp	.+112    	; 0x3e1c <f_lseek+0x30c>
    3dac:	b9 e0       	ldi	r27, 0x09	; 9
    3dae:	f6 94       	lsr	r15
    3db0:	e7 94       	ror	r14
    3db2:	d7 94       	ror	r13
    3db4:	c7 94       	ror	r12
    3db6:	ba 95       	dec	r27
    3db8:	d1 f7       	brne	.-12     	; 0x3dae <f_lseek+0x29e>
    3dba:	c6 0e       	add	r12, r22
    3dbc:	d7 1e       	adc	r13, r23
    3dbe:	e8 1e       	adc	r14, r24
    3dc0:	f9 1e       	adc	r15, r25
    3dc2:	f1 01       	movw	r30, r2
    3dc4:	86 81       	ldd	r24, Z+6	; 0x06
    3dc6:	97 81       	ldd	r25, Z+7	; 0x07
    3dc8:	a0 85       	ldd	r26, Z+8	; 0x08
    3dca:	b1 85       	ldd	r27, Z+9	; 0x09
    3dcc:	ac 01       	movw	r20, r24
    3dce:	bd 01       	movw	r22, r26
    3dd0:	51 70       	andi	r21, 0x01	; 1
    3dd2:	66 27       	eor	r22, r22
    3dd4:	77 27       	eor	r23, r23
    3dd6:	45 2b       	or	r20, r21
    3dd8:	46 2b       	or	r20, r22
    3dda:	47 2b       	or	r20, r23
    3ddc:	69 f0       	breq	.+26     	; 0x3df8 <f_lseek+0x2e8>
    3dde:	46 89       	ldd	r20, Z+22	; 0x16
    3de0:	57 89       	ldd	r21, Z+23	; 0x17
    3de2:	60 8d       	ldd	r22, Z+24	; 0x18
    3de4:	71 8d       	ldd	r23, Z+25	; 0x19
    3de6:	c4 16       	cp	r12, r20
    3de8:	d5 06       	cpc	r13, r21
    3dea:	e6 06       	cpc	r14, r22
    3dec:	f7 06       	cpc	r15, r23
    3dee:	21 f0       	breq	.+8      	; 0x3df8 <f_lseek+0x2e8>
    3df0:	c6 8a       	std	Z+22, r12	; 0x16
    3df2:	d7 8a       	std	Z+23, r13	; 0x17
    3df4:	e0 8e       	std	Z+24, r14	; 0x18
    3df6:	f1 8e       	std	Z+25, r15	; 0x19
    3df8:	f1 01       	movw	r30, r2
    3dfa:	42 85       	ldd	r20, Z+10	; 0x0a
    3dfc:	53 85       	ldd	r21, Z+11	; 0x0b
    3dfe:	64 85       	ldd	r22, Z+12	; 0x0c
    3e00:	75 85       	ldd	r23, Z+13	; 0x0d
    3e02:	48 17       	cp	r20, r24
    3e04:	59 07       	cpc	r21, r25
    3e06:	6a 07       	cpc	r22, r26
    3e08:	7b 07       	cpc	r23, r27
    3e0a:	38 f4       	brcc	.+14     	; 0x3e1a <f_lseek+0x30a>
    3e0c:	82 87       	std	Z+10, r24	; 0x0a
    3e0e:	93 87       	std	Z+11, r25	; 0x0b
    3e10:	a4 87       	std	Z+12, r26	; 0x0c
    3e12:	b5 87       	std	Z+13, r27	; 0x0d
    3e14:	84 81       	ldd	r24, Z+4	; 0x04
    3e16:	80 62       	ori	r24, 0x20	; 32
    3e18:	84 83       	std	Z+4, r24	; 0x04
    3e1a:	80 e0       	ldi	r24, 0x00	; 0
    3e1c:	28 96       	adiw	r28, 0x08	; 8
    3e1e:	0f b6       	in	r0, 0x3f	; 63
    3e20:	f8 94       	cli
    3e22:	de bf       	out	0x3e, r29	; 62
    3e24:	0f be       	out	0x3f, r0	; 63
    3e26:	cd bf       	out	0x3d, r28	; 61
    3e28:	df 91       	pop	r29
    3e2a:	cf 91       	pop	r28
    3e2c:	1f 91       	pop	r17
    3e2e:	0f 91       	pop	r16
    3e30:	ff 90       	pop	r15
    3e32:	ef 90       	pop	r14
    3e34:	df 90       	pop	r13
    3e36:	cf 90       	pop	r12
    3e38:	bf 90       	pop	r11
    3e3a:	af 90       	pop	r10
    3e3c:	9f 90       	pop	r9
    3e3e:	8f 90       	pop	r8
    3e40:	7f 90       	pop	r7
    3e42:	6f 90       	pop	r6
    3e44:	5f 90       	pop	r5
    3e46:	4f 90       	pop	r4
    3e48:	3f 90       	pop	r3
    3e4a:	2f 90       	pop	r2
    3e4c:	08 95       	ret

00003e4e <f_stat>:
    3e4e:	ff 92       	push	r15
    3e50:	0f 93       	push	r16
    3e52:	1f 93       	push	r17
    3e54:	cf 93       	push	r28
    3e56:	df 93       	push	r29
    3e58:	cd b7       	in	r28, 0x3d	; 61
    3e5a:	de b7       	in	r29, 0x3e	; 62
    3e5c:	a4 97       	sbiw	r28, 0x24	; 36
    3e5e:	0f b6       	in	r0, 0x3f	; 63
    3e60:	f8 94       	cli
    3e62:	de bf       	out	0x3e, r29	; 62
    3e64:	0f be       	out	0x3f, r0	; 63
    3e66:	cd bf       	out	0x3d, r28	; 61
    3e68:	9c a3       	std	Y+36, r25	; 0x24
    3e6a:	8b a3       	std	Y+35, r24	; 0x23
    3e6c:	8b 01       	movw	r16, r22
    3e6e:	40 e0       	ldi	r20, 0x00	; 0
    3e70:	be 01       	movw	r22, r28
    3e72:	6d 5d       	subi	r22, 0xDD	; 221
    3e74:	7f 4f       	sbci	r23, 0xFF	; 255
    3e76:	ce 01       	movw	r24, r28
    3e78:	01 96       	adiw	r24, 0x01	; 1
    3e7a:	0e 94 2b 11 	call	0x2256	; 0x2256 <find_volume>
    3e7e:	f8 2e       	mov	r15, r24
    3e80:	81 11       	cpse	r24, r1
    3e82:	1a c0       	rjmp	.+52     	; 0x3eb8 <f_stat+0x6a>
    3e84:	ce 01       	movw	r24, r28
    3e86:	47 96       	adiw	r24, 0x17	; 23
    3e88:	9e 8b       	std	Y+22, r25	; 0x16
    3e8a:	8d 8b       	std	Y+21, r24	; 0x15
    3e8c:	6b a1       	ldd	r22, Y+35	; 0x23
    3e8e:	7c a1       	ldd	r23, Y+36	; 0x24
    3e90:	46 97       	sbiw	r24, 0x16	; 22
    3e92:	0f d9       	rcall	.-3554   	; 0x30b2 <follow_path>
    3e94:	f8 2e       	mov	r15, r24
    3e96:	81 11       	cpse	r24, r1
    3e98:	0f c0       	rjmp	.+30     	; 0x3eb8 <f_stat+0x6a>
    3e9a:	2b 89       	ldd	r18, Y+19	; 0x13
    3e9c:	3c 89       	ldd	r19, Y+20	; 0x14
    3e9e:	23 2b       	or	r18, r19
    3ea0:	49 f0       	breq	.+18     	; 0x3eb4 <f_stat+0x66>
    3ea2:	01 15       	cp	r16, r1
    3ea4:	11 05       	cpc	r17, r1
    3ea6:	41 f0       	breq	.+16     	; 0x3eb8 <f_stat+0x6a>
    3ea8:	b8 01       	movw	r22, r16
    3eaa:	ce 01       	movw	r24, r28
    3eac:	01 96       	adiw	r24, 0x01	; 1
    3eae:	0e 94 c8 0f 	call	0x1f90	; 0x1f90 <get_fileinfo>
    3eb2:	02 c0       	rjmp	.+4      	; 0x3eb8 <f_stat+0x6a>
    3eb4:	26 e0       	ldi	r18, 0x06	; 6
    3eb6:	f2 2e       	mov	r15, r18
    3eb8:	8f 2d       	mov	r24, r15
    3eba:	a4 96       	adiw	r28, 0x24	; 36
    3ebc:	0f b6       	in	r0, 0x3f	; 63
    3ebe:	f8 94       	cli
    3ec0:	de bf       	out	0x3e, r29	; 62
    3ec2:	0f be       	out	0x3f, r0	; 63
    3ec4:	cd bf       	out	0x3d, r28	; 61
    3ec6:	df 91       	pop	r29
    3ec8:	cf 91       	pop	r28
    3eca:	1f 91       	pop	r17
    3ecc:	0f 91       	pop	r16
    3ece:	ff 90       	pop	r15
    3ed0:	08 95       	ret

00003ed2 <SCSI_Command_ReadWrite_10>:
    3ed2:	bf 92       	push	r11
    3ed4:	cf 92       	push	r12
    3ed6:	df 92       	push	r13
    3ed8:	ef 92       	push	r14
    3eda:	ff 92       	push	r15
    3edc:	0f 93       	push	r16
    3ede:	1f 93       	push	r17
    3ee0:	cf 93       	push	r28
    3ee2:	df 93       	push	r29
    3ee4:	ec 01       	movw	r28, r24
    3ee6:	b6 2e       	mov	r11, r22
    3ee8:	c8 a0       	ldd	r12, Y+32	; 0x20
    3eea:	df 8c       	ldd	r13, Y+31	; 0x1f
    3eec:	ee 8c       	ldd	r14, Y+30	; 0x1e
    3eee:	fd 8c       	ldd	r15, Y+29	; 0x1d
    3ef0:	0b a1       	ldd	r16, Y+35	; 0x23
    3ef2:	1a a1       	ldd	r17, Y+34	; 0x22
    3ef4:	0e 94 8c 0a 	call	0x1518	; 0x1518 <get_num_of_sectors>
    3ef8:	c6 16       	cp	r12, r22
    3efa:	d7 06       	cpc	r13, r23
    3efc:	e8 06       	cpc	r14, r24
    3efe:	f9 06       	cpc	r15, r25
    3f00:	68 f0       	brcs	.+26     	; 0x3f1c <SCSI_Command_ReadWrite_10+0x4a>
    3f02:	80 91 10 01 	lds	r24, 0x0110
    3f06:	80 7f       	andi	r24, 0xF0	; 240
    3f08:	85 60       	ori	r24, 0x05	; 5
    3f0a:	80 93 10 01 	sts	0x0110, r24
    3f0e:	81 e2       	ldi	r24, 0x21	; 33
    3f10:	80 93 1a 01 	sts	0x011A, r24
    3f14:	10 92 1b 01 	sts	0x011B, r1
    3f18:	80 e0       	ldi	r24, 0x00	; 0
    3f1a:	22 c0       	rjmp	.+68     	; 0x3f60 <SCSI_Command_ReadWrite_10+0x8e>
    3f1c:	98 01       	movw	r18, r16
    3f1e:	b7 01       	movw	r22, r14
    3f20:	a6 01       	movw	r20, r12
    3f22:	ce 01       	movw	r24, r28
    3f24:	bb 20       	and	r11, r11
    3f26:	11 f0       	breq	.+4      	; 0x3f2c <SCSI_Command_ReadWrite_10+0x5a>
    3f28:	79 d2       	rcall	.+1266   	; 0x441c <SDCardManager_ReadBlocks>
    3f2a:	01 c0       	rjmp	.+2      	; 0x3f2e <SCSI_Command_ReadWrite_10+0x5c>
    3f2c:	d1 d1       	rcall	.+930    	; 0x42d0 <SDCardManager_WriteBlocks>
    3f2e:	c8 01       	movw	r24, r16
    3f30:	a0 e0       	ldi	r26, 0x00	; 0
    3f32:	b0 e0       	ldi	r27, 0x00	; 0
    3f34:	29 e0       	ldi	r18, 0x09	; 9
    3f36:	88 0f       	add	r24, r24
    3f38:	99 1f       	adc	r25, r25
    3f3a:	aa 1f       	adc	r26, r26
    3f3c:	bb 1f       	adc	r27, r27
    3f3e:	2a 95       	dec	r18
    3f40:	d1 f7       	brne	.-12     	; 0x3f36 <SCSI_Command_ReadWrite_10+0x64>
    3f42:	4c 89       	ldd	r20, Y+20	; 0x14
    3f44:	5d 89       	ldd	r21, Y+21	; 0x15
    3f46:	6e 89       	ldd	r22, Y+22	; 0x16
    3f48:	7f 89       	ldd	r23, Y+23	; 0x17
    3f4a:	8a 01       	movw	r16, r20
    3f4c:	9b 01       	movw	r18, r22
    3f4e:	08 1b       	sub	r16, r24
    3f50:	19 0b       	sbc	r17, r25
    3f52:	2a 0b       	sbc	r18, r26
    3f54:	3b 0b       	sbc	r19, r27
    3f56:	0c 8b       	std	Y+20, r16	; 0x14
    3f58:	1d 8b       	std	Y+21, r17	; 0x15
    3f5a:	2e 8b       	std	Y+22, r18	; 0x16
    3f5c:	3f 8b       	std	Y+23, r19	; 0x17
    3f5e:	81 e0       	ldi	r24, 0x01	; 1
    3f60:	df 91       	pop	r29
    3f62:	cf 91       	pop	r28
    3f64:	1f 91       	pop	r17
    3f66:	0f 91       	pop	r16
    3f68:	ff 90       	pop	r15
    3f6a:	ef 90       	pop	r14
    3f6c:	df 90       	pop	r13
    3f6e:	cf 90       	pop	r12
    3f70:	bf 90       	pop	r11
    3f72:	08 95       	ret

00003f74 <SCSI_DecodeSCSICommand>:
    3f74:	cf 92       	push	r12
    3f76:	df 92       	push	r13
    3f78:	ef 92       	push	r14
    3f7a:	ff 92       	push	r15
    3f7c:	0f 93       	push	r16
    3f7e:	1f 93       	push	r17
    3f80:	cf 93       	push	r28
    3f82:	df 93       	push	r29
    3f84:	cd b7       	in	r28, 0x3d	; 61
    3f86:	de b7       	in	r29, 0x3e	; 62
    3f88:	28 97       	sbiw	r28, 0x08	; 8
    3f8a:	0f b6       	in	r0, 0x3f	; 63
    3f8c:	f8 94       	cli
    3f8e:	de bf       	out	0x3e, r29	; 62
    3f90:	0f be       	out	0x3f, r0	; 63
    3f92:	cd bf       	out	0x3d, r28	; 61
    3f94:	8c 01       	movw	r16, r24
    3f96:	fc 01       	movw	r30, r24
    3f98:	83 8d       	ldd	r24, Z+27	; 0x1b
    3f9a:	8d 31       	cpi	r24, 0x1D	; 29
    3f9c:	09 f4       	brne	.+2      	; 0x3fa0 <SCSI_DecodeSCSICommand+0x2c>
    3f9e:	c2 c0       	rjmp	.+388    	; 0x4124 <SCSI_DecodeSCSICommand+0x1b0>
    3fa0:	88 f4       	brcc	.+34     	; 0x3fc4 <SCSI_DecodeSCSICommand+0x50>
    3fa2:	82 31       	cpi	r24, 0x12	; 18
    3fa4:	09 f1       	breq	.+66     	; 0x3fe8 <SCSI_DecodeSCSICommand+0x74>
    3fa6:	38 f4       	brcc	.+14     	; 0x3fb6 <SCSI_DecodeSCSICommand+0x42>
    3fa8:	88 23       	and	r24, r24
    3faa:	09 f4       	brne	.+2      	; 0x3fae <SCSI_DecodeSCSICommand+0x3a>
    3fac:	ff c0       	rjmp	.+510    	; 0x41ac <SCSI_DecodeSCSICommand+0x238>
    3fae:	83 30       	cpi	r24, 0x03	; 3
    3fb0:	09 f4       	brne	.+2      	; 0x3fb4 <SCSI_DecodeSCSICommand+0x40>
    3fb2:	50 c0       	rjmp	.+160    	; 0x4054 <SCSI_DecodeSCSICommand+0xe0>
    3fb4:	0a c1       	rjmp	.+532    	; 0x41ca <SCSI_DecodeSCSICommand+0x256>
    3fb6:	8a 31       	cpi	r24, 0x1A	; 26
    3fb8:	09 f4       	brne	.+2      	; 0x3fbc <SCSI_DecodeSCSICommand+0x48>
    3fba:	de c0       	rjmp	.+444    	; 0x4178 <SCSI_DecodeSCSICommand+0x204>
    3fbc:	8b 31       	cpi	r24, 0x1B	; 27
    3fbe:	09 f4       	brne	.+2      	; 0x3fc2 <SCSI_DecodeSCSICommand+0x4e>
    3fc0:	fe c0       	rjmp	.+508    	; 0x41be <SCSI_DecodeSCSICommand+0x24a>
    3fc2:	03 c1       	rjmp	.+518    	; 0x41ca <SCSI_DecodeSCSICommand+0x256>
    3fc4:	88 32       	cpi	r24, 0x28	; 40
    3fc6:	09 f4       	brne	.+2      	; 0x3fca <SCSI_DecodeSCSICommand+0x56>
    3fc8:	c8 c0       	rjmp	.+400    	; 0x415a <SCSI_DecodeSCSICommand+0x1e6>
    3fca:	38 f4       	brcc	.+14     	; 0x3fda <SCSI_DecodeSCSICommand+0x66>
    3fcc:	8e 31       	cpi	r24, 0x1E	; 30
    3fce:	09 f4       	brne	.+2      	; 0x3fd2 <SCSI_DecodeSCSICommand+0x5e>
    3fd0:	f6 c0       	rjmp	.+492    	; 0x41be <SCSI_DecodeSCSICommand+0x24a>
    3fd2:	85 32       	cpi	r24, 0x25	; 37
    3fd4:	09 f4       	brne	.+2      	; 0x3fd8 <SCSI_DecodeSCSICommand+0x64>
    3fd6:	66 c0       	rjmp	.+204    	; 0x40a4 <SCSI_DecodeSCSICommand+0x130>
    3fd8:	f8 c0       	rjmp	.+496    	; 0x41ca <SCSI_DecodeSCSICommand+0x256>
    3fda:	8a 32       	cpi	r24, 0x2A	; 42
    3fdc:	09 f4       	brne	.+2      	; 0x3fe0 <SCSI_DecodeSCSICommand+0x6c>
    3fde:	b2 c0       	rjmp	.+356    	; 0x4144 <SCSI_DecodeSCSICommand+0x1d0>
    3fe0:	8f 32       	cpi	r24, 0x2F	; 47
    3fe2:	09 f4       	brne	.+2      	; 0x3fe6 <SCSI_DecodeSCSICommand+0x72>
    3fe4:	ec c0       	rjmp	.+472    	; 0x41be <SCSI_DecodeSCSICommand+0x24a>
    3fe6:	f1 c0       	rjmp	.+482    	; 0x41ca <SCSI_DecodeSCSICommand+0x256>
    3fe8:	f8 01       	movw	r30, r16
    3fea:	e7 8c       	ldd	r14, Z+31	; 0x1f
    3fec:	f6 8c       	ldd	r15, Z+30	; 0x1e
    3fee:	84 8d       	ldd	r24, Z+28	; 0x1c
    3ff0:	83 70       	andi	r24, 0x03	; 3
    3ff2:	19 f4       	brne	.+6      	; 0x3ffa <SCSI_DecodeSCSICommand+0x86>
    3ff4:	85 8d       	ldd	r24, Z+29	; 0x1d
    3ff6:	88 23       	and	r24, r24
    3ff8:	41 f0       	breq	.+16     	; 0x400a <SCSI_DecodeSCSICommand+0x96>
    3ffa:	80 91 10 01 	lds	r24, 0x0110
    3ffe:	80 7f       	andi	r24, 0xF0	; 240
    4000:	85 60       	ori	r24, 0x05	; 5
    4002:	80 93 10 01 	sts	0x0110, r24
    4006:	84 e2       	ldi	r24, 0x24	; 36
    4008:	e7 c0       	rjmp	.+462    	; 0x41d8 <SCSI_DecodeSCSICommand+0x264>
    400a:	67 01       	movw	r12, r14
    400c:	f5 e2       	ldi	r31, 0x25	; 37
    400e:	ef 16       	cp	r14, r31
    4010:	f1 04       	cpc	r15, r1
    4012:	18 f0       	brcs	.+6      	; 0x401a <SCSI_DecodeSCSICommand+0xa6>
    4014:	94 e2       	ldi	r25, 0x24	; 36
    4016:	c9 2e       	mov	r12, r25
    4018:	d1 2c       	mov	r13, r1
    401a:	40 e0       	ldi	r20, 0x00	; 0
    401c:	50 e0       	ldi	r21, 0x00	; 0
    401e:	b6 01       	movw	r22, r12
    4020:	85 eb       	ldi	r24, 0xB5	; 181
    4022:	93 e0       	ldi	r25, 0x03	; 3
    4024:	0e 94 d1 2d 	call	0x5ba2	; 0x5ba2 <Endpoint_Write_Stream_LE>
    4028:	60 e0       	ldi	r22, 0x00	; 0
    402a:	70 e0       	ldi	r23, 0x00	; 0
    402c:	c7 01       	movw	r24, r14
    402e:	8c 19       	sub	r24, r12
    4030:	9d 09       	sbc	r25, r13
    4032:	0e 94 93 2d 	call	0x5b26	; 0x5b26 <Endpoint_Null_Stream>
    4036:	80 91 e8 00 	lds	r24, 0x00E8
    403a:	8e 77       	andi	r24, 0x7E	; 126
    403c:	80 93 e8 00 	sts	0x00E8, r24
    4040:	f8 01       	movw	r30, r16
    4042:	84 89       	ldd	r24, Z+20	; 0x14
    4044:	95 89       	ldd	r25, Z+21	; 0x15
    4046:	a6 89       	ldd	r26, Z+22	; 0x16
    4048:	b7 89       	ldd	r27, Z+23	; 0x17
    404a:	8c 19       	sub	r24, r12
    404c:	9d 09       	sbc	r25, r13
    404e:	a1 09       	sbc	r26, r1
    4050:	b1 09       	sbc	r27, r1
    4052:	a7 c0       	rjmp	.+334    	; 0x41a2 <SCSI_DecodeSCSICommand+0x22e>
    4054:	f8 01       	movw	r30, r16
    4056:	f7 8c       	ldd	r15, Z+31	; 0x1f
    4058:	ef 2c       	mov	r14, r15
    405a:	f2 e1       	ldi	r31, 0x12	; 18
    405c:	ff 15       	cp	r31, r15
    405e:	10 f4       	brcc	.+4      	; 0x4064 <SCSI_DecodeSCSICommand+0xf0>
    4060:	82 e1       	ldi	r24, 0x12	; 18
    4062:	e8 2e       	mov	r14, r24
    4064:	ce 2c       	mov	r12, r14
    4066:	d1 2c       	mov	r13, r1
    4068:	40 e0       	ldi	r20, 0x00	; 0
    406a:	50 e0       	ldi	r21, 0x00	; 0
    406c:	b6 01       	movw	r22, r12
    406e:	8e e0       	ldi	r24, 0x0E	; 14
    4070:	91 e0       	ldi	r25, 0x01	; 1
    4072:	0e 94 d1 2d 	call	0x5ba2	; 0x5ba2 <Endpoint_Write_Stream_LE>
    4076:	8f 2d       	mov	r24, r15
    4078:	90 e0       	ldi	r25, 0x00	; 0
    407a:	60 e0       	ldi	r22, 0x00	; 0
    407c:	70 e0       	ldi	r23, 0x00	; 0
    407e:	8c 19       	sub	r24, r12
    4080:	9d 09       	sbc	r25, r13
    4082:	0e 94 93 2d 	call	0x5b26	; 0x5b26 <Endpoint_Null_Stream>
    4086:	80 91 e8 00 	lds	r24, 0x00E8
    408a:	8e 77       	andi	r24, 0x7E	; 126
    408c:	80 93 e8 00 	sts	0x00E8, r24
    4090:	f8 01       	movw	r30, r16
    4092:	84 89       	ldd	r24, Z+20	; 0x14
    4094:	95 89       	ldd	r25, Z+21	; 0x15
    4096:	a6 89       	ldd	r26, Z+22	; 0x16
    4098:	b7 89       	ldd	r27, Z+23	; 0x17
    409a:	8e 19       	sub	r24, r14
    409c:	91 09       	sbc	r25, r1
    409e:	a1 09       	sbc	r26, r1
    40a0:	b1 09       	sbc	r27, r1
    40a2:	7f c0       	rjmp	.+254    	; 0x41a2 <SCSI_DecodeSCSICommand+0x22e>
    40a4:	14 d2       	rcall	.+1064   	; 0x44ce <SDCardManager_CheckSDCardOperation>
    40a6:	81 11       	cpse	r24, r1
    40a8:	08 c0       	rjmp	.+16     	; 0x40ba <SCSI_DecodeSCSICommand+0x146>
    40aa:	80 91 10 01 	lds	r24, 0x0110
    40ae:	80 7f       	andi	r24, 0xF0	; 240
    40b0:	82 60       	ori	r24, 0x02	; 2
    40b2:	80 93 10 01 	sts	0x0110, r24
    40b6:	8a e3       	ldi	r24, 0x3A	; 58
    40b8:	8f c0       	rjmp	.+286    	; 0x41d8 <SCSI_DecodeSCSICommand+0x264>
    40ba:	80 91 38 08 	lds	r24, 0x0838
    40be:	81 30       	cpi	r24, 0x01	; 1
    40c0:	a1 f7       	brne	.-24     	; 0x40aa <SCSI_DecodeSCSICommand+0x136>
    40c2:	80 e0       	ldi	r24, 0x00	; 0
    40c4:	92 e0       	ldi	r25, 0x02	; 2
    40c6:	a0 e0       	ldi	r26, 0x00	; 0
    40c8:	b0 e0       	ldi	r27, 0x00	; 0
    40ca:	89 83       	std	Y+1, r24	; 0x01
    40cc:	9a 83       	std	Y+2, r25	; 0x02
    40ce:	ab 83       	std	Y+3, r26	; 0x03
    40d0:	bc 83       	std	Y+4, r27	; 0x04
    40d2:	0e 94 8c 0a 	call	0x1518	; 0x1518 <get_num_of_sectors>
    40d6:	dc 01       	movw	r26, r24
    40d8:	cb 01       	movw	r24, r22
    40da:	01 97       	sbiw	r24, 0x01	; 1
    40dc:	a1 09       	sbc	r26, r1
    40de:	b1 09       	sbc	r27, r1
    40e0:	8d 83       	std	Y+5, r24	; 0x05
    40e2:	9e 83       	std	Y+6, r25	; 0x06
    40e4:	af 83       	std	Y+7, r26	; 0x07
    40e6:	b8 87       	std	Y+8, r27	; 0x08
    40e8:	40 e0       	ldi	r20, 0x00	; 0
    40ea:	50 e0       	ldi	r21, 0x00	; 0
    40ec:	64 e0       	ldi	r22, 0x04	; 4
    40ee:	70 e0       	ldi	r23, 0x00	; 0
    40f0:	ce 01       	movw	r24, r28
    40f2:	05 96       	adiw	r24, 0x05	; 5
    40f4:	0e 94 1b 2e 	call	0x5c36	; 0x5c36 <Endpoint_Write_Stream_BE>
    40f8:	40 e0       	ldi	r20, 0x00	; 0
    40fa:	50 e0       	ldi	r21, 0x00	; 0
    40fc:	64 e0       	ldi	r22, 0x04	; 4
    40fe:	70 e0       	ldi	r23, 0x00	; 0
    4100:	ce 01       	movw	r24, r28
    4102:	01 96       	adiw	r24, 0x01	; 1
    4104:	0e 94 1b 2e 	call	0x5c36	; 0x5c36 <Endpoint_Write_Stream_BE>
    4108:	80 91 e8 00 	lds	r24, 0x00E8
    410c:	8e 77       	andi	r24, 0x7E	; 126
    410e:	80 93 e8 00 	sts	0x00E8, r24
    4112:	f8 01       	movw	r30, r16
    4114:	84 89       	ldd	r24, Z+20	; 0x14
    4116:	95 89       	ldd	r25, Z+21	; 0x15
    4118:	a6 89       	ldd	r26, Z+22	; 0x16
    411a:	b7 89       	ldd	r27, Z+23	; 0x17
    411c:	08 97       	sbiw	r24, 0x08	; 8
    411e:	a1 09       	sbc	r26, r1
    4120:	b1 09       	sbc	r27, r1
    4122:	3f c0       	rjmp	.+126    	; 0x41a2 <SCSI_DecodeSCSICommand+0x22e>
    4124:	f8 01       	movw	r30, r16
    4126:	84 8d       	ldd	r24, Z+28	; 0x1c
    4128:	82 ff       	sbrs	r24, 2
    412a:	67 cf       	rjmp	.-306    	; 0x3ffa <SCSI_DecodeSCSICommand+0x86>
    412c:	d0 d1       	rcall	.+928    	; 0x44ce <SDCardManager_CheckSDCardOperation>
    412e:	81 11       	cpse	r24, r1
    4130:	46 c0       	rjmp	.+140    	; 0x41be <SCSI_DecodeSCSICommand+0x24a>
    4132:	80 91 10 01 	lds	r24, 0x0110
    4136:	80 7f       	andi	r24, 0xF0	; 240
    4138:	84 60       	ori	r24, 0x04	; 4
    413a:	80 93 10 01 	sts	0x0110, r24
    413e:	10 92 1a 01 	sts	0x011A, r1
    4142:	4c c0       	rjmp	.+152    	; 0x41dc <SCSI_DecodeSCSICommand+0x268>
    4144:	c4 d1       	rcall	.+904    	; 0x44ce <SDCardManager_CheckSDCardOperation>
    4146:	88 23       	and	r24, r24
    4148:	09 f4       	brne	.+2      	; 0x414c <SCSI_DecodeSCSICommand+0x1d8>
    414a:	af cf       	rjmp	.-162    	; 0x40aa <SCSI_DecodeSCSICommand+0x136>
    414c:	80 91 38 08 	lds	r24, 0x0838
    4150:	81 30       	cpi	r24, 0x01	; 1
    4152:	09 f0       	breq	.+2      	; 0x4156 <SCSI_DecodeSCSICommand+0x1e2>
    4154:	aa cf       	rjmp	.-172    	; 0x40aa <SCSI_DecodeSCSICommand+0x136>
    4156:	60 e0       	ldi	r22, 0x00	; 0
    4158:	0a c0       	rjmp	.+20     	; 0x416e <SCSI_DecodeSCSICommand+0x1fa>
    415a:	b9 d1       	rcall	.+882    	; 0x44ce <SDCardManager_CheckSDCardOperation>
    415c:	88 23       	and	r24, r24
    415e:	09 f4       	brne	.+2      	; 0x4162 <SCSI_DecodeSCSICommand+0x1ee>
    4160:	a4 cf       	rjmp	.-184    	; 0x40aa <SCSI_DecodeSCSICommand+0x136>
    4162:	80 91 38 08 	lds	r24, 0x0838
    4166:	81 30       	cpi	r24, 0x01	; 1
    4168:	09 f0       	breq	.+2      	; 0x416c <SCSI_DecodeSCSICommand+0x1f8>
    416a:	9f cf       	rjmp	.-194    	; 0x40aa <SCSI_DecodeSCSICommand+0x136>
    416c:	61 e0       	ldi	r22, 0x01	; 1
    416e:	c8 01       	movw	r24, r16
    4170:	b0 de       	rcall	.-672    	; 0x3ed2 <SCSI_Command_ReadWrite_10>
    4172:	81 11       	cpse	r24, r1
    4174:	36 c0       	rjmp	.+108    	; 0x41e2 <SCSI_DecodeSCSICommand+0x26e>
    4176:	40 c0       	rjmp	.+128    	; 0x41f8 <SCSI_DecodeSCSICommand+0x284>
    4178:	10 92 f1 00 	sts	0x00F1, r1
    417c:	10 92 f1 00 	sts	0x00F1, r1
    4180:	10 92 f1 00 	sts	0x00F1, r1
    4184:	10 92 f1 00 	sts	0x00F1, r1
    4188:	80 91 e8 00 	lds	r24, 0x00E8
    418c:	8e 77       	andi	r24, 0x7E	; 126
    418e:	80 93 e8 00 	sts	0x00E8, r24
    4192:	f8 01       	movw	r30, r16
    4194:	84 89       	ldd	r24, Z+20	; 0x14
    4196:	95 89       	ldd	r25, Z+21	; 0x15
    4198:	a6 89       	ldd	r26, Z+22	; 0x16
    419a:	b7 89       	ldd	r27, Z+23	; 0x17
    419c:	04 97       	sbiw	r24, 0x04	; 4
    419e:	a1 09       	sbc	r26, r1
    41a0:	b1 09       	sbc	r27, r1
    41a2:	84 8b       	std	Z+20, r24	; 0x14
    41a4:	95 8b       	std	Z+21, r25	; 0x15
    41a6:	a6 8b       	std	Z+22, r26	; 0x16
    41a8:	b7 8b       	std	Z+23, r27	; 0x17
    41aa:	1b c0       	rjmp	.+54     	; 0x41e2 <SCSI_DecodeSCSICommand+0x26e>
    41ac:	90 d1       	rcall	.+800    	; 0x44ce <SDCardManager_CheckSDCardOperation>
    41ae:	88 23       	and	r24, r24
    41b0:	09 f4       	brne	.+2      	; 0x41b4 <SCSI_DecodeSCSICommand+0x240>
    41b2:	7b cf       	rjmp	.-266    	; 0x40aa <SCSI_DecodeSCSICommand+0x136>
    41b4:	80 91 38 08 	lds	r24, 0x0838
    41b8:	81 30       	cpi	r24, 0x01	; 1
    41ba:	09 f0       	breq	.+2      	; 0x41be <SCSI_DecodeSCSICommand+0x24a>
    41bc:	76 cf       	rjmp	.-276    	; 0x40aa <SCSI_DecodeSCSICommand+0x136>
    41be:	f8 01       	movw	r30, r16
    41c0:	14 8a       	std	Z+20, r1	; 0x14
    41c2:	15 8a       	std	Z+21, r1	; 0x15
    41c4:	16 8a       	std	Z+22, r1	; 0x16
    41c6:	17 8a       	std	Z+23, r1	; 0x17
    41c8:	0c c0       	rjmp	.+24     	; 0x41e2 <SCSI_DecodeSCSICommand+0x26e>
    41ca:	80 91 10 01 	lds	r24, 0x0110
    41ce:	80 7f       	andi	r24, 0xF0	; 240
    41d0:	85 60       	ori	r24, 0x05	; 5
    41d2:	80 93 10 01 	sts	0x0110, r24
    41d6:	80 e2       	ldi	r24, 0x20	; 32
    41d8:	80 93 1a 01 	sts	0x011A, r24
    41dc:	10 92 1b 01 	sts	0x011B, r1
    41e0:	0b c0       	rjmp	.+22     	; 0x41f8 <SCSI_DecodeSCSICommand+0x284>
    41e2:	80 91 10 01 	lds	r24, 0x0110
    41e6:	80 7f       	andi	r24, 0xF0	; 240
    41e8:	80 93 10 01 	sts	0x0110, r24
    41ec:	10 92 1a 01 	sts	0x011A, r1
    41f0:	10 92 1b 01 	sts	0x011B, r1
    41f4:	81 e0       	ldi	r24, 0x01	; 1
    41f6:	01 c0       	rjmp	.+2      	; 0x41fa <SCSI_DecodeSCSICommand+0x286>
    41f8:	80 e0       	ldi	r24, 0x00	; 0
    41fa:	28 96       	adiw	r28, 0x08	; 8
    41fc:	0f b6       	in	r0, 0x3f	; 63
    41fe:	f8 94       	cli
    4200:	de bf       	out	0x3e, r29	; 62
    4202:	0f be       	out	0x3f, r0	; 63
    4204:	cd bf       	out	0x3d, r28	; 61
    4206:	df 91       	pop	r29
    4208:	cf 91       	pop	r28
    420a:	1f 91       	pop	r17
    420c:	0f 91       	pop	r16
    420e:	ff 90       	pop	r15
    4210:	ef 90       	pop	r14
    4212:	df 90       	pop	r13
    4214:	cf 90       	pop	r12
    4216:	08 95       	ret

00004218 <SDCardManager_Init>:
    4218:	80 e0       	ldi	r24, 0x00	; 0
    421a:	0e 94 c7 0d 	call	0x1b8e	; 0x1b8e <disk_initialize>
    421e:	81 11       	cpse	r24, r1
    4220:	04 c0       	rjmp	.+8      	; 0x422a <SDCardManager_Init+0x12>
    4222:	81 e0       	ldi	r24, 0x01	; 1
    4224:	80 93 38 06 	sts	0x0638, r24
    4228:	08 95       	ret
    422a:	10 92 38 06 	sts	0x0638, r1
    422e:	08 95       	ret

00004230 <SDCardManager_WriteBlockHandler>:
    4230:	0f 93       	push	r16
    4232:	1f 93       	push	r17
    4234:	cf 93       	push	r28
    4236:	df 93       	push	r29
    4238:	8c 01       	movw	r16, r24
    423a:	eb 01       	movw	r28, r22
    423c:	80 91 e8 00 	lds	r24, 0x00E8
    4240:	85 ff       	sbrs	r24, 5
    4242:	36 c0       	rjmp	.+108    	; 0x42b0 <SDCardManager_WriteBlockHandler+0x80>
    4244:	80 91 f1 00 	lds	r24, 0x00F1
    4248:	f8 01       	movw	r30, r16
    424a:	ec 0f       	add	r30, r28
    424c:	fd 1f       	adc	r31, r29
    424e:	80 83       	st	Z, r24
    4250:	80 91 f1 00 	lds	r24, 0x00F1
    4254:	81 83       	std	Z+1, r24	; 0x01
    4256:	80 91 f1 00 	lds	r24, 0x00F1
    425a:	82 83       	std	Z+2, r24	; 0x02
    425c:	80 91 f1 00 	lds	r24, 0x00F1
    4260:	83 83       	std	Z+3, r24	; 0x03
    4262:	80 91 f1 00 	lds	r24, 0x00F1
    4266:	84 83       	std	Z+4, r24	; 0x04
    4268:	80 91 f1 00 	lds	r24, 0x00F1
    426c:	85 83       	std	Z+5, r24	; 0x05
    426e:	80 91 f1 00 	lds	r24, 0x00F1
    4272:	86 83       	std	Z+6, r24	; 0x06
    4274:	80 91 f1 00 	lds	r24, 0x00F1
    4278:	87 83       	std	Z+7, r24	; 0x07
    427a:	80 91 f1 00 	lds	r24, 0x00F1
    427e:	80 87       	std	Z+8, r24	; 0x08
    4280:	80 91 f1 00 	lds	r24, 0x00F1
    4284:	81 87       	std	Z+9, r24	; 0x09
    4286:	80 91 f1 00 	lds	r24, 0x00F1
    428a:	82 87       	std	Z+10, r24	; 0x0a
    428c:	80 91 f1 00 	lds	r24, 0x00F1
    4290:	83 87       	std	Z+11, r24	; 0x0b
    4292:	80 91 f1 00 	lds	r24, 0x00F1
    4296:	84 87       	std	Z+12, r24	; 0x0c
    4298:	80 91 f1 00 	lds	r24, 0x00F1
    429c:	85 87       	std	Z+13, r24	; 0x0d
    429e:	80 91 f1 00 	lds	r24, 0x00F1
    42a2:	86 87       	std	Z+14, r24	; 0x0e
    42a4:	80 91 f1 00 	lds	r24, 0x00F1
    42a8:	87 87       	std	Z+15, r24	; 0x0f
    42aa:	80 e1       	ldi	r24, 0x10	; 16
    42ac:	90 e0       	ldi	r25, 0x00	; 0
    42ae:	0b c0       	rjmp	.+22     	; 0x42c6 <SDCardManager_WriteBlockHandler+0x96>
    42b0:	90 91 e8 00 	lds	r25, 0x00E8
    42b4:	9b 77       	andi	r25, 0x7B	; 123
    42b6:	90 93 e8 00 	sts	0x00E8, r25
    42ba:	0e 94 55 30 	call	0x60aa	; 0x60aa <Endpoint_WaitUntilReady>
    42be:	88 23       	and	r24, r24
    42c0:	09 f2       	breq	.-126    	; 0x4244 <SDCardManager_WriteBlockHandler+0x14>
    42c2:	80 e0       	ldi	r24, 0x00	; 0
    42c4:	90 e0       	ldi	r25, 0x00	; 0
    42c6:	df 91       	pop	r29
    42c8:	cf 91       	pop	r28
    42ca:	1f 91       	pop	r17
    42cc:	0f 91       	pop	r16
    42ce:	08 95       	ret

000042d0 <SDCardManager_WriteBlocks>:
    42d0:	8f 92       	push	r8
    42d2:	9f 92       	push	r9
    42d4:	af 92       	push	r10
    42d6:	bf 92       	push	r11
    42d8:	cf 92       	push	r12
    42da:	df 92       	push	r13
    42dc:	ef 92       	push	r14
    42de:	ff 92       	push	r15
    42e0:	0f 93       	push	r16
    42e2:	1f 93       	push	r17
    42e4:	cf 93       	push	r28
    42e6:	df 93       	push	r29
    42e8:	6c 01       	movw	r12, r24
    42ea:	4a 01       	movw	r8, r20
    42ec:	5b 01       	movw	r10, r22
    42ee:	79 01       	movw	r14, r18
    42f0:	0e 94 55 30 	call	0x60aa	; 0x60aa <Endpoint_WaitUntilReady>
    42f4:	81 11       	cpse	r24, r1
    42f6:	33 c0       	rjmp	.+102    	; 0x435e <SDCardManager_WriteBlocks+0x8e>
    42f8:	e1 14       	cp	r14, r1
    42fa:	f1 04       	cpc	r15, r1
    42fc:	31 f1       	breq	.+76     	; 0x434a <SDCardManager_WriteBlocks+0x7a>
    42fe:	2e 98       	cbi	0x05, 6	; 5
    4300:	c0 e0       	ldi	r28, 0x00	; 0
    4302:	d0 e0       	ldi	r29, 0x00	; 0
    4304:	be 01       	movw	r22, r28
    4306:	89 e3       	ldi	r24, 0x39	; 57
    4308:	98 e0       	ldi	r25, 0x08	; 8
    430a:	92 df       	rcall	.-220    	; 0x4230 <SDCardManager_WriteBlockHandler>
    430c:	c8 0f       	add	r28, r24
    430e:	d9 1f       	adc	r29, r25
    4310:	80 91 7d 0a 	lds	r24, 0x0A7D
    4314:	84 30       	cpi	r24, 0x04	; 4
    4316:	19 f5       	brne	.+70     	; 0x435e <SDCardManager_WriteBlocks+0x8e>
    4318:	f6 01       	movw	r30, r12
    431a:	80 ad       	ldd	r24, Z+56	; 0x38
    431c:	81 11       	cpse	r24, r1
    431e:	1f c0       	rjmp	.+62     	; 0x435e <SDCardManager_WriteBlocks+0x8e>
    4320:	c1 15       	cp	r28, r1
    4322:	f2 e0       	ldi	r31, 0x02	; 2
    4324:	df 07       	cpc	r29, r31
    4326:	70 f3       	brcs	.-36     	; 0x4304 <SDCardManager_WriteBlocks+0x34>
    4328:	01 e0       	ldi	r16, 0x01	; 1
    432a:	10 e0       	ldi	r17, 0x00	; 0
    432c:	a5 01       	movw	r20, r10
    432e:	94 01       	movw	r18, r8
    4330:	69 e3       	ldi	r22, 0x39	; 57
    4332:	78 e0       	ldi	r23, 0x08	; 8
    4334:	0e 94 a9 0e 	call	0x1d52	; 0x1d52 <disk_write>
    4338:	8f ef       	ldi	r24, 0xFF	; 255
    433a:	88 1a       	sub	r8, r24
    433c:	98 0a       	sbc	r9, r24
    433e:	a8 0a       	sbc	r10, r24
    4340:	b8 0a       	sbc	r11, r24
    4342:	e1 e0       	ldi	r30, 0x01	; 1
    4344:	ee 1a       	sub	r14, r30
    4346:	f1 08       	sbc	r15, r1
    4348:	d7 cf       	rjmp	.-82     	; 0x42f8 <SDCardManager_WriteBlocks+0x28>
    434a:	80 91 e8 00 	lds	r24, 0x00E8
    434e:	85 fd       	sbrc	r24, 5
    4350:	05 c0       	rjmp	.+10     	; 0x435c <SDCardManager_WriteBlocks+0x8c>
    4352:	80 91 e8 00 	lds	r24, 0x00E8
    4356:	8b 77       	andi	r24, 0x7B	; 123
    4358:	80 93 e8 00 	sts	0x00E8, r24
    435c:	2e 9a       	sbi	0x05, 6	; 5
    435e:	df 91       	pop	r29
    4360:	cf 91       	pop	r28
    4362:	1f 91       	pop	r17
    4364:	0f 91       	pop	r16
    4366:	ff 90       	pop	r15
    4368:	ef 90       	pop	r14
    436a:	df 90       	pop	r13
    436c:	cf 90       	pop	r12
    436e:	bf 90       	pop	r11
    4370:	af 90       	pop	r10
    4372:	9f 90       	pop	r9
    4374:	8f 90       	pop	r8
    4376:	08 95       	ret

00004378 <SDCardManager_ReadBlockHandler>:
    4378:	ef 92       	push	r14
    437a:	ff 92       	push	r15
    437c:	1f 93       	push	r17
    437e:	cf 93       	push	r28
    4380:	df 93       	push	r29
    4382:	7c 01       	movw	r14, r24
    4384:	eb 01       	movw	r28, r22
    4386:	90 91 e8 00 	lds	r25, 0x00E8
    438a:	19 2f       	mov	r17, r25
    438c:	10 72       	andi	r17, 0x20	; 32
    438e:	95 ff       	sbrs	r25, 5
    4390:	35 c0       	rjmp	.+106    	; 0x43fc <SDCardManager_ReadBlockHandler+0x84>
    4392:	f7 01       	movw	r30, r14
    4394:	ec 0f       	add	r30, r28
    4396:	fd 1f       	adc	r31, r29
    4398:	80 81       	ld	r24, Z
    439a:	80 93 f1 00 	sts	0x00F1, r24
    439e:	81 81       	ldd	r24, Z+1	; 0x01
    43a0:	80 93 f1 00 	sts	0x00F1, r24
    43a4:	82 81       	ldd	r24, Z+2	; 0x02
    43a6:	80 93 f1 00 	sts	0x00F1, r24
    43aa:	83 81       	ldd	r24, Z+3	; 0x03
    43ac:	80 93 f1 00 	sts	0x00F1, r24
    43b0:	84 81       	ldd	r24, Z+4	; 0x04
    43b2:	80 93 f1 00 	sts	0x00F1, r24
    43b6:	85 81       	ldd	r24, Z+5	; 0x05
    43b8:	80 93 f1 00 	sts	0x00F1, r24
    43bc:	86 81       	ldd	r24, Z+6	; 0x06
    43be:	80 93 f1 00 	sts	0x00F1, r24
    43c2:	87 81       	ldd	r24, Z+7	; 0x07
    43c4:	80 93 f1 00 	sts	0x00F1, r24
    43c8:	80 85       	ldd	r24, Z+8	; 0x08
    43ca:	80 93 f1 00 	sts	0x00F1, r24
    43ce:	81 85       	ldd	r24, Z+9	; 0x09
    43d0:	80 93 f1 00 	sts	0x00F1, r24
    43d4:	82 85       	ldd	r24, Z+10	; 0x0a
    43d6:	80 93 f1 00 	sts	0x00F1, r24
    43da:	83 85       	ldd	r24, Z+11	; 0x0b
    43dc:	80 93 f1 00 	sts	0x00F1, r24
    43e0:	84 85       	ldd	r24, Z+12	; 0x0c
    43e2:	80 93 f1 00 	sts	0x00F1, r24
    43e6:	85 85       	ldd	r24, Z+13	; 0x0d
    43e8:	80 93 f1 00 	sts	0x00F1, r24
    43ec:	86 85       	ldd	r24, Z+14	; 0x0e
    43ee:	80 93 f1 00 	sts	0x00F1, r24
    43f2:	87 85       	ldd	r24, Z+15	; 0x0f
    43f4:	80 93 f1 00 	sts	0x00F1, r24
    43f8:	10 e1       	ldi	r17, 0x10	; 16
    43fa:	09 c0       	rjmp	.+18     	; 0x440e <SDCardManager_ReadBlockHandler+0x96>
    43fc:	90 91 e8 00 	lds	r25, 0x00E8
    4400:	9e 77       	andi	r25, 0x7E	; 126
    4402:	90 93 e8 00 	sts	0x00E8, r25
    4406:	0e 94 55 30 	call	0x60aa	; 0x60aa <Endpoint_WaitUntilReady>
    440a:	88 23       	and	r24, r24
    440c:	11 f2       	breq	.-124    	; 0x4392 <SDCardManager_ReadBlockHandler+0x1a>
    440e:	81 2f       	mov	r24, r17
    4410:	df 91       	pop	r29
    4412:	cf 91       	pop	r28
    4414:	1f 91       	pop	r17
    4416:	ff 90       	pop	r15
    4418:	ef 90       	pop	r14
    441a:	08 95       	ret

0000441c <SDCardManager_ReadBlocks>:
    441c:	8f 92       	push	r8
    441e:	9f 92       	push	r9
    4420:	af 92       	push	r10
    4422:	bf 92       	push	r11
    4424:	cf 92       	push	r12
    4426:	df 92       	push	r13
    4428:	ef 92       	push	r14
    442a:	ff 92       	push	r15
    442c:	0f 93       	push	r16
    442e:	1f 93       	push	r17
    4430:	cf 93       	push	r28
    4432:	df 93       	push	r29
    4434:	6c 01       	movw	r12, r24
    4436:	4a 01       	movw	r8, r20
    4438:	5b 01       	movw	r10, r22
    443a:	79 01       	movw	r14, r18
    443c:	0e 94 55 30 	call	0x60aa	; 0x60aa <Endpoint_WaitUntilReady>
    4440:	81 11       	cpse	r24, r1
    4442:	38 c0       	rjmp	.+112    	; 0x44b4 <SDCardManager_ReadBlocks+0x98>
    4444:	e1 14       	cp	r14, r1
    4446:	f1 04       	cpc	r15, r1
    4448:	59 f1       	breq	.+86     	; 0x44a0 <SDCardManager_ReadBlocks+0x84>
    444a:	2e 98       	cbi	0x05, 6	; 5
    444c:	01 e0       	ldi	r16, 0x01	; 1
    444e:	10 e0       	ldi	r17, 0x00	; 0
    4450:	a5 01       	movw	r20, r10
    4452:	94 01       	movw	r18, r8
    4454:	69 e3       	ldi	r22, 0x39	; 57
    4456:	78 e0       	ldi	r23, 0x08	; 8
    4458:	80 e0       	ldi	r24, 0x00	; 0
    445a:	0e 94 65 0e 	call	0x1cca	; 0x1cca <disk_read>
    445e:	c0 e0       	ldi	r28, 0x00	; 0
    4460:	d0 e0       	ldi	r29, 0x00	; 0
    4462:	be 01       	movw	r22, r28
    4464:	89 e3       	ldi	r24, 0x39	; 57
    4466:	98 e0       	ldi	r25, 0x08	; 8
    4468:	87 df       	rcall	.-242    	; 0x4378 <SDCardManager_ReadBlockHandler>
    446a:	c8 0f       	add	r28, r24
    446c:	d1 1d       	adc	r29, r1
    446e:	f6 01       	movw	r30, r12
    4470:	80 ad       	ldd	r24, Z+56	; 0x38
    4472:	81 11       	cpse	r24, r1
    4474:	1f c0       	rjmp	.+62     	; 0x44b4 <SDCardManager_ReadBlocks+0x98>
    4476:	80 91 7d 0a 	lds	r24, 0x0A7D
    447a:	84 30       	cpi	r24, 0x04	; 4
    447c:	21 f0       	breq	.+8      	; 0x4486 <SDCardManager_ReadBlocks+0x6a>
    447e:	8a e0       	ldi	r24, 0x0A	; 10
    4480:	80 93 38 08 	sts	0x0838, r24
    4484:	17 c0       	rjmp	.+46     	; 0x44b4 <SDCardManager_ReadBlocks+0x98>
    4486:	c1 15       	cp	r28, r1
    4488:	f2 e0       	ldi	r31, 0x02	; 2
    448a:	df 07       	cpc	r29, r31
    448c:	50 f3       	brcs	.-44     	; 0x4462 <SDCardManager_ReadBlocks+0x46>
    448e:	8f ef       	ldi	r24, 0xFF	; 255
    4490:	88 1a       	sub	r8, r24
    4492:	98 0a       	sbc	r9, r24
    4494:	a8 0a       	sbc	r10, r24
    4496:	b8 0a       	sbc	r11, r24
    4498:	e1 e0       	ldi	r30, 0x01	; 1
    449a:	ee 1a       	sub	r14, r30
    449c:	f1 08       	sbc	r15, r1
    449e:	d2 cf       	rjmp	.-92     	; 0x4444 <SDCardManager_ReadBlocks+0x28>
    44a0:	80 91 e8 00 	lds	r24, 0x00E8
    44a4:	85 fd       	sbrc	r24, 5
    44a6:	05 c0       	rjmp	.+10     	; 0x44b2 <SDCardManager_ReadBlocks+0x96>
    44a8:	80 91 e8 00 	lds	r24, 0x00E8
    44ac:	8e 77       	andi	r24, 0x7E	; 126
    44ae:	80 93 e8 00 	sts	0x00E8, r24
    44b2:	2e 9a       	sbi	0x05, 6	; 5
    44b4:	df 91       	pop	r29
    44b6:	cf 91       	pop	r28
    44b8:	1f 91       	pop	r17
    44ba:	0f 91       	pop	r16
    44bc:	ff 90       	pop	r15
    44be:	ef 90       	pop	r14
    44c0:	df 90       	pop	r13
    44c2:	cf 90       	pop	r12
    44c4:	bf 90       	pop	r11
    44c6:	af 90       	pop	r10
    44c8:	9f 90       	pop	r9
    44ca:	8f 90       	pop	r8
    44cc:	08 95       	ret

000044ce <SDCardManager_CheckSDCardOperation>:
    44ce:	80 91 38 06 	lds	r24, 0x0638
    44d2:	08 95       	ret

000044d4 <__vector_25>:
    44d4:	1f 92       	push	r1
    44d6:	0f 92       	push	r0
    44d8:	0f b6       	in	r0, 0x3f	; 63
    44da:	0f 92       	push	r0
    44dc:	11 24       	eor	r1, r1
    44de:	2f 93       	push	r18
    44e0:	8f 93       	push	r24
    44e2:	9f 93       	push	r25
    44e4:	ef 93       	push	r30
    44e6:	ff 93       	push	r31
    44e8:	80 91 c8 00 	lds	r24, 0x00C8
    44ec:	90 91 ce 00 	lds	r25, 0x00CE
    44f0:	88 71       	andi	r24, 0x18	; 24
    44f2:	e0 91 3b 06 	lds	r30, 0x063B
    44f6:	ef 5f       	subi	r30, 0xFF	; 255
    44f8:	ef 73       	andi	r30, 0x3F	; 63
    44fa:	20 91 3a 06 	lds	r18, 0x063A
    44fe:	e2 17       	cp	r30, r18
    4500:	39 f0       	breq	.+14     	; 0x4510 <__vector_25+0x3c>
    4502:	e0 93 3b 06 	sts	0x063B, r30
    4506:	f0 e0       	ldi	r31, 0x00	; 0
    4508:	e2 5c       	subi	r30, 0xC2	; 194
    450a:	f9 4f       	sbci	r31, 0xF9	; 249
    450c:	90 83       	st	Z, r25
    450e:	01 c0       	rjmp	.+2      	; 0x4512 <__vector_25+0x3e>
    4510:	82 e0       	ldi	r24, 0x02	; 2
    4512:	90 91 39 06 	lds	r25, 0x0639
    4516:	89 2b       	or	r24, r25
    4518:	80 93 39 06 	sts	0x0639, r24
    451c:	ff 91       	pop	r31
    451e:	ef 91       	pop	r30
    4520:	9f 91       	pop	r25
    4522:	8f 91       	pop	r24
    4524:	2f 91       	pop	r18
    4526:	0f 90       	pop	r0
    4528:	0f be       	out	0x3f, r0	; 63
    452a:	0f 90       	pop	r0
    452c:	1f 90       	pop	r1
    452e:	18 95       	reti

00004530 <__vector_26>:
    4530:	1f 92       	push	r1
    4532:	0f 92       	push	r0
    4534:	0f b6       	in	r0, 0x3f	; 63
    4536:	0f 92       	push	r0
    4538:	11 24       	eor	r1, r1
    453a:	8f 93       	push	r24
    453c:	9f 93       	push	r25
    453e:	ef 93       	push	r30
    4540:	ff 93       	push	r31
    4542:	90 91 3d 06 	lds	r25, 0x063D
    4546:	80 91 3c 06 	lds	r24, 0x063C
    454a:	98 17       	cp	r25, r24
    454c:	69 f0       	breq	.+26     	; 0x4568 <__vector_26+0x38>
    454e:	e0 91 3c 06 	lds	r30, 0x063C
    4552:	ef 5f       	subi	r30, 0xFF	; 255
    4554:	ef 70       	andi	r30, 0x0F	; 15
    4556:	e0 93 3c 06 	sts	0x063C, r30
    455a:	f0 e0       	ldi	r31, 0x00	; 0
    455c:	e2 58       	subi	r30, 0x82	; 130
    455e:	f9 4f       	sbci	r31, 0xF9	; 249
    4560:	80 81       	ld	r24, Z
    4562:	80 93 ce 00 	sts	0x00CE, r24
    4566:	05 c0       	rjmp	.+10     	; 0x4572 <__vector_26+0x42>
    4568:	80 91 c9 00 	lds	r24, 0x00C9
    456c:	8f 7d       	andi	r24, 0xDF	; 223
    456e:	80 93 c9 00 	sts	0x00C9, r24
    4572:	ff 91       	pop	r31
    4574:	ef 91       	pop	r30
    4576:	9f 91       	pop	r25
    4578:	8f 91       	pop	r24
    457a:	0f 90       	pop	r0
    457c:	0f be       	out	0x3f, r0	; 63
    457e:	0f 90       	pop	r0
    4580:	1f 90       	pop	r1
    4582:	18 95       	reti

00004584 <uart_init>:
    4584:	10 92 3d 06 	sts	0x063D, r1
    4588:	10 92 3c 06 	sts	0x063C, r1
    458c:	10 92 3b 06 	sts	0x063B, r1
    4590:	10 92 3a 06 	sts	0x063A, r1
    4594:	97 ff       	sbrs	r25, 7
    4596:	04 c0       	rjmp	.+8      	; 0x45a0 <uart_init+0x1c>
    4598:	22 e0       	ldi	r18, 0x02	; 2
    459a:	20 93 c8 00 	sts	0x00C8, r18
    459e:	9f 77       	andi	r25, 0x7F	; 127
    45a0:	90 93 cd 00 	sts	0x00CD, r25
    45a4:	80 93 cc 00 	sts	0x00CC, r24
    45a8:	88 e9       	ldi	r24, 0x98	; 152
    45aa:	80 93 c9 00 	sts	0x00C9, r24
    45ae:	86 e0       	ldi	r24, 0x06	; 6
    45b0:	80 93 ca 00 	sts	0x00CA, r24
    45b4:	08 95       	ret

000045b6 <uart_getc>:
    45b6:	90 91 3b 06 	lds	r25, 0x063B
    45ba:	80 91 3a 06 	lds	r24, 0x063A
    45be:	98 17       	cp	r25, r24
    45c0:	81 f0       	breq	.+32     	; 0x45e2 <uart_getc+0x2c>
    45c2:	e0 91 3a 06 	lds	r30, 0x063A
    45c6:	ef 5f       	subi	r30, 0xFF	; 255
    45c8:	ef 73       	andi	r30, 0x3F	; 63
    45ca:	e0 93 3a 06 	sts	0x063A, r30
    45ce:	f0 e0       	ldi	r31, 0x00	; 0
    45d0:	e2 5c       	subi	r30, 0xC2	; 194
    45d2:	f9 4f       	sbci	r31, 0xF9	; 249
    45d4:	80 81       	ld	r24, Z
    45d6:	90 91 39 06 	lds	r25, 0x0639
    45da:	10 92 39 06 	sts	0x0639, r1
    45de:	90 e0       	ldi	r25, 0x00	; 0
    45e0:	08 95       	ret
    45e2:	80 e0       	ldi	r24, 0x00	; 0
    45e4:	91 e0       	ldi	r25, 0x01	; 1
    45e6:	08 95       	ret

000045e8 <uart_clear_rx_buffer>:
    45e8:	10 92 3b 06 	sts	0x063B, r1
    45ec:	10 92 3a 06 	sts	0x063A, r1
    45f0:	08 95       	ret

000045f2 <uart_putc>:
    45f2:	90 91 3d 06 	lds	r25, 0x063D
    45f6:	9f 5f       	subi	r25, 0xFF	; 255
    45f8:	9f 70       	andi	r25, 0x0F	; 15
    45fa:	20 91 3c 06 	lds	r18, 0x063C
    45fe:	92 17       	cp	r25, r18
    4600:	e1 f3       	breq	.-8      	; 0x45fa <uart_putc+0x8>
    4602:	e9 2f       	mov	r30, r25
    4604:	f0 e0       	ldi	r31, 0x00	; 0
    4606:	e2 58       	subi	r30, 0x82	; 130
    4608:	f9 4f       	sbci	r31, 0xF9	; 249
    460a:	80 83       	st	Z, r24
    460c:	90 93 3d 06 	sts	0x063D, r25
    4610:	80 91 c9 00 	lds	r24, 0x00C9
    4614:	80 62       	ori	r24, 0x20	; 32
    4616:	80 93 c9 00 	sts	0x00C9, r24
    461a:	08 95       	ret

0000461c <__vector_17>:
    461c:	1f 92       	push	r1
    461e:	0f 92       	push	r0
    4620:	0f b6       	in	r0, 0x3f	; 63
    4622:	0f 92       	push	r0
    4624:	11 24       	eor	r1, r1
    4626:	2f 93       	push	r18
    4628:	3f 93       	push	r19
    462a:	4f 93       	push	r20
    462c:	5f 93       	push	r21
    462e:	6f 93       	push	r22
    4630:	7f 93       	push	r23
    4632:	8f 93       	push	r24
    4634:	9f 93       	push	r25
    4636:	af 93       	push	r26
    4638:	bf 93       	push	r27
    463a:	ef 93       	push	r30
    463c:	ff 93       	push	r31
    463e:	80 91 2f 07 	lds	r24, 0x072F
    4642:	90 91 30 07 	lds	r25, 0x0730
    4646:	01 96       	adiw	r24, 0x01	; 1
    4648:	90 93 30 07 	sts	0x0730, r25
    464c:	80 93 2f 07 	sts	0x072F, r24
    4650:	80 91 31 07 	lds	r24, 0x0731
    4654:	90 91 32 07 	lds	r25, 0x0732
    4658:	01 96       	adiw	r24, 0x01	; 1
    465a:	90 93 32 07 	sts	0x0732, r25
    465e:	80 93 31 07 	sts	0x0731, r24
    4662:	80 91 38 08 	lds	r24, 0x0838
    4666:	81 30       	cpi	r24, 0x01	; 1
    4668:	79 f0       	breq	.+30     	; 0x4688 <__vector_17+0x6c>
    466a:	80 91 38 08 	lds	r24, 0x0838
    466e:	8d 30       	cpi	r24, 0x0D	; 13
    4670:	59 f0       	breq	.+22     	; 0x4688 <__vector_17+0x6c>
    4672:	80 e3       	ldi	r24, 0x30	; 48
    4674:	91 e0       	ldi	r25, 0x01	; 1
    4676:	0e 94 79 2c 	call	0x58f2	; 0x58f2 <MS_Device_USBTask>
    467a:	80 e2       	ldi	r24, 0x20	; 32
    467c:	91 e0       	ldi	r25, 0x01	; 1
    467e:	0e 94 56 2b 	call	0x56ac	; 0x56ac <HID_Device_USBTask>
    4682:	0e 94 1a 33 	call	0x6634	; 0x6634 <USB_USBTask>
    4686:	03 c0       	rjmp	.+6      	; 0x468e <__vector_17+0x72>
    4688:	81 e0       	ldi	r24, 0x01	; 1
    468a:	80 93 e9 06 	sts	0x06E9, r24
    468e:	ff 91       	pop	r31
    4690:	ef 91       	pop	r30
    4692:	bf 91       	pop	r27
    4694:	af 91       	pop	r26
    4696:	9f 91       	pop	r25
    4698:	8f 91       	pop	r24
    469a:	7f 91       	pop	r23
    469c:	6f 91       	pop	r22
    469e:	5f 91       	pop	r21
    46a0:	4f 91       	pop	r20
    46a2:	3f 91       	pop	r19
    46a4:	2f 91       	pop	r18
    46a6:	0f 90       	pop	r0
    46a8:	0f be       	out	0x3f, r0	; 63
    46aa:	0f 90       	pop	r0
    46ac:	1f 90       	pop	r1
    46ae:	18 95       	reti

000046b0 <Task_Manager>:
    46b0:	80 91 e9 06 	lds	r24, 0x06E9
    46b4:	81 30       	cpi	r24, 0x01	; 1
    46b6:	29 f4       	brne	.+10     	; 0x46c2 <Task_Manager+0x12>
    46b8:	80 e3       	ldi	r24, 0x30	; 48
    46ba:	91 e0       	ldi	r25, 0x01	; 1
    46bc:	0e 94 79 2c 	call	0x58f2	; 0x58f2 <MS_Device_USBTask>
    46c0:	04 c0       	rjmp	.+8      	; 0x46ca <Task_Manager+0x1a>
    46c2:	80 91 e9 06 	lds	r24, 0x06E9
    46c6:	83 30       	cpi	r24, 0x03	; 3
    46c8:	21 f4       	brne	.+8      	; 0x46d2 <Task_Manager+0x22>
    46ca:	80 e2       	ldi	r24, 0x20	; 32
    46cc:	91 e0       	ldi	r25, 0x01	; 1
    46ce:	ee d7       	rcall	.+4060   	; 0x56ac <HID_Device_USBTask>
    46d0:	08 c0       	rjmp	.+16     	; 0x46e2 <Task_Manager+0x32>
    46d2:	80 91 e9 06 	lds	r24, 0x06E9
    46d6:	82 30       	cpi	r24, 0x02	; 2
    46d8:	31 f4       	brne	.+12     	; 0x46e6 <Task_Manager+0x36>
    46da:	80 e3       	ldi	r24, 0x30	; 48
    46dc:	91 e0       	ldi	r25, 0x01	; 1
    46de:	0e 94 79 2c 	call	0x58f2	; 0x58f2 <MS_Device_USBTask>
    46e2:	0e 94 1a 33 	call	0x6634	; 0x6634 <USB_USBTask>
    46e6:	10 92 e9 06 	sts	0x06E9, r1
    46ea:	08 95       	ret

000046ec <SetupHardware>:
    46ec:	84 b7       	in	r24, 0x34	; 52
    46ee:	87 7f       	andi	r24, 0xF7	; 247
    46f0:	84 bf       	out	0x34, r24	; 52
    46f2:	0f b6       	in	r0, 0x3f	; 63
    46f4:	f8 94       	cli
    46f6:	a8 95       	wdr
    46f8:	80 91 60 00 	lds	r24, 0x0060
    46fc:	88 61       	ori	r24, 0x18	; 24
    46fe:	80 93 60 00 	sts	0x0060, r24
    4702:	10 92 60 00 	sts	0x0060, r1
    4706:	0f be       	out	0x3f, r0	; 63
    4708:	85 b7       	in	r24, 0x35	; 53
    470a:	80 68       	ori	r24, 0x80	; 128
    470c:	85 bf       	out	0x35, r24	; 53
    470e:	85 b7       	in	r24, 0x35	; 53
    4710:	80 68       	ori	r24, 0x80	; 128
    4712:	85 bf       	out	0x35, r24	; 53
    4714:	85 b7       	in	r24, 0x35	; 53
    4716:	80 68       	ori	r24, 0x80	; 128
    4718:	85 bf       	out	0x35, r24	; 53
    471a:	85 b7       	in	r24, 0x35	; 53
    471c:	80 68       	ori	r24, 0x80	; 128
    471e:	85 bf       	out	0x35, r24	; 53
    4720:	90 e0       	ldi	r25, 0x00	; 0
    4722:	80 e8       	ldi	r24, 0x80	; 128
    4724:	0f b6       	in	r0, 0x3f	; 63
    4726:	f8 94       	cli
    4728:	80 93 61 00 	sts	0x0061, r24
    472c:	90 93 61 00 	sts	0x0061, r25
    4730:	0f be       	out	0x3f, r0	; 63
    4732:	0e 94 55 09 	call	0x12aa	; 0x12aa <Config_Interrupts>
    4736:	0e 94 69 09 	call	0x12d2	; 0x12d2 <Config_IO>
    473a:	2f e7       	ldi	r18, 0x7F	; 127
    473c:	88 e3       	ldi	r24, 0x38	; 56
    473e:	91 e0       	ldi	r25, 0x01	; 1
    4740:	21 50       	subi	r18, 0x01	; 1
    4742:	80 40       	sbci	r24, 0x00	; 0
    4744:	90 40       	sbci	r25, 0x00	; 0
    4746:	e1 f7       	brne	.-8      	; 0x4740 <SetupHardware+0x54>
    4748:	00 c0       	rjmp	.+0      	; 0x474a <SetupHardware+0x5e>
    474a:	00 00       	nop
    474c:	86 e0       	ldi	r24, 0x06	; 6
    474e:	92 e0       	ldi	r25, 0x02	; 2
    4750:	0e 94 02 37 	call	0x6e04	; 0x6e04 <eeprom_read_byte>
    4754:	91 e0       	ldi	r25, 0x01	; 1
    4756:	81 11       	cpse	r24, r1
    4758:	01 c0       	rjmp	.+2      	; 0x475c <SetupHardware+0x70>
    475a:	90 e0       	ldi	r25, 0x00	; 0
    475c:	90 93 37 07 	sts	0x0737, r25
    4760:	87 e0       	ldi	r24, 0x07	; 7
    4762:	92 e0       	ldi	r25, 0x02	; 2
    4764:	0e 94 02 37 	call	0x6e04	; 0x6e04 <eeprom_read_byte>
    4768:	91 e0       	ldi	r25, 0x01	; 1
    476a:	81 11       	cpse	r24, r1
    476c:	01 c0       	rjmp	.+2      	; 0x4770 <SetupHardware+0x84>
    476e:	90 e0       	ldi	r25, 0x00	; 0
    4770:	90 93 e6 06 	sts	0x06E6, r25
    4774:	88 e0       	ldi	r24, 0x08	; 8
    4776:	92 e0       	ldi	r25, 0x02	; 2
    4778:	0e 94 02 37 	call	0x6e04	; 0x6e04 <eeprom_read_byte>
    477c:	91 e0       	ldi	r25, 0x01	; 1
    477e:	81 11       	cpse	r24, r1
    4780:	01 c0       	rjmp	.+2      	; 0x4784 <SetupHardware+0x98>
    4782:	90 e0       	ldi	r25, 0x00	; 0
    4784:	90 93 b9 07 	sts	0x07B9, r25
    4788:	89 e0       	ldi	r24, 0x09	; 9
    478a:	92 e0       	ldi	r25, 0x02	; 2
    478c:	0e 94 02 37 	call	0x6e04	; 0x6e04 <eeprom_read_byte>
    4790:	91 e0       	ldi	r25, 0x01	; 1
    4792:	81 11       	cpse	r24, r1
    4794:	01 c0       	rjmp	.+2      	; 0x4798 <SetupHardware+0xac>
    4796:	90 e0       	ldi	r25, 0x00	; 0
    4798:	90 93 f7 07 	sts	0x07F7, r25
    479c:	08 95       	ret

0000479e <EVENT_USB_Device_Connect>:
    479e:	08 95       	ret

000047a0 <EVENT_USB_Device_Disconnect>:
    47a0:	96 de       	rcall	.-724    	; 0x44ce <SDCardManager_CheckSDCardOperation>
    47a2:	88 23       	and	r24, r24
    47a4:	19 f0       	breq	.+6      	; 0x47ac <EVENT_USB_Device_Disconnect+0xc>
    47a6:	82 e0       	ldi	r24, 0x02	; 2
    47a8:	80 93 38 08 	sts	0x0838, r24
    47ac:	08 95       	ret

000047ae <EVENT_USB_Device_Suspend>:
    47ae:	08 95       	ret

000047b0 <EVENT_USB_Device_WakeUp>:
    47b0:	08 95       	ret

000047b2 <EVENT_USB_Device_ConfigurationChanged>:
    47b2:	80 e2       	ldi	r24, 0x20	; 32
    47b4:	91 e0       	ldi	r25, 0x01	; 1
    47b6:	67 d7       	rcall	.+3790   	; 0x5686 <HID_Device_ConfigureEndpoints>
    47b8:	80 e3       	ldi	r24, 0x30	; 48
    47ba:	91 e0       	ldi	r25, 0x01	; 1
    47bc:	0e 94 5c 2c 	call	0x58b8	; 0x58b8 <MS_Device_ConfigureEndpoints>
    47c0:	e2 ee       	ldi	r30, 0xE2	; 226
    47c2:	f0 e0       	ldi	r31, 0x00	; 0
    47c4:	80 81       	ld	r24, Z
    47c6:	84 60       	ori	r24, 0x04	; 4
    47c8:	80 83       	st	Z, r24
    47ca:	08 95       	ret

000047cc <EVENT_USB_Device_ControlRequest>:
    47cc:	80 e3       	ldi	r24, 0x30	; 48
    47ce:	91 e0       	ldi	r25, 0x01	; 1
    47d0:	0e 94 1b 2c 	call	0x5836	; 0x5836 <MS_Device_ProcessControlRequest>
    47d4:	80 e2       	ldi	r24, 0x20	; 32
    47d6:	91 e0       	ldi	r25, 0x01	; 1
    47d8:	1c c6       	rjmp	.+3128   	; 0x5412 <HID_Device_ProcessControlRequest>

000047da <EVENT_USB_Device_StartOfFrame>:
    47da:	80 91 2e 01 	lds	r24, 0x012E
    47de:	90 91 2f 01 	lds	r25, 0x012F
    47e2:	00 97       	sbiw	r24, 0x00	; 0
    47e4:	29 f0       	breq	.+10     	; 0x47f0 <EVENT_USB_Device_StartOfFrame+0x16>
    47e6:	01 97       	sbiw	r24, 0x01	; 1
    47e8:	90 93 2f 01 	sts	0x012F, r25
    47ec:	80 93 2e 01 	sts	0x012E, r24
    47f0:	08 95       	ret

000047f2 <CALLBACK_MS_Device_SCSICommandReceived>:
    47f2:	c0 cb       	rjmp	.-2176   	; 0x3f74 <SCSI_DecodeSCSICommand>

000047f4 <CALLBACK_HID_Device_CreateHIDReport>:
    47f4:	0f 93       	push	r16
    47f6:	1f 93       	push	r17
    47f8:	f9 01       	movw	r30, r18
    47fa:	a0 91 34 07 	lds	r26, 0x0734
    47fe:	b0 91 35 07 	lds	r27, 0x0735
    4802:	12 96       	adiw	r26, 0x02	; 2
    4804:	8c 91       	ld	r24, X
    4806:	82 83       	std	Z+2, r24	; 0x02
    4808:	88 23       	and	r24, r24
    480a:	21 f0       	breq	.+8      	; 0x4814 <CALLBACK_HID_Device_CreateHIDReport+0x20>
    480c:	80 91 eb 06 	lds	r24, 0x06EB
    4810:	80 83       	st	Z, r24
    4812:	01 c0       	rjmp	.+2      	; 0x4816 <CALLBACK_HID_Device_CreateHIDReport+0x22>
    4814:	10 82       	st	Z, r1
    4816:	e0 91 34 07 	lds	r30, 0x0734
    481a:	f0 91 35 07 	lds	r31, 0x0735
    481e:	12 82       	std	Z+2, r1	; 0x02
    4820:	10 92 eb 06 	sts	0x06EB, r1
    4824:	88 e0       	ldi	r24, 0x08	; 8
    4826:	90 e0       	ldi	r25, 0x00	; 0
    4828:	f8 01       	movw	r30, r16
    482a:	91 83       	std	Z+1, r25	; 0x01
    482c:	80 83       	st	Z, r24
    482e:	80 e0       	ldi	r24, 0x00	; 0
    4830:	1f 91       	pop	r17
    4832:	0f 91       	pop	r16
    4834:	08 95       	ret

00004836 <CALLBACK_HID_Device_ProcessHIDReport>:
    4836:	f9 01       	movw	r30, r18
    4838:	80 81       	ld	r24, Z
    483a:	80 ff       	sbrs	r24, 0
    483c:	06 c0       	rjmp	.+12     	; 0x484a <CALLBACK_HID_Device_ProcessHIDReport+0x14>
    483e:	e0 91 34 07 	lds	r30, 0x0734
    4842:	f0 91 35 07 	lds	r31, 0x0735
    4846:	81 e0       	ldi	r24, 0x01	; 1
    4848:	0f c0       	rjmp	.+30     	; 0x4868 <CALLBACK_HID_Device_ProcessHIDReport+0x32>
    484a:	81 ff       	sbrs	r24, 1
    484c:	06 c0       	rjmp	.+12     	; 0x485a <CALLBACK_HID_Device_ProcessHIDReport+0x24>
    484e:	e0 91 34 07 	lds	r30, 0x0734
    4852:	f0 91 35 07 	lds	r31, 0x0735
    4856:	82 e0       	ldi	r24, 0x02	; 2
    4858:	07 c0       	rjmp	.+14     	; 0x4868 <CALLBACK_HID_Device_ProcessHIDReport+0x32>
    485a:	82 ff       	sbrs	r24, 2
    485c:	06 c0       	rjmp	.+12     	; 0x486a <CALLBACK_HID_Device_ProcessHIDReport+0x34>
    485e:	e0 91 34 07 	lds	r30, 0x0734
    4862:	f0 91 35 07 	lds	r31, 0x0735
    4866:	84 e0       	ldi	r24, 0x04	; 4
    4868:	82 83       	std	Z+2, r24	; 0x02
    486a:	08 95       	ret

0000486c <Init_Mode>:
    486c:	cf 93       	push	r28
    486e:	8d e0       	ldi	r24, 0x0D	; 13
    4870:	92 e0       	ldi	r25, 0x02	; 2
    4872:	0e 94 02 37 	call	0x6e04	; 0x6e04 <eeprom_read_byte>
    4876:	c8 2f       	mov	r28, r24
    4878:	56 d3       	rcall	.+1708   	; 0x4f26 <GetKeySimple>
    487a:	62 e0       	ldi	r22, 0x02	; 2
    487c:	d1 d4       	rcall	.+2466   	; 0x5220 <GetASCIIKeyCode>
    487e:	7c 99       	sbic	0x0f, 4	; 15
    4880:	0c c0       	rjmp	.+24     	; 0x489a <Init_Mode+0x2e>
    4882:	7d 99       	sbic	0x0f, 5	; 15
    4884:	0a c0       	rjmp	.+20     	; 0x489a <Init_Mode+0x2e>
    4886:	7e 99       	sbic	0x0f, 6	; 15
    4888:	08 c0       	rjmp	.+16     	; 0x489a <Init_Mode+0x2e>
    488a:	81 e0       	ldi	r24, 0x01	; 1
    488c:	80 93 38 08 	sts	0x0838, r24
    4890:	60 e0       	ldi	r22, 0x00	; 0
    4892:	0e 94 99 09 	call	0x1332	; 0x1332 <GlowGreenLED>
    4896:	65 d5       	rcall	.+2762   	; 0x5362 <RestoreFactoryDefaults>
    4898:	31 c0       	rjmp	.+98     	; 0x48fc <Init_Mode+0x90>
    489a:	7d 99       	sbic	0x0f, 5	; 15
    489c:	10 c0       	rjmp	.+32     	; 0x48be <Init_Mode+0x52>
    489e:	7e 99       	sbic	0x0f, 6	; 15
    48a0:	0e c0       	rjmp	.+28     	; 0x48be <Init_Mode+0x52>
    48a2:	0e 94 6a 03 	call	0x6d4	; 0x6d4 <Bluetooth_Configure>
    48a6:	88 23       	and	r24, r24
    48a8:	31 f0       	breq	.+12     	; 0x48b6 <Init_Mode+0x4a>
    48aa:	0e 94 87 30 	call	0x610e	; 0x610e <USB_Disable>
    48ae:	0e 94 99 03 	call	0x732	; 0x732 <BluetoothInquire>
    48b2:	89 e0       	ldi	r24, 0x09	; 9
    48b4:	01 c0       	rjmp	.+2      	; 0x48b8 <Init_Mode+0x4c>
    48b6:	8a e0       	ldi	r24, 0x0A	; 10
    48b8:	80 93 38 08 	sts	0x0838, r24
    48bc:	4a c0       	rjmp	.+148    	; 0x4952 <Init_Mode+0xe6>
    48be:	7c 99       	sbic	0x0f, 4	; 15
    48c0:	04 c0       	rjmp	.+8      	; 0x48ca <Init_Mode+0x5e>
    48c2:	7d 99       	sbic	0x0f, 5	; 15
    48c4:	02 c0       	rjmp	.+4      	; 0x48ca <Init_Mode+0x5e>
    48c6:	82 e0       	ldi	r24, 0x02	; 2
    48c8:	f7 cf       	rjmp	.-18     	; 0x48b8 <Init_Mode+0x4c>
    48ca:	7c 99       	sbic	0x0f, 4	; 15
    48cc:	04 c0       	rjmp	.+8      	; 0x48d6 <Init_Mode+0x6a>
    48ce:	7e 99       	sbic	0x0f, 6	; 15
    48d0:	02 c0       	rjmp	.+4      	; 0x48d6 <Init_Mode+0x6a>
    48d2:	86 e0       	ldi	r24, 0x06	; 6
    48d4:	f1 cf       	rjmp	.-30     	; 0x48b8 <Init_Mode+0x4c>
    48d6:	7c 99       	sbic	0x0f, 4	; 15
    48d8:	02 c0       	rjmp	.+4      	; 0x48de <Init_Mode+0x72>
    48da:	85 e0       	ldi	r24, 0x05	; 5
    48dc:	ed cf       	rjmp	.-38     	; 0x48b8 <Init_Mode+0x4c>
    48de:	7d 99       	sbic	0x0f, 5	; 15
    48e0:	02 c0       	rjmp	.+4      	; 0x48e6 <Init_Mode+0x7a>
    48e2:	83 e0       	ldi	r24, 0x03	; 3
    48e4:	e9 cf       	rjmp	.-46     	; 0x48b8 <Init_Mode+0x4c>
    48e6:	7e 99       	sbic	0x0f, 6	; 15
    48e8:	02 c0       	rjmp	.+4      	; 0x48ee <Init_Mode+0x82>
    48ea:	84 e0       	ldi	r24, 0x04	; 4
    48ec:	e5 cf       	rjmp	.-54     	; 0x48b8 <Init_Mode+0x4c>
    48ee:	85 35       	cpi	r24, 0x55	; 85
    48f0:	39 f4       	brne	.+14     	; 0x4900 <Init_Mode+0x94>
    48f2:	81 e0       	ldi	r24, 0x01	; 1
    48f4:	80 93 38 08 	sts	0x0838, r24
    48f8:	80 93 33 07 	sts	0x0733, r24
    48fc:	c1 e0       	ldi	r28, 0x01	; 1
    48fe:	29 c0       	rjmp	.+82     	; 0x4952 <Init_Mode+0xe6>
    4900:	83 35       	cpi	r24, 0x53	; 83
    4902:	79 f4       	brne	.+30     	; 0x4922 <Init_Mode+0xb6>
    4904:	e4 dd       	rcall	.-1080   	; 0x44ce <SDCardManager_CheckSDCardOperation>
    4906:	88 23       	and	r24, r24
    4908:	39 f0       	breq	.+14     	; 0x4918 <Init_Mode+0xac>
    490a:	82 e0       	ldi	r24, 0x02	; 2
    490c:	80 93 38 08 	sts	0x0838, r24
    4910:	81 e0       	ldi	r24, 0x01	; 1
    4912:	80 93 33 07 	sts	0x0733, r24
    4916:	03 c0       	rjmp	.+6      	; 0x491e <Init_Mode+0xb2>
    4918:	8a e0       	ldi	r24, 0x0A	; 10
    491a:	80 93 38 08 	sts	0x0838, r24
    491e:	c2 e0       	ldi	r28, 0x02	; 2
    4920:	18 c0       	rjmp	.+48     	; 0x4952 <Init_Mode+0xe6>
    4922:	82 34       	cpi	r24, 0x42	; 66
    4924:	69 f4       	brne	.+26     	; 0x4940 <Init_Mode+0xd4>
    4926:	0e 94 87 30 	call	0x610e	; 0x610e <USB_Disable>
    492a:	0e 94 6a 03 	call	0x6d4	; 0x6d4 <Bluetooth_Configure>
    492e:	88 23       	and	r24, r24
    4930:	11 f2       	breq	.-124    	; 0x48b6 <Init_Mode+0x4a>
    4932:	0e 94 99 03 	call	0x732	; 0x732 <BluetoothInquire>
    4936:	89 e0       	ldi	r24, 0x09	; 9
    4938:	80 93 38 08 	sts	0x0838, r24
    493c:	c9 e0       	ldi	r28, 0x09	; 9
    493e:	09 c0       	rjmp	.+18     	; 0x4952 <Init_Mode+0xe6>
    4940:	8c 34       	cpi	r24, 0x4C	; 76
    4942:	29 f4       	brne	.+10     	; 0x494e <Init_Mode+0xe2>
    4944:	8d e0       	ldi	r24, 0x0D	; 13
    4946:	80 93 38 08 	sts	0x0838, r24
    494a:	cd e0       	ldi	r28, 0x0D	; 13
    494c:	02 c0       	rjmp	.+4      	; 0x4952 <Init_Mode+0xe6>
    494e:	c0 93 38 08 	sts	0x0838, r28
    4952:	6c 2f       	mov	r22, r28
    4954:	8d e0       	ldi	r24, 0x0D	; 13
    4956:	92 e0       	ldi	r25, 0x02	; 2
    4958:	cf 91       	pop	r28
    495a:	0c 94 0f 37 	jmp	0x6e1e	; 0x6e1e <eeprom_update_byte>

0000495e <main>:
    495e:	8c e0       	ldi	r24, 0x0C	; 12
    4960:	80 93 38 08 	sts	0x0838, r24
    4964:	c3 de       	rcall	.-634    	; 0x46ec <SetupHardware>
    4966:	2c d5       	rcall	.+2648   	; 0x53c0 <InitializeEeprom>
    4968:	9f d4       	rcall	.+2366   	; 0x52a8 <LoadEepromParameters>
    496a:	76 d4       	rcall	.+2284   	; 0x5258 <LoadKeyCodeTables>
    496c:	55 dc       	rcall	.-1878   	; 0x4218 <SDCardManager_Init>
    496e:	0e 94 df 30 	call	0x61be	; 0x61be <USB_Init>
    4972:	83 e3       	ldi	r24, 0x33	; 51
    4974:	90 e0       	ldi	r25, 0x00	; 0
    4976:	06 de       	rcall	.-1012   	; 0x4584 <uart_init>
    4978:	78 94       	sei
    497a:	78 df       	rcall	.-272    	; 0x486c <Init_Mode>
    497c:	1d e0       	ldi	r17, 0x0D	; 13
    497e:	0a e0       	ldi	r16, 0x0A	; 10
    4980:	80 91 38 08 	lds	r24, 0x0838
    4984:	85 30       	cpi	r24, 0x05	; 5
    4986:	09 f4       	brne	.+2      	; 0x498a <main+0x2c>
    4988:	7f c0       	rjmp	.+254    	; 0x4a88 <main+0x12a>
    498a:	8c f4       	brge	.+34     	; 0x49ae <main+0x50>
    498c:	82 30       	cpi	r24, 0x02	; 2
    498e:	09 f4       	brne	.+2      	; 0x4992 <main+0x34>
    4990:	70 c0       	rjmp	.+224    	; 0x4a72 <main+0x114>
    4992:	1c f4       	brge	.+6      	; 0x499a <main+0x3c>
    4994:	81 30       	cpi	r24, 0x01	; 1
    4996:	e1 f0       	breq	.+56     	; 0x49d0 <main+0x72>
    4998:	d7 c0       	rjmp	.+430    	; 0x4b48 <main+0x1ea>
    499a:	83 30       	cpi	r24, 0x03	; 3
    499c:	09 f4       	brne	.+2      	; 0x49a0 <main+0x42>
    499e:	cf c0       	rjmp	.+414    	; 0x4b3e <main+0x1e0>
    49a0:	84 30       	cpi	r24, 0x04	; 4
    49a2:	09 f0       	breq	.+2      	; 0x49a6 <main+0x48>
    49a4:	d1 c0       	rjmp	.+418    	; 0x4b48 <main+0x1ea>
    49a6:	0e 94 87 30 	call	0x610e	; 0x610e <USB_Disable>
    49aa:	d1 e0       	ldi	r29, 0x01	; 1
    49ac:	40 c0       	rjmp	.+128    	; 0x4a2e <main+0xd0>
    49ae:	8a 30       	cpi	r24, 0x0A	; 10
    49b0:	09 f4       	brne	.+2      	; 0x49b4 <main+0x56>
    49b2:	ac c0       	rjmp	.+344    	; 0x4b0c <main+0x1ae>
    49b4:	3c f4       	brge	.+14     	; 0x49c4 <main+0x66>
    49b6:	86 30       	cpi	r24, 0x06	; 6
    49b8:	09 f4       	brne	.+2      	; 0x49bc <main+0x5e>
    49ba:	69 c0       	rjmp	.+210    	; 0x4a8e <main+0x130>
    49bc:	89 30       	cpi	r24, 0x09	; 9
    49be:	09 f4       	brne	.+2      	; 0x49c2 <main+0x64>
    49c0:	69 c0       	rjmp	.+210    	; 0x4a94 <main+0x136>
    49c2:	c2 c0       	rjmp	.+388    	; 0x4b48 <main+0x1ea>
    49c4:	8b 30       	cpi	r24, 0x0B	; 11
    49c6:	09 f4       	brne	.+2      	; 0x49ca <main+0x6c>
    49c8:	50 c0       	rjmp	.+160    	; 0x4a6a <main+0x10c>
    49ca:	8d 30       	cpi	r24, 0x0D	; 13
    49cc:	09 f0       	breq	.+2      	; 0x49d0 <main+0x72>
    49ce:	bc c0       	rjmp	.+376    	; 0x4b48 <main+0x1ea>
    49d0:	0e 94 7f 0a 	call	0x14fe	; 0x14fe <MountFilesystem>
    49d4:	d0 d2       	rcall	.+1440   	; 0x4f76 <GetKey>
    49d6:	c8 2f       	mov	r28, r24
    49d8:	c4 d1       	rcall	.+904    	; 0x4d62 <GetModifier>
    49da:	d8 2f       	mov	r29, r24
    49dc:	68 2f       	mov	r22, r24
    49de:	8c 2f       	mov	r24, r28
    49e0:	08 d4       	rcall	.+2064   	; 0x51f2 <GetHIDKeyCode>
    49e2:	ec 2f       	mov	r30, r28
    49e4:	f0 e0       	ldi	r31, 0x00	; 0
    49e6:	e7 5c       	subi	r30, 0xC7	; 199
    49e8:	f5 4f       	sbci	r31, 0xF5	; 245
    49ea:	90 81       	ld	r25, Z
    49ec:	91 11       	cpse	r25, r1
    49ee:	db 7f       	andi	r29, 0xFB	; 251
    49f0:	88 23       	and	r24, r24
    49f2:	51 f0       	breq	.+20     	; 0x4a08 <main+0xaa>
    49f4:	88 31       	cpi	r24, 0x18	; 24
    49f6:	21 f4       	brne	.+8      	; 0x4a00 <main+0xa2>
    49f8:	90 91 33 07 	lds	r25, 0x0733
    49fc:	91 11       	cpse	r25, r1
    49fe:	80 e0       	ldi	r24, 0x00	; 0
    4a00:	10 92 33 07 	sts	0x0733, r1
    4a04:	6d 2f       	mov	r22, r29
    4a06:	a3 d0       	rcall	.+326    	; 0x4b4e <USBSend>
    4a08:	8f ec       	ldi	r24, 0xCF	; 207
    4a0a:	97 e0       	ldi	r25, 0x07	; 7
    4a0c:	01 97       	sbiw	r24, 0x01	; 1
    4a0e:	f1 f7       	brne	.-4      	; 0x4a0c <main+0xae>
    4a10:	00 c0       	rjmp	.+0      	; 0x4a12 <main+0xb4>
    4a12:	00 00       	nop
    4a14:	80 e2       	ldi	r24, 0x20	; 32
    4a16:	91 e0       	ldi	r25, 0x01	; 1
    4a18:	49 d6       	rcall	.+3218   	; 0x56ac <HID_Device_USBTask>
    4a1a:	4a de       	rcall	.-876    	; 0x46b0 <Task_Manager>
    4a1c:	db cf       	rjmp	.-74     	; 0x49d4 <main+0x76>
    4a1e:	46 98       	cbi	0x08, 6	; 8
    4a20:	2e 9a       	sbi	0x05, 6	; 5
    4a22:	8f ec       	ldi	r24, 0xCF	; 207
    4a24:	97 e0       	ldi	r25, 0x07	; 7
    4a26:	01 97       	sbiw	r24, 0x01	; 1
    4a28:	f1 f7       	brne	.-4      	; 0x4a26 <main+0xc8>
    4a2a:	00 c0       	rjmp	.+0      	; 0x4a2c <main+0xce>
    4a2c:	00 00       	nop
    4a2e:	10 92 ba 07 	sts	0x07BA, r1
    4a32:	89 b1       	in	r24, 0x09	; 9
    4a34:	c9 b1       	in	r28, 0x09	; 9
    4a36:	29 b1       	in	r18, 0x09	; 9
    4a38:	93 b1       	in	r25, 0x03	; 3
    4a3a:	c6 fb       	bst	r28, 6
    4a3c:	cc 27       	eor	r28, r28
    4a3e:	c0 f9       	bld	r28, 0
    4a40:	cd 27       	eor	r28, r29
    4a42:	82 95       	swap	r24
    4a44:	81 70       	andi	r24, 0x01	; 1
    4a46:	8d 27       	eor	r24, r29
    4a48:	c8 0f       	add	r28, r24
    4a4a:	20 95       	com	r18
    4a4c:	22 1f       	adc	r18, r18
    4a4e:	22 27       	eor	r18, r18
    4a50:	22 1f       	adc	r18, r18
    4a52:	c2 0f       	add	r28, r18
    4a54:	92 95       	swap	r25
    4a56:	91 70       	andi	r25, 0x01	; 1
    4a58:	9d 27       	eor	r25, r29
    4a5a:	c9 0f       	add	r28, r25
    4a5c:	f4 d3       	rcall	.+2024   	; 0x5246 <getHallState>
    4a5e:	8c 0f       	add	r24, r28
    4a60:	80 ff       	sbrs	r24, 0
    4a62:	dd cf       	rjmp	.-70     	; 0x4a1e <main+0xc0>
    4a64:	46 9a       	sbi	0x08, 6	; 8
    4a66:	2e 98       	cbi	0x05, 6	; 5
    4a68:	dc cf       	rjmp	.-72     	; 0x4a22 <main+0xc4>
    4a6a:	0e 94 87 30 	call	0x610e	; 0x610e <USB_Disable>
    4a6e:	0e 94 f4 0a 	call	0x15e8	; 0x15e8 <TestSDHardware>
    4a72:	80 91 e7 06 	lds	r24, 0x06E7
    4a76:	88 23       	and	r24, r24
    4a78:	11 f0       	breq	.+4      	; 0x4a7e <main+0x120>
    4a7a:	5d 98       	cbi	0x0b, 5	; 11
    4a7c:	55 9a       	sbi	0x0a, 5	; 10
    4a7e:	0e 94 87 30 	call	0x610e	; 0x610e <USB_Disable>
    4a82:	0e 94 64 0b 	call	0x16c8	; 0x16c8 <LogKeystrokes>
    4a86:	7c cf       	rjmp	.-264    	; 0x4980 <main+0x22>
    4a88:	0e 94 02 06 	call	0xc04	; 0xc04 <Calibrate>
    4a8c:	5a c0       	rjmp	.+180    	; 0x4b42 <main+0x1e4>
    4a8e:	0e 94 a2 05 	call	0xb44	; 0xb44 <QuickCalibrate>
    4a92:	57 c0       	rjmp	.+174    	; 0x4b42 <main+0x1e4>
    4a94:	0e 94 87 30 	call	0x610e	; 0x610e <USB_Disable>
    4a98:	0e 94 9d 03 	call	0x73a	; 0x73a <Get_Bluetooth_State>
    4a9c:	81 30       	cpi	r24, 0x01	; 1
    4a9e:	11 f0       	breq	.+4      	; 0x4aa4 <main+0x146>
    4aa0:	0e 94 4d 03 	call	0x69a	; 0x69a <Bluetooth_Init>
    4aa4:	80 91 e7 06 	lds	r24, 0x06E7
    4aa8:	88 23       	and	r24, r24
    4aaa:	11 f0       	breq	.+4      	; 0x4ab0 <main+0x152>
    4aac:	5d 98       	cbi	0x0b, 5	; 11
    4aae:	55 9a       	sbi	0x0a, 5	; 10
    4ab0:	79 99       	sbic	0x0f, 1	; 15
    4ab2:	0e c0       	rjmp	.+28     	; 0x4ad0 <main+0x172>
    4ab4:	2e 98       	cbi	0x05, 6	; 5
    4ab6:	46 9a       	sbi	0x08, 6	; 8
    4ab8:	0e 94 a0 03 	call	0x740	; 0x740 <Bluetooth_Connect>
    4abc:	9f ef       	ldi	r25, 0xFF	; 255
    4abe:	27 ea       	ldi	r18, 0xA7	; 167
    4ac0:	81 e6       	ldi	r24, 0x61	; 97
    4ac2:	91 50       	subi	r25, 0x01	; 1
    4ac4:	20 40       	sbci	r18, 0x00	; 0
    4ac6:	80 40       	sbci	r24, 0x00	; 0
    4ac8:	e1 f7       	brne	.-8      	; 0x4ac2 <main+0x164>
    4aca:	00 c0       	rjmp	.+0      	; 0x4acc <main+0x16e>
    4acc:	00 00       	nop
    4ace:	f0 cf       	rjmp	.-32     	; 0x4ab0 <main+0x152>
    4ad0:	2e 9a       	sbi	0x05, 6	; 5
    4ad2:	46 98       	cbi	0x08, 6	; 8
    4ad4:	79 9b       	sbis	0x0f, 1	; 15
    4ad6:	54 cf       	rjmp	.-344    	; 0x4980 <main+0x22>
    4ad8:	4e d2       	rcall	.+1180   	; 0x4f76 <GetKey>
    4ada:	c8 2f       	mov	r28, r24
    4adc:	42 d1       	rcall	.+644    	; 0x4d62 <GetModifier>
    4ade:	d8 2f       	mov	r29, r24
    4ae0:	68 2f       	mov	r22, r24
    4ae2:	8c 2f       	mov	r24, r28
    4ae4:	86 d3       	rcall	.+1804   	; 0x51f2 <GetHIDKeyCode>
    4ae6:	ec 2f       	mov	r30, r28
    4ae8:	f0 e0       	ldi	r31, 0x00	; 0
    4aea:	e7 5c       	subi	r30, 0xC7	; 199
    4aec:	f5 4f       	sbci	r31, 0xF5	; 245
    4aee:	90 81       	ld	r25, Z
    4af0:	91 11       	cpse	r25, r1
    4af2:	db 7f       	andi	r29, 0xFB	; 251
    4af4:	88 23       	and	r24, r24
    4af6:	19 f0       	breq	.+6      	; 0x4afe <main+0x1a0>
    4af8:	6d 2f       	mov	r22, r29
    4afa:	0e 94 eb 02 	call	0x5d6	; 0x5d6 <Bluetooth_Send>
    4afe:	8f ec       	ldi	r24, 0xCF	; 207
    4b00:	97 e0       	ldi	r25, 0x07	; 7
    4b02:	01 97       	sbiw	r24, 0x01	; 1
    4b04:	f1 f7       	brne	.-4      	; 0x4b02 <main+0x1a4>
    4b06:	00 c0       	rjmp	.+0      	; 0x4b08 <main+0x1aa>
    4b08:	00 00       	nop
    4b0a:	e4 cf       	rjmp	.-56     	; 0x4ad4 <main+0x176>
    4b0c:	0e 94 87 30 	call	0x610e	; 0x610e <USB_Disable>
    4b10:	2e 9a       	sbi	0x05, 6	; 5
    4b12:	46 98       	cbi	0x08, 6	; 8
    4b14:	9f ef       	ldi	r25, 0xFF	; 255
    4b16:	21 ee       	ldi	r18, 0xE1	; 225
    4b18:	84 e0       	ldi	r24, 0x04	; 4
    4b1a:	91 50       	subi	r25, 0x01	; 1
    4b1c:	20 40       	sbci	r18, 0x00	; 0
    4b1e:	80 40       	sbci	r24, 0x00	; 0
    4b20:	e1 f7       	brne	.-8      	; 0x4b1a <main+0x1bc>
    4b22:	00 c0       	rjmp	.+0      	; 0x4b24 <main+0x1c6>
    4b24:	00 00       	nop
    4b26:	46 9a       	sbi	0x08, 6	; 8
    4b28:	2e 98       	cbi	0x05, 6	; 5
    4b2a:	9f ef       	ldi	r25, 0xFF	; 255
    4b2c:	21 ee       	ldi	r18, 0xE1	; 225
    4b2e:	84 e0       	ldi	r24, 0x04	; 4
    4b30:	91 50       	subi	r25, 0x01	; 1
    4b32:	20 40       	sbci	r18, 0x00	; 0
    4b34:	80 40       	sbci	r24, 0x00	; 0
    4b36:	e1 f7       	brne	.-8      	; 0x4b30 <main+0x1d2>
    4b38:	00 c0       	rjmp	.+0      	; 0x4b3a <main+0x1dc>
    4b3a:	00 00       	nop
    4b3c:	e9 cf       	rjmp	.-46     	; 0x4b10 <main+0x1b2>
    4b3e:	0e 94 55 08 	call	0x10aa	; 0x10aa <Adjust_Sensitivity>
    4b42:	10 93 38 08 	sts	0x0838, r17
    4b46:	1c cf       	rjmp	.-456    	; 0x4980 <main+0x22>
    4b48:	00 93 38 08 	sts	0x0838, r16
    4b4c:	19 cf       	rjmp	.-462    	; 0x4980 <main+0x22>

00004b4e <USBSend>:
    4b4e:	1f 93       	push	r17
    4b50:	cf 93       	push	r28
    4b52:	df 93       	push	r29
    4b54:	1f 92       	push	r1
    4b56:	cd b7       	in	r28, 0x3d	; 61
    4b58:	de b7       	in	r29, 0x3e	; 62
    4b5a:	18 2f       	mov	r17, r24
    4b5c:	10 92 30 07 	sts	0x0730, r1
    4b60:	10 92 2f 07 	sts	0x072F, r1
    4b64:	e0 91 34 07 	lds	r30, 0x0734
    4b68:	f0 91 35 07 	lds	r31, 0x0735
    4b6c:	82 81       	ldd	r24, Z+2	; 0x02
    4b6e:	88 23       	and	r24, r24
    4b70:	a9 f0       	breq	.+42     	; 0x4b9c <USBSend+0x4e>
    4b72:	80 91 2f 07 	lds	r24, 0x072F
    4b76:	90 91 30 07 	lds	r25, 0x0730
    4b7a:	84 36       	cpi	r24, 0x64	; 100
    4b7c:	91 05       	cpc	r25, r1
    4b7e:	70 f4       	brcc	.+28     	; 0x4b9c <USBSend+0x4e>
    4b80:	80 91 38 08 	lds	r24, 0x0838
    4b84:	81 30       	cpi	r24, 0x01	; 1
    4b86:	21 f0       	breq	.+8      	; 0x4b90 <USBSend+0x42>
    4b88:	80 91 38 08 	lds	r24, 0x0838
    4b8c:	8d 30       	cpi	r24, 0x0D	; 13
    4b8e:	51 f7       	brne	.-44     	; 0x4b64 <USBSend+0x16>
    4b90:	80 e2       	ldi	r24, 0x20	; 32
    4b92:	91 e0       	ldi	r25, 0x01	; 1
    4b94:	69 83       	std	Y+1, r22	; 0x01
    4b96:	8a d5       	rcall	.+2836   	; 0x56ac <HID_Device_USBTask>
    4b98:	69 81       	ldd	r22, Y+1	; 0x01
    4b9a:	e4 cf       	rjmp	.-56     	; 0x4b64 <USBSend+0x16>
    4b9c:	17 ff       	sbrs	r17, 7
    4b9e:	02 c0       	rjmp	.+4      	; 0x4ba4 <USBSend+0x56>
    4ba0:	1f 77       	andi	r17, 0x7F	; 127
    4ba2:	62 e0       	ldi	r22, 0x02	; 2
    4ba4:	14 37       	cpi	r17, 0x74	; 116
    4ba6:	11 f4       	brne	.+4      	; 0x4bac <USBSend+0x5e>
    4ba8:	61 e0       	ldi	r22, 0x01	; 1
    4baa:	18 e2       	ldi	r17, 0x28	; 40
    4bac:	f8 94       	cli
    4bae:	e0 91 34 07 	lds	r30, 0x0734
    4bb2:	f0 91 35 07 	lds	r31, 0x0735
    4bb6:	12 83       	std	Z+2, r17	; 0x02
    4bb8:	60 93 eb 06 	sts	0x06EB, r22
    4bbc:	80 e2       	ldi	r24, 0x20	; 32
    4bbe:	91 e0       	ldi	r25, 0x01	; 1
    4bc0:	75 d5       	rcall	.+2794   	; 0x56ac <HID_Device_USBTask>
    4bc2:	78 94       	sei
    4bc4:	8f e2       	ldi	r24, 0x2F	; 47
    4bc6:	95 e7       	ldi	r25, 0x75	; 117
    4bc8:	01 97       	sbiw	r24, 0x01	; 1
    4bca:	f1 f7       	brne	.-4      	; 0x4bc8 <USBSend+0x7a>
    4bcc:	00 c0       	rjmp	.+0      	; 0x4bce <USBSend+0x80>
    4bce:	00 00       	nop
    4bd0:	f8 94       	cli
    4bd2:	80 e2       	ldi	r24, 0x20	; 32
    4bd4:	91 e0       	ldi	r25, 0x01	; 1
    4bd6:	6a d5       	rcall	.+2772   	; 0x56ac <HID_Device_USBTask>
    4bd8:	78 94       	sei
    4bda:	0f 90       	pop	r0
    4bdc:	df 91       	pop	r29
    4bde:	cf 91       	pop	r28
    4be0:	1f 91       	pop	r17
    4be2:	08 95       	ret

00004be4 <USBSendString>:
    4be4:	ef 92       	push	r14
    4be6:	ff 92       	push	r15
    4be8:	0f 93       	push	r16
    4bea:	1f 93       	push	r17
    4bec:	cf 93       	push	r28
    4bee:	df 93       	push	r29
    4bf0:	8c 01       	movw	r16, r24
    4bf2:	fc 01       	movw	r30, r24
    4bf4:	01 90       	ld	r0, Z+
    4bf6:	00 20       	and	r0, r0
    4bf8:	e9 f7       	brne	.-6      	; 0x4bf4 <USBSendString+0x10>
    4bfa:	31 97       	sbiw	r30, 0x01	; 1
    4bfc:	ef 01       	movw	r28, r30
    4bfe:	c8 1b       	sub	r28, r24
    4c00:	d9 0b       	sbc	r29, r25
    4c02:	7c 01       	movw	r14, r24
    4c04:	c7 01       	movw	r24, r14
    4c06:	80 1b       	sub	r24, r16
    4c08:	91 0b       	sbc	r25, r17
    4c0a:	8c 17       	cp	r24, r28
    4c0c:	9d 07       	cpc	r25, r29
    4c0e:	0c f0       	brlt	.+2      	; 0x4c12 <USBSendString+0x2e>
    4c10:	53 c0       	rjmp	.+166    	; 0x4cb8 <USBSendString+0xd4>
    4c12:	f7 01       	movw	r30, r14
    4c14:	91 91       	ld	r25, Z+
    4c16:	7f 01       	movw	r14, r30
    4c18:	90 32       	cpi	r25, 0x20	; 32
    4c1a:	29 f1       	breq	.+74     	; 0x4c66 <USBSendString+0x82>
    4c1c:	98 32       	cpi	r25, 0x28	; 40
    4c1e:	31 f1       	breq	.+76     	; 0x4c6c <USBSendString+0x88>
    4c20:	99 32       	cpi	r25, 0x29	; 41
    4c22:	39 f1       	breq	.+78     	; 0x4c72 <USBSendString+0x8e>
    4c24:	9f 32       	cpi	r25, 0x2F	; 47
    4c26:	39 f1       	breq	.+78     	; 0x4c76 <USBSendString+0x92>
    4c28:	9f 33       	cpi	r25, 0x3F	; 63
    4c2a:	39 f1       	breq	.+78     	; 0x4c7a <USBSendString+0x96>
    4c2c:	9a 33       	cpi	r25, 0x3A	; 58
    4c2e:	41 f1       	breq	.+80     	; 0x4c80 <USBSendString+0x9c>
    4c30:	9d 30       	cpi	r25, 0x0D	; 13
    4c32:	49 f1       	breq	.+82     	; 0x4c86 <USBSendString+0xa2>
    4c34:	9a 30       	cpi	r25, 0x0A	; 10
    4c36:	39 f1       	breq	.+78     	; 0x4c86 <USBSendString+0xa2>
    4c38:	9e 32       	cpi	r25, 0x2E	; 46
    4c3a:	41 f1       	breq	.+80     	; 0x4c8c <USBSendString+0xa8>
    4c3c:	9d 33       	cpi	r25, 0x3D	; 61
    4c3e:	49 f1       	breq	.+82     	; 0x4c92 <USBSendString+0xae>
    4c40:	91 32       	cpi	r25, 0x21	; 33
    4c42:	51 f1       	breq	.+84     	; 0x4c98 <USBSendString+0xb4>
    4c44:	90 33       	cpi	r25, 0x30	; 48
    4c46:	59 f1       	breq	.+86     	; 0x4c9e <USBSendString+0xba>
    4c48:	8f ec       	ldi	r24, 0xCF	; 207
    4c4a:	89 0f       	add	r24, r25
    4c4c:	89 30       	cpi	r24, 0x09	; 9
    4c4e:	20 f4       	brcc	.+8      	; 0x4c58 <USBSendString+0x74>
    4c50:	8d ee       	ldi	r24, 0xED	; 237
    4c52:	89 0f       	add	r24, r25
    4c54:	60 e0       	ldi	r22, 0x00	; 0
    4c56:	25 c0       	rjmp	.+74     	; 0x4ca2 <USBSendString+0xbe>
    4c58:	89 2f       	mov	r24, r25
    4c5a:	90 e0       	ldi	r25, 0x00	; 0
    4c5c:	0e 94 06 34 	call	0x680c	; 0x680c <toupper>
    4c60:	8d 53       	subi	r24, 0x3D	; 61
    4c62:	62 e0       	ldi	r22, 0x02	; 2
    4c64:	1e c0       	rjmp	.+60     	; 0x4ca2 <USBSendString+0xbe>
    4c66:	60 e0       	ldi	r22, 0x00	; 0
    4c68:	8c e2       	ldi	r24, 0x2C	; 44
    4c6a:	1b c0       	rjmp	.+54     	; 0x4ca2 <USBSendString+0xbe>
    4c6c:	62 e0       	ldi	r22, 0x02	; 2
    4c6e:	86 e2       	ldi	r24, 0x26	; 38
    4c70:	18 c0       	rjmp	.+48     	; 0x4ca2 <USBSendString+0xbe>
    4c72:	62 e0       	ldi	r22, 0x02	; 2
    4c74:	15 c0       	rjmp	.+42     	; 0x4ca0 <USBSendString+0xbc>
    4c76:	60 e0       	ldi	r22, 0x00	; 0
    4c78:	01 c0       	rjmp	.+2      	; 0x4c7c <USBSendString+0x98>
    4c7a:	62 e0       	ldi	r22, 0x02	; 2
    4c7c:	88 e3       	ldi	r24, 0x38	; 56
    4c7e:	11 c0       	rjmp	.+34     	; 0x4ca2 <USBSendString+0xbe>
    4c80:	62 e0       	ldi	r22, 0x02	; 2
    4c82:	83 e3       	ldi	r24, 0x33	; 51
    4c84:	0e c0       	rjmp	.+28     	; 0x4ca2 <USBSendString+0xbe>
    4c86:	60 e0       	ldi	r22, 0x00	; 0
    4c88:	88 e2       	ldi	r24, 0x28	; 40
    4c8a:	0b c0       	rjmp	.+22     	; 0x4ca2 <USBSendString+0xbe>
    4c8c:	60 e0       	ldi	r22, 0x00	; 0
    4c8e:	87 e3       	ldi	r24, 0x37	; 55
    4c90:	08 c0       	rjmp	.+16     	; 0x4ca2 <USBSendString+0xbe>
    4c92:	60 e0       	ldi	r22, 0x00	; 0
    4c94:	8e e2       	ldi	r24, 0x2E	; 46
    4c96:	05 c0       	rjmp	.+10     	; 0x4ca2 <USBSendString+0xbe>
    4c98:	62 e0       	ldi	r22, 0x02	; 2
    4c9a:	8e e1       	ldi	r24, 0x1E	; 30
    4c9c:	02 c0       	rjmp	.+4      	; 0x4ca2 <USBSendString+0xbe>
    4c9e:	60 e0       	ldi	r22, 0x00	; 0
    4ca0:	87 e2       	ldi	r24, 0x27	; 39
    4ca2:	55 df       	rcall	.-342    	; 0x4b4e <USBSend>
    4ca4:	ff e7       	ldi	r31, 0x7F	; 127
    4ca6:	28 e3       	ldi	r18, 0x38	; 56
    4ca8:	81 e0       	ldi	r24, 0x01	; 1
    4caa:	f1 50       	subi	r31, 0x01	; 1
    4cac:	20 40       	sbci	r18, 0x00	; 0
    4cae:	80 40       	sbci	r24, 0x00	; 0
    4cb0:	e1 f7       	brne	.-8      	; 0x4caa <USBSendString+0xc6>
    4cb2:	00 c0       	rjmp	.+0      	; 0x4cb4 <USBSendString+0xd0>
    4cb4:	00 00       	nop
    4cb6:	a6 cf       	rjmp	.-180    	; 0x4c04 <USBSendString+0x20>
    4cb8:	df 91       	pop	r29
    4cba:	cf 91       	pop	r28
    4cbc:	1f 91       	pop	r17
    4cbe:	0f 91       	pop	r16
    4cc0:	ff 90       	pop	r15
    4cc2:	ef 90       	pop	r14
    4cc4:	08 95       	ret

00004cc6 <USBSendPROGString>:
    4cc6:	bc 01       	movw	r22, r24
    4cc8:	8b eb       	ldi	r24, 0xBB	; 187
    4cca:	97 e0       	ldi	r25, 0x07	; 7
    4ccc:	0e 94 0e 34 	call	0x681c	; 0x681c <strcpy_P>
    4cd0:	8b eb       	ldi	r24, 0xBB	; 187
    4cd2:	97 e0       	ldi	r25, 0x07	; 7
    4cd4:	87 cf       	rjmp	.-242    	; 0x4be4 <USBSendString>

00004cd6 <USBSendNumber>:
    4cd6:	1f 93       	push	r17
    4cd8:	cf 93       	push	r28
    4cda:	df 93       	push	r29
    4cdc:	28 2f       	mov	r18, r24
    4cde:	6a e0       	ldi	r22, 0x0A	; 10
    4ce0:	0e 94 34 33 	call	0x6668	; 0x6668 <__udivmodqi4>
    4ce4:	c9 2f       	mov	r28, r25
    4ce6:	82 2f       	mov	r24, r18
    4ce8:	90 e0       	ldi	r25, 0x00	; 0
    4cea:	8c 1b       	sub	r24, r28
    4cec:	91 09       	sbc	r25, r1
    4cee:	64 e6       	ldi	r22, 0x64	; 100
    4cf0:	70 e0       	ldi	r23, 0x00	; 0
    4cf2:	0e 94 40 33 	call	0x6680	; 0x6680 <__divmodhi4>
    4cf6:	6a e0       	ldi	r22, 0x0A	; 10
    4cf8:	70 e0       	ldi	r23, 0x00	; 0
    4cfa:	0e 94 40 33 	call	0x6680	; 0x6680 <__divmodhi4>
    4cfe:	d6 2f       	mov	r29, r22
    4d00:	16 2f       	mov	r17, r22
    4d02:	28 3c       	cpi	r18, 0xC8	; 200
    4d04:	18 f0       	brcs	.+6      	; 0x4d0c <USBSendNumber+0x36>
    4d06:	60 e0       	ldi	r22, 0x00	; 0
    4d08:	8f e1       	ldi	r24, 0x1F	; 31
    4d0a:	04 c0       	rjmp	.+8      	; 0x4d14 <USBSendNumber+0x3e>
    4d0c:	24 36       	cpi	r18, 0x64	; 100
    4d0e:	18 f0       	brcs	.+6      	; 0x4d16 <USBSendNumber+0x40>
    4d10:	60 e0       	ldi	r22, 0x00	; 0
    4d12:	8e e1       	ldi	r24, 0x1E	; 30
    4d14:	1c df       	rcall	.-456    	; 0x4b4e <USBSend>
    4d16:	60 e0       	ldi	r22, 0x00	; 0
    4d18:	11 23       	and	r17, r17
    4d1a:	19 f0       	breq	.+6      	; 0x4d22 <USBSendNumber+0x4c>
    4d1c:	8d e1       	ldi	r24, 0x1D	; 29
    4d1e:	8d 0f       	add	r24, r29
    4d20:	01 c0       	rjmp	.+2      	; 0x4d24 <USBSendNumber+0x4e>
    4d22:	87 e2       	ldi	r24, 0x27	; 39
    4d24:	14 df       	rcall	.-472    	; 0x4b4e <USBSend>
    4d26:	2f ef       	ldi	r18, 0xFF	; 255
    4d28:	80 e7       	ldi	r24, 0x70	; 112
    4d2a:	92 e0       	ldi	r25, 0x02	; 2
    4d2c:	21 50       	subi	r18, 0x01	; 1
    4d2e:	80 40       	sbci	r24, 0x00	; 0
    4d30:	90 40       	sbci	r25, 0x00	; 0
    4d32:	e1 f7       	brne	.-8      	; 0x4d2c <USBSendNumber+0x56>
    4d34:	00 c0       	rjmp	.+0      	; 0x4d36 <USBSendNumber+0x60>
    4d36:	00 00       	nop
    4d38:	60 e0       	ldi	r22, 0x00	; 0
    4d3a:	cc 23       	and	r28, r28
    4d3c:	19 f0       	breq	.+6      	; 0x4d44 <USBSendNumber+0x6e>
    4d3e:	8d e1       	ldi	r24, 0x1D	; 29
    4d40:	8c 0f       	add	r24, r28
    4d42:	01 c0       	rjmp	.+2      	; 0x4d46 <USBSendNumber+0x70>
    4d44:	87 e2       	ldi	r24, 0x27	; 39
    4d46:	03 df       	rcall	.-506    	; 0x4b4e <USBSend>
    4d48:	2f ef       	ldi	r18, 0xFF	; 255
    4d4a:	80 e7       	ldi	r24, 0x70	; 112
    4d4c:	92 e0       	ldi	r25, 0x02	; 2
    4d4e:	21 50       	subi	r18, 0x01	; 1
    4d50:	80 40       	sbci	r24, 0x00	; 0
    4d52:	90 40       	sbci	r25, 0x00	; 0
    4d54:	e1 f7       	brne	.-8      	; 0x4d4e <USBSendNumber+0x78>
    4d56:	00 c0       	rjmp	.+0      	; 0x4d58 <USBSendNumber+0x82>
    4d58:	00 00       	nop
    4d5a:	df 91       	pop	r29
    4d5c:	cf 91       	pop	r28
    4d5e:	1f 91       	pop	r17
    4d60:	08 95       	ret

00004d62 <GetModifier>:
    4d62:	80 91 2e 07 	lds	r24, 0x072E
    4d66:	82 30       	cpi	r24, 0x02	; 2
    4d68:	99 f0       	breq	.+38     	; 0x4d90 <GetModifier+0x2e>
    4d6a:	40 f4       	brcc	.+16     	; 0x4d7c <GetModifier+0x1a>
    4d6c:	81 30       	cpi	r24, 0x01	; 1
    4d6e:	09 f5       	brne	.+66     	; 0x4db2 <GetModifier+0x50>
    4d70:	89 b1       	in	r24, 0x09	; 9
    4d72:	82 95       	swap	r24
    4d74:	81 70       	andi	r24, 0x01	; 1
    4d76:	90 91 37 07 	lds	r25, 0x0737
    4d7a:	17 c0       	rjmp	.+46     	; 0x4daa <GetModifier+0x48>
    4d7c:	83 30       	cpi	r24, 0x03	; 3
    4d7e:	79 f0       	breq	.+30     	; 0x4d9e <GetModifier+0x3c>
    4d80:	84 30       	cpi	r24, 0x04	; 4
    4d82:	b9 f4       	brne	.+46     	; 0x4db2 <GetModifier+0x50>
    4d84:	83 b1       	in	r24, 0x03	; 3
    4d86:	82 95       	swap	r24
    4d88:	81 70       	andi	r24, 0x01	; 1
    4d8a:	90 91 f7 07 	lds	r25, 0x07F7
    4d8e:	0d c0       	rjmp	.+26     	; 0x4daa <GetModifier+0x48>
    4d90:	89 b1       	in	r24, 0x09	; 9
    4d92:	86 fb       	bst	r24, 6
    4d94:	88 27       	eor	r24, r24
    4d96:	80 f9       	bld	r24, 0
    4d98:	90 91 e6 06 	lds	r25, 0x06E6
    4d9c:	06 c0       	rjmp	.+12     	; 0x4daa <GetModifier+0x48>
    4d9e:	89 b1       	in	r24, 0x09	; 9
    4da0:	88 1f       	adc	r24, r24
    4da2:	88 27       	eor	r24, r24
    4da4:	88 1f       	adc	r24, r24
    4da6:	90 91 b9 07 	lds	r25, 0x07B9
    4daa:	89 13       	cpse	r24, r25
    4dac:	02 c0       	rjmp	.+4      	; 0x4db2 <GetModifier+0x50>
    4dae:	82 e0       	ldi	r24, 0x02	; 2
    4db0:	01 c0       	rjmp	.+2      	; 0x4db4 <GetModifier+0x52>
    4db2:	80 e0       	ldi	r24, 0x00	; 0
    4db4:	7c 9b       	sbis	0x0f, 4	; 15
    4db6:	81 60       	ori	r24, 0x01	; 1
    4db8:	7d 9b       	sbis	0x0f, 5	; 15
    4dba:	84 60       	ori	r24, 0x04	; 4
    4dbc:	7e 9b       	sbis	0x0f, 6	; 15
    4dbe:	88 60       	ori	r24, 0x08	; 8
    4dc0:	08 95       	ret

00004dc2 <ReadSensor>:
    4dc2:	7f 92       	push	r7
    4dc4:	8f 92       	push	r8
    4dc6:	9f 92       	push	r9
    4dc8:	af 92       	push	r10
    4dca:	bf 92       	push	r11
    4dcc:	cf 92       	push	r12
    4dce:	df 92       	push	r13
    4dd0:	ef 92       	push	r14
    4dd2:	ff 92       	push	r15
    4dd4:	0f 93       	push	r16
    4dd6:	1f 93       	push	r17
    4dd8:	cf 93       	push	r28
    4dda:	df 93       	push	r29
    4ddc:	f8 94       	cli
    4dde:	72 9a       	sbi	0x0e, 2	; 14
    4de0:	8f ec       	ldi	r24, 0xCF	; 207
    4de2:	97 e0       	ldi	r25, 0x07	; 7
    4de4:	01 97       	sbiw	r24, 0x01	; 1
    4de6:	f1 f7       	brne	.-4      	; 0x4de4 <ReadSensor+0x22>
    4de8:	00 c0       	rjmp	.+0      	; 0x4dea <ReadSensor+0x28>
    4dea:	00 00       	nop
    4dec:	72 98       	cbi	0x0e, 2	; 14
    4dee:	78 94       	sei
    4df0:	8f ec       	ldi	r24, 0xCF	; 207
    4df2:	97 e0       	ldi	r25, 0x07	; 7
    4df4:	01 97       	sbiw	r24, 0x01	; 1
    4df6:	f1 f7       	brne	.-4      	; 0x4df4 <ReadSensor+0x32>
    4df8:	00 c0       	rjmp	.+0      	; 0x4dfa <ReadSensor+0x38>
    4dfa:	00 00       	nop
    4dfc:	e1 2c       	mov	r14, r1
    4dfe:	f1 2c       	mov	r15, r1
    4e00:	71 2c       	mov	r7, r1
    4e02:	10 e0       	ldi	r17, 0x00	; 0
    4e04:	d0 e0       	ldi	r29, 0x00	; 0
    4e06:	c0 e0       	ldi	r28, 0x00	; 0
    4e08:	b0 e0       	ldi	r27, 0x00	; 0
    4e0a:	a0 e0       	ldi	r26, 0x00	; 0
    4e0c:	f0 e0       	ldi	r31, 0x00	; 0
    4e0e:	e0 e0       	ldi	r30, 0x00	; 0
    4e10:	1d 99       	sbic	0x03, 5	; 3
    4e12:	13 c0       	rjmp	.+38     	; 0x4e3a <ReadSensor+0x78>
    4e14:	21 e0       	ldi	r18, 0x01	; 1
    4e16:	30 e0       	ldi	r19, 0x00	; 0
    4e18:	40 e0       	ldi	r20, 0x00	; 0
    4e1a:	50 e0       	ldi	r21, 0x00	; 0
    4e1c:	60 e0       	ldi	r22, 0x00	; 0
    4e1e:	70 e0       	ldi	r23, 0x00	; 0
    4e20:	80 e0       	ldi	r24, 0x00	; 0
    4e22:	90 e0       	ldi	r25, 0x00	; 0
    4e24:	0e 2d       	mov	r16, r14
    4e26:	0e 94 87 33 	call	0x670e	; 0x670e <__ashldi3>
    4e2a:	72 2a       	or	r7, r18
    4e2c:	13 2b       	or	r17, r19
    4e2e:	d4 2b       	or	r29, r20
    4e30:	c5 2b       	or	r28, r21
    4e32:	b6 2b       	or	r27, r22
    4e34:	a7 2b       	or	r26, r23
    4e36:	f8 2b       	or	r31, r24
    4e38:	e9 2b       	or	r30, r25
    4e3a:	f8 94       	cli
    4e3c:	72 9a       	sbi	0x0e, 2	; 14
    4e3e:	9a e1       	ldi	r25, 0x1A	; 26
    4e40:	9a 95       	dec	r25
    4e42:	f1 f7       	brne	.-4      	; 0x4e40 <ReadSensor+0x7e>
    4e44:	00 c0       	rjmp	.+0      	; 0x4e46 <ReadSensor+0x84>
    4e46:	72 98       	cbi	0x0e, 2	; 14
    4e48:	78 94       	sei
    4e4a:	8a e6       	ldi	r24, 0x6A	; 106
    4e4c:	8a 95       	dec	r24
    4e4e:	f1 f7       	brne	.-4      	; 0x4e4c <ReadSensor+0x8a>
    4e50:	00 c0       	rjmp	.+0      	; 0x4e52 <ReadSensor+0x90>
    4e52:	9f ef       	ldi	r25, 0xFF	; 255
    4e54:	e9 1a       	sub	r14, r25
    4e56:	f9 0a       	sbc	r15, r25
    4e58:	80 e3       	ldi	r24, 0x30	; 48
    4e5a:	e8 16       	cp	r14, r24
    4e5c:	f1 04       	cpc	r15, r1
    4e5e:	c1 f6       	brne	.-80     	; 0x4e10 <ReadSensor+0x4e>
    4e60:	80 91 ba 07 	lds	r24, 0x07BA
    4e64:	82 30       	cpi	r24, 0x02	; 2
    4e66:	e9 f4       	brne	.+58     	; 0x4ea2 <ReadSensor+0xe0>
    4e68:	27 2d       	mov	r18, r7
    4e6a:	31 2f       	mov	r19, r17
    4e6c:	4d 2f       	mov	r20, r29
    4e6e:	5c 2f       	mov	r21, r28
    4e70:	6b 2f       	mov	r22, r27
    4e72:	7a 2f       	mov	r23, r26
    4e74:	8f 2f       	mov	r24, r31
    4e76:	9e 2f       	mov	r25, r30
    4e78:	0c e2       	ldi	r16, 0x2C	; 44
    4e7a:	0e 94 a2 33 	call	0x6744	; 0x6744 <__lshrdi3>
    4e7e:	49 01       	movw	r8, r18
    4e80:	91 e0       	ldi	r25, 0x01	; 1
    4e82:	89 22       	and	r8, r25
    4e84:	99 24       	eor	r9, r9
    4e86:	80 91 36 07 	lds	r24, 0x0736
    4e8a:	90 e0       	ldi	r25, 0x00	; 0
    4e8c:	88 16       	cp	r8, r24
    4e8e:	99 06       	cpc	r9, r25
    4e90:	41 f0       	breq	.+16     	; 0x4ea2 <ReadSensor+0xe0>
    4e92:	71 2c       	mov	r7, r1
    4e94:	10 e0       	ldi	r17, 0x00	; 0
    4e96:	d0 e0       	ldi	r29, 0x00	; 0
    4e98:	c0 e0       	ldi	r28, 0x00	; 0
    4e9a:	b0 e0       	ldi	r27, 0x00	; 0
    4e9c:	a0 e0       	ldi	r26, 0x00	; 0
    4e9e:	f0 e0       	ldi	r31, 0x00	; 0
    4ea0:	e0 e0       	ldi	r30, 0x00	; 0
    4ea2:	80 91 2e 07 	lds	r24, 0x072E
    4ea6:	81 30       	cpi	r24, 0x01	; 1
    4ea8:	51 f0       	breq	.+20     	; 0x4ebe <ReadSensor+0xfc>
    4eaa:	99 b1       	in	r25, 0x09	; 9
    4eac:	92 95       	swap	r25
    4eae:	91 70       	andi	r25, 0x01	; 1
    4eb0:	20 91 37 07 	lds	r18, 0x0737
    4eb4:	92 13       	cpse	r25, r18
    4eb6:	01 c0       	rjmp	.+2      	; 0x4eba <ReadSensor+0xf8>
    4eb8:	e0 64       	ori	r30, 0x40	; 64
    4eba:	82 30       	cpi	r24, 0x02	; 2
    4ebc:	59 f0       	breq	.+22     	; 0x4ed4 <ReadSensor+0x112>
    4ebe:	99 b1       	in	r25, 0x09	; 9
    4ec0:	96 fb       	bst	r25, 6
    4ec2:	99 27       	eor	r25, r25
    4ec4:	90 f9       	bld	r25, 0
    4ec6:	20 91 e6 06 	lds	r18, 0x06E6
    4eca:	92 13       	cpse	r25, r18
    4ecc:	01 c0       	rjmp	.+2      	; 0x4ed0 <ReadSensor+0x10e>
    4ece:	e0 62       	ori	r30, 0x20	; 32
    4ed0:	83 30       	cpi	r24, 0x03	; 3
    4ed2:	59 f0       	breq	.+22     	; 0x4eea <ReadSensor+0x128>
    4ed4:	99 b1       	in	r25, 0x09	; 9
    4ed6:	99 1f       	adc	r25, r25
    4ed8:	99 27       	eor	r25, r25
    4eda:	99 1f       	adc	r25, r25
    4edc:	20 91 b9 07 	lds	r18, 0x07B9
    4ee0:	92 13       	cpse	r25, r18
    4ee2:	01 c0       	rjmp	.+2      	; 0x4ee6 <ReadSensor+0x124>
    4ee4:	e0 61       	ori	r30, 0x10	; 16
    4ee6:	84 30       	cpi	r24, 0x04	; 4
    4ee8:	41 f0       	breq	.+16     	; 0x4efa <ReadSensor+0x138>
    4eea:	83 b1       	in	r24, 0x03	; 3
    4eec:	82 95       	swap	r24
    4eee:	81 70       	andi	r24, 0x01	; 1
    4ef0:	90 91 f7 07 	lds	r25, 0x07F7
    4ef4:	89 13       	cpse	r24, r25
    4ef6:	01 c0       	rjmp	.+2      	; 0x4efa <ReadSensor+0x138>
    4ef8:	e8 60       	ori	r30, 0x08	; 8
    4efa:	27 2d       	mov	r18, r7
    4efc:	31 2f       	mov	r19, r17
    4efe:	4d 2f       	mov	r20, r29
    4f00:	5c 2f       	mov	r21, r28
    4f02:	6b 2f       	mov	r22, r27
    4f04:	7a 2f       	mov	r23, r26
    4f06:	8f 2f       	mov	r24, r31
    4f08:	9e 2f       	mov	r25, r30
    4f0a:	df 91       	pop	r29
    4f0c:	cf 91       	pop	r28
    4f0e:	1f 91       	pop	r17
    4f10:	0f 91       	pop	r16
    4f12:	ff 90       	pop	r15
    4f14:	ef 90       	pop	r14
    4f16:	df 90       	pop	r13
    4f18:	cf 90       	pop	r12
    4f1a:	bf 90       	pop	r11
    4f1c:	af 90       	pop	r10
    4f1e:	9f 90       	pop	r9
    4f20:	8f 90       	pop	r8
    4f22:	7f 90       	pop	r7
    4f24:	08 95       	ret

00004f26 <GetKeySimple>:
    4f26:	ff 92       	push	r15
    4f28:	0f 93       	push	r16
    4f2a:	1f 93       	push	r17
    4f2c:	cf 93       	push	r28
    4f2e:	df 93       	push	r29
    4f30:	48 df       	rcall	.-368    	; 0x4dc2 <ReadSensor>
    4f32:	f2 2e       	mov	r15, r18
    4f34:	03 2f       	mov	r16, r19
    4f36:	14 2f       	mov	r17, r20
    4f38:	d5 2f       	mov	r29, r21
    4f3a:	c6 2f       	mov	r28, r22
    4f3c:	e7 2f       	mov	r30, r23
    4f3e:	b8 2f       	mov	r27, r24
    4f40:	f9 2f       	mov	r31, r25
    4f42:	80 91 ba 07 	lds	r24, 0x07BA
    4f46:	81 11       	cpse	r24, r1
    4f48:	ef 7e       	andi	r30, 0xEF	; 239
    4f4a:	2f 2d       	mov	r18, r15
    4f4c:	30 2f       	mov	r19, r16
    4f4e:	41 2f       	mov	r20, r17
    4f50:	5d 2f       	mov	r21, r29
    4f52:	6c 2f       	mov	r22, r28
    4f54:	7e 2f       	mov	r23, r30
    4f56:	8b 2f       	mov	r24, r27
    4f58:	9f 2f       	mov	r25, r31
    4f5a:	a0 e0       	ldi	r26, 0x00	; 0
    4f5c:	0e 94 be 33 	call	0x677c	; 0x677c <__cmpdi2_s8>
    4f60:	19 f0       	breq	.+6      	; 0x4f68 <GetKeySimple+0x42>
    4f62:	0e 94 7f 33 	call	0x66fe	; 0x66fe <__clzdi2>
    4f66:	01 c0       	rjmp	.+2      	; 0x4f6a <GetKeySimple+0x44>
    4f68:	80 e0       	ldi	r24, 0x00	; 0
    4f6a:	df 91       	pop	r29
    4f6c:	cf 91       	pop	r28
    4f6e:	1f 91       	pop	r17
    4f70:	0f 91       	pop	r16
    4f72:	ff 90       	pop	r15
    4f74:	08 95       	ret

00004f76 <GetKey>:
    4f76:	2f 92       	push	r2
    4f78:	3f 92       	push	r3
    4f7a:	4f 92       	push	r4
    4f7c:	5f 92       	push	r5
    4f7e:	6f 92       	push	r6
    4f80:	7f 92       	push	r7
    4f82:	8f 92       	push	r8
    4f84:	9f 92       	push	r9
    4f86:	af 92       	push	r10
    4f88:	bf 92       	push	r11
    4f8a:	cf 92       	push	r12
    4f8c:	df 92       	push	r13
    4f8e:	ef 92       	push	r14
    4f90:	ff 92       	push	r15
    4f92:	0f 93       	push	r16
    4f94:	1f 93       	push	r17
    4f96:	cf 93       	push	r28
    4f98:	df 93       	push	r29
    4f9a:	00 d0       	rcall	.+0      	; 0x4f9c <GetKey+0x26>
    4f9c:	1f 92       	push	r1
    4f9e:	cd b7       	in	r28, 0x3d	; 61
    4fa0:	de b7       	in	r29, 0x3e	; 62
    4fa2:	0f df       	rcall	.-482    	; 0x4dc2 <ReadSensor>
    4fa4:	49 01       	movw	r8, r18
    4fa6:	14 2f       	mov	r17, r20
    4fa8:	59 83       	std	Y+1, r21	; 0x01
    4faa:	f6 2f       	mov	r31, r22
    4fac:	e7 2f       	mov	r30, r23
    4fae:	48 2e       	mov	r4, r24
    4fb0:	39 2e       	mov	r3, r25
    4fb2:	80 91 ba 07 	lds	r24, 0x07BA
    4fb6:	81 11       	cpse	r24, r1
    4fb8:	ef 7e       	andi	r30, 0xEF	; 239
    4fba:	50 90 e8 06 	lds	r5, 0x06E8
    4fbe:	20 90 2c 07 	lds	r2, 0x072C
    4fc2:	8f e9       	ldi	r24, 0x9F	; 159
    4fc4:	e8 2e       	mov	r14, r24
    4fc6:	86 e0       	ldi	r24, 0x06	; 6
    4fc8:	f8 2e       	mov	r15, r24
    4fca:	99 ed       	ldi	r25, 0xD9	; 217
    4fcc:	a9 2e       	mov	r10, r25
    4fce:	93 e0       	ldi	r25, 0x03	; 3
    4fd0:	b9 2e       	mov	r11, r25
    4fd2:	c1 2c       	mov	r12, r1
    4fd4:	d1 2c       	mov	r13, r1
    4fd6:	71 2c       	mov	r7, r1
    4fd8:	61 2c       	mov	r6, r1
    4fda:	db 82       	std	Y+3, r13	; 0x03
    4fdc:	ca 82       	std	Y+2, r12	; 0x02
    4fde:	51 10       	cpse	r5, r1
    4fe0:	02 c0       	rjmp	.+4      	; 0x4fe6 <GetKey+0x70>
    4fe2:	1b 82       	std	Y+3, r1	; 0x03
    4fe4:	1a 82       	std	Y+2, r1	; 0x02
    4fe6:	d5 01       	movw	r26, r10
    4fe8:	0d 91       	ld	r16, X+
    4fea:	5d 01       	movw	r10, r26
    4fec:	bf ef       	ldi	r27, 0xFF	; 255
    4fee:	cb 1a       	sub	r12, r27
    4ff0:	db 0a       	sbc	r13, r27
    4ff2:	94 01       	movw	r18, r8
    4ff4:	41 2f       	mov	r20, r17
    4ff6:	59 81       	ldd	r21, Y+1	; 0x01
    4ff8:	6f 2f       	mov	r22, r31
    4ffa:	7e 2f       	mov	r23, r30
    4ffc:	84 2d       	mov	r24, r4
    4ffe:	93 2d       	mov	r25, r3
    5000:	0e 94 a2 33 	call	0x6744	; 0x6744 <__lshrdi3>
    5004:	21 70       	andi	r18, 0x01	; 1
    5006:	30 e0       	ldi	r19, 0x00	; 0
    5008:	40 e0       	ldi	r20, 0x00	; 0
    500a:	50 e0       	ldi	r21, 0x00	; 0
    500c:	60 e0       	ldi	r22, 0x00	; 0
    500e:	70 e0       	ldi	r23, 0x00	; 0
    5010:	80 e0       	ldi	r24, 0x00	; 0
    5012:	90 e0       	ldi	r25, 0x00	; 0
    5014:	a0 e0       	ldi	r26, 0x00	; 0
    5016:	0e 94 be 33 	call	0x677c	; 0x677c <__cmpdi2_s8>
    501a:	99 f0       	breq	.+38     	; 0x5042 <GetKey+0xcc>
    501c:	d7 01       	movw	r26, r14
    501e:	8c 91       	ld	r24, X
    5020:	82 15       	cp	r24, r2
    5022:	10 f4       	brcc	.+4      	; 0x5028 <GetKey+0xb2>
    5024:	8f 5f       	subi	r24, 0xFF	; 255
    5026:	31 c0       	rjmp	.+98     	; 0x508a <GetKey+0x114>
    5028:	aa 81       	ldd	r26, Y+2	; 0x02
    502a:	bb 81       	ldd	r27, Y+3	; 0x03
    502c:	a5 56       	subi	r26, 0x65	; 101
    502e:	b9 4f       	sbci	r27, 0xF9	; 249
    5030:	8c 91       	ld	r24, X
    5032:	81 11       	cpse	r24, r1
    5034:	2b c0       	rjmp	.+86     	; 0x508c <GetKey+0x116>
    5036:	81 e0       	ldi	r24, 0x01	; 1
    5038:	8c 93       	st	X, r24
    503a:	7c 2c       	mov	r7, r12
    503c:	66 24       	eor	r6, r6
    503e:	63 94       	inc	r6
    5040:	25 c0       	rjmp	.+74     	; 0x508c <GetKey+0x116>
    5042:	55 20       	and	r5, r5
    5044:	39 f0       	breq	.+14     	; 0x5054 <GetKey+0xde>
    5046:	d7 01       	movw	r26, r14
    5048:	8c 91       	ld	r24, X
    504a:	88 23       	and	r24, r24
    504c:	99 f0       	breq	.+38     	; 0x5074 <GetKey+0xfe>
    504e:	81 50       	subi	r24, 0x01	; 1
    5050:	d7 01       	movw	r26, r14
    5052:	1b c0       	rjmp	.+54     	; 0x508a <GetKey+0x114>
    5054:	80 91 9f 06 	lds	r24, 0x069F
    5058:	81 11       	cpse	r24, r1
    505a:	12 c0       	rjmp	.+36     	; 0x5080 <GetKey+0x10a>
    505c:	80 91 a0 06 	lds	r24, 0x06A0
    5060:	81 11       	cpse	r24, r1
    5062:	0e c0       	rjmp	.+28     	; 0x5080 <GetKey+0x10a>
    5064:	80 91 a1 06 	lds	r24, 0x06A1
    5068:	81 11       	cpse	r24, r1
    506a:	0a c0       	rjmp	.+20     	; 0x5080 <GetKey+0x10a>
    506c:	80 91 a2 06 	lds	r24, 0x06A2
    5070:	81 11       	cpse	r24, r1
    5072:	06 c0       	rjmp	.+12     	; 0x5080 <GetKey+0x10a>
    5074:	aa 81       	ldd	r26, Y+2	; 0x02
    5076:	bb 81       	ldd	r27, Y+3	; 0x03
    5078:	a5 56       	subi	r26, 0x65	; 101
    507a:	b9 4f       	sbci	r27, 0xF9	; 249
    507c:	1c 92       	st	X, r1
    507e:	06 c0       	rjmp	.+12     	; 0x508c <GetKey+0x116>
    5080:	d7 01       	movw	r26, r14
    5082:	8c 91       	ld	r24, X
    5084:	88 23       	and	r24, r24
    5086:	11 f0       	breq	.+4      	; 0x508c <GetKey+0x116>
    5088:	81 50       	subi	r24, 0x01	; 1
    508a:	8c 93       	st	X, r24
    508c:	bf ef       	ldi	r27, 0xFF	; 255
    508e:	eb 1a       	sub	r14, r27
    5090:	fb 0a       	sbc	r15, r27
    5092:	84 e0       	ldi	r24, 0x04	; 4
    5094:	c8 16       	cp	r12, r24
    5096:	d1 04       	cpc	r13, r1
    5098:	09 f0       	breq	.+2      	; 0x509c <GetKey+0x126>
    509a:	9f cf       	rjmp	.-194    	; 0x4fda <GetKey+0x64>
    509c:	f9 80       	ldd	r15, Y+1	; 0x01
    509e:	94 01       	movw	r18, r8
    50a0:	41 2f       	mov	r20, r17
    50a2:	5f 2d       	mov	r21, r15
    50a4:	6f 2f       	mov	r22, r31
    50a6:	7e 2f       	mov	r23, r30
    50a8:	80 e0       	ldi	r24, 0x00	; 0
    50aa:	90 e0       	ldi	r25, 0x00	; 0
    50ac:	2f 3f       	cpi	r18, 0xFF	; 255
    50ae:	af ef       	ldi	r26, 0xFF	; 255
    50b0:	3a 07       	cpc	r19, r26
    50b2:	4a 07       	cpc	r20, r26
    50b4:	5a 07       	cpc	r21, r26
    50b6:	6a 07       	cpc	r22, r26
    50b8:	7a 07       	cpc	r23, r26
    50ba:	81 05       	cpc	r24, r1
    50bc:	91 05       	cpc	r25, r1
    50be:	09 f4       	brne	.+2      	; 0x50c2 <GetKey+0x14c>
    50c0:	55 c0       	rjmp	.+170    	; 0x516c <GetKey+0x1f6>
    50c2:	80 91 9a 06 	lds	r24, 0x069A
    50c6:	88 23       	and	r24, r24
    50c8:	79 f0       	breq	.+30     	; 0x50e8 <GetKey+0x172>
    50ca:	af e3       	ldi	r26, 0x3F	; 63
    50cc:	b0 e0       	ldi	r27, 0x00	; 0
    50ce:	a8 1b       	sub	r26, r24
    50d0:	b1 09       	sbc	r27, r1
    50d2:	21 e0       	ldi	r18, 0x01	; 1
    50d4:	30 e0       	ldi	r19, 0x00	; 0
    50d6:	40 e0       	ldi	r20, 0x00	; 0
    50d8:	50 e0       	ldi	r21, 0x00	; 0
    50da:	60 e0       	ldi	r22, 0x00	; 0
    50dc:	70 e0       	ldi	r23, 0x00	; 0
    50de:	80 e0       	ldi	r24, 0x00	; 0
    50e0:	0a 2f       	mov	r16, r26
    50e2:	0e 94 87 33 	call	0x670e	; 0x670e <__ashldi3>
    50e6:	27 c0       	rjmp	.+78     	; 0x5136 <GetKey+0x1c0>
    50e8:	90 91 99 06 	lds	r25, 0x0699
    50ec:	99 23       	and	r25, r25
    50ee:	49 f1       	breq	.+82     	; 0x5142 <GetKey+0x1cc>
    50f0:	80 91 98 06 	lds	r24, 0x0698
    50f4:	8f 5f       	subi	r24, 0xFF	; 255
    50f6:	80 93 98 06 	sts	0x0698, r24
    50fa:	20 91 2d 07 	lds	r18, 0x072D
    50fe:	82 17       	cp	r24, r18
    5100:	28 f0       	brcs	.+10     	; 0x510c <GetKey+0x196>
    5102:	10 92 98 06 	sts	0x0698, r1
    5106:	10 92 99 06 	sts	0x0699, r1
    510a:	1b c0       	rjmp	.+54     	; 0x5142 <GetKey+0x1cc>
    510c:	af e3       	ldi	r26, 0x3F	; 63
    510e:	b0 e0       	ldi	r27, 0x00	; 0
    5110:	a9 1b       	sub	r26, r25
    5112:	b1 09       	sbc	r27, r1
    5114:	21 e0       	ldi	r18, 0x01	; 1
    5116:	30 e0       	ldi	r19, 0x00	; 0
    5118:	40 e0       	ldi	r20, 0x00	; 0
    511a:	50 e0       	ldi	r21, 0x00	; 0
    511c:	60 e0       	ldi	r22, 0x00	; 0
    511e:	70 e0       	ldi	r23, 0x00	; 0
    5120:	80 e0       	ldi	r24, 0x00	; 0
    5122:	90 e0       	ldi	r25, 0x00	; 0
    5124:	0a 2f       	mov	r16, r26
    5126:	0e 94 87 33 	call	0x670e	; 0x670e <__ashldi3>
    512a:	20 95       	com	r18
    512c:	30 95       	com	r19
    512e:	40 95       	com	r20
    5130:	50 95       	com	r21
    5132:	60 95       	com	r22
    5134:	70 95       	com	r23
    5136:	82 22       	and	r8, r18
    5138:	93 22       	and	r9, r19
    513a:	14 23       	and	r17, r20
    513c:	f5 22       	and	r15, r21
    513e:	f6 23       	and	r31, r22
    5140:	e7 23       	and	r30, r23
    5142:	94 01       	movw	r18, r8
    5144:	41 2f       	mov	r20, r17
    5146:	5f 2d       	mov	r21, r15
    5148:	6f 2f       	mov	r22, r31
    514a:	7e 2f       	mov	r23, r30
    514c:	80 e0       	ldi	r24, 0x00	; 0
    514e:	90 e0       	ldi	r25, 0x00	; 0
    5150:	a0 e0       	ldi	r26, 0x00	; 0
    5152:	0e 94 be 33 	call	0x677c	; 0x677c <__cmpdi2_s8>
    5156:	51 f0       	breq	.+20     	; 0x516c <GetKey+0x1f6>
    5158:	0e 94 7f 33 	call	0x66fe	; 0x66fe <__clzdi2>
    515c:	90 91 97 06 	lds	r25, 0x0697
    5160:	9f 5f       	subi	r25, 0xFF	; 255
    5162:	90 93 97 06 	sts	0x0697, r25
    5166:	10 92 96 06 	sts	0x0696, r1
    516a:	08 c0       	rjmp	.+16     	; 0x517c <GetKey+0x206>
    516c:	80 91 96 06 	lds	r24, 0x0696
    5170:	8f 5f       	subi	r24, 0xFF	; 255
    5172:	80 93 96 06 	sts	0x0696, r24
    5176:	10 92 97 06 	sts	0x0697, r1
    517a:	80 e0       	ldi	r24, 0x00	; 0
    517c:	90 91 78 07 	lds	r25, 0x0778
    5180:	20 91 97 06 	lds	r18, 0x0697
    5184:	29 17       	cp	r18, r25
    5186:	58 f0       	brcs	.+22     	; 0x519e <GetKey+0x228>
    5188:	90 93 97 06 	sts	0x0697, r25
    518c:	90 91 9a 06 	lds	r25, 0x069A
    5190:	89 17       	cp	r24, r25
    5192:	b1 f0       	breq	.+44     	; 0x51c0 <GetKey+0x24a>
    5194:	80 93 9a 06 	sts	0x069A, r24
    5198:	66 20       	and	r6, r6
    519a:	a9 f0       	breq	.+42     	; 0x51c6 <GetKey+0x250>
    519c:	0f c0       	rjmp	.+30     	; 0x51bc <GetKey+0x246>
    519e:	80 91 ea 06 	lds	r24, 0x06EA
    51a2:	90 91 96 06 	lds	r25, 0x0696
    51a6:	98 17       	cp	r25, r24
    51a8:	58 f0       	brcs	.+22     	; 0x51c0 <GetKey+0x24a>
    51aa:	80 93 96 06 	sts	0x0696, r24
    51ae:	80 91 9a 06 	lds	r24, 0x069A
    51b2:	80 93 99 06 	sts	0x0699, r24
    51b6:	10 92 9a 06 	sts	0x069A, r1
    51ba:	02 c0       	rjmp	.+4      	; 0x51c0 <GetKey+0x24a>
    51bc:	87 2d       	mov	r24, r7
    51be:	03 c0       	rjmp	.+6      	; 0x51c6 <GetKey+0x250>
    51c0:	61 10       	cpse	r6, r1
    51c2:	fc cf       	rjmp	.-8      	; 0x51bc <GetKey+0x246>
    51c4:	80 e0       	ldi	r24, 0x00	; 0
    51c6:	0f 90       	pop	r0
    51c8:	0f 90       	pop	r0
    51ca:	0f 90       	pop	r0
    51cc:	df 91       	pop	r29
    51ce:	cf 91       	pop	r28
    51d0:	1f 91       	pop	r17
    51d2:	0f 91       	pop	r16
    51d4:	ff 90       	pop	r15
    51d6:	ef 90       	pop	r14
    51d8:	df 90       	pop	r13
    51da:	cf 90       	pop	r12
    51dc:	bf 90       	pop	r11
    51de:	af 90       	pop	r10
    51e0:	9f 90       	pop	r9
    51e2:	8f 90       	pop	r8
    51e4:	7f 90       	pop	r7
    51e6:	6f 90       	pop	r6
    51e8:	5f 90       	pop	r5
    51ea:	4f 90       	pop	r4
    51ec:	3f 90       	pop	r3
    51ee:	2f 90       	pop	r2
    51f0:	08 95       	ret

000051f2 <GetHIDKeyCode>:
    51f2:	28 2f       	mov	r18, r24
    51f4:	30 e0       	ldi	r19, 0x00	; 0
    51f6:	62 ff       	sbrs	r22, 2
    51f8:	06 c0       	rjmp	.+12     	; 0x5206 <GetHIDKeyCode+0x14>
    51fa:	f9 01       	movw	r30, r18
    51fc:	e7 5c       	subi	r30, 0xC7	; 199
    51fe:	f5 4f       	sbci	r31, 0xF5	; 245
    5200:	80 81       	ld	r24, Z
    5202:	81 11       	cpse	r24, r1
    5204:	0c c0       	rjmp	.+24     	; 0x521e <GetHIDKeyCode+0x2c>
    5206:	61 ff       	sbrs	r22, 1
    5208:	06 c0       	rjmp	.+12     	; 0x5216 <GetHIDKeyCode+0x24>
    520a:	f9 01       	movw	r30, r18
    520c:	e8 5c       	subi	r30, 0xC8	; 200
    520e:	f8 4f       	sbci	r31, 0xF8	; 248
    5210:	80 81       	ld	r24, Z
    5212:	81 11       	cpse	r24, r1
    5214:	04 c0       	rjmp	.+8      	; 0x521e <GetHIDKeyCode+0x2c>
    5216:	f9 01       	movw	r30, r18
    5218:	e4 51       	subi	r30, 0x14	; 20
    521a:	f9 4f       	sbci	r31, 0xF9	; 249
    521c:	80 81       	ld	r24, Z
    521e:	08 95       	ret

00005220 <GetASCIIKeyCode>:
    5220:	88 23       	and	r24, r24
    5222:	79 f0       	breq	.+30     	; 0x5242 <GetASCIIKeyCode+0x22>
    5224:	28 2f       	mov	r18, r24
    5226:	30 e0       	ldi	r19, 0x00	; 0
    5228:	61 ff       	sbrs	r22, 1
    522a:	06 c0       	rjmp	.+12     	; 0x5238 <GetASCIIKeyCode+0x18>
    522c:	f9 01       	movw	r30, r18
    522e:	e7 58       	subi	r30, 0x87	; 135
    5230:	f8 4f       	sbci	r31, 0xF8	; 248
    5232:	80 81       	ld	r24, Z
    5234:	81 11       	cpse	r24, r1
    5236:	06 c0       	rjmp	.+12     	; 0x5244 <GetASCIIKeyCode+0x24>
    5238:	f9 01       	movw	r30, r18
    523a:	e8 50       	subi	r30, 0x08	; 8
    523c:	f8 4f       	sbci	r31, 0xF8	; 248
    523e:	80 81       	ld	r24, Z
    5240:	08 95       	ret
    5242:	80 e0       	ldi	r24, 0x00	; 0
    5244:	08 95       	ret

00005246 <getHallState>:
    5246:	0f 93       	push	r16
    5248:	bc dd       	rcall	.-1160   	; 0x4dc2 <ReadSensor>
    524a:	0c e2       	ldi	r16, 0x2C	; 44
    524c:	0e 94 a2 33 	call	0x6744	; 0x6744 <__lshrdi3>
    5250:	82 2f       	mov	r24, r18
    5252:	81 70       	andi	r24, 0x01	; 1
    5254:	0f 91       	pop	r16
    5256:	08 95       	ret

00005258 <LoadKeyCodeTables>:
    5258:	40 e4       	ldi	r20, 0x40	; 64
    525a:	50 e0       	ldi	r21, 0x00	; 0
    525c:	60 e0       	ldi	r22, 0x00	; 0
    525e:	70 e0       	ldi	r23, 0x00	; 0
    5260:	8c ee       	ldi	r24, 0xEC	; 236
    5262:	96 e0       	ldi	r25, 0x06	; 6
    5264:	0e 94 f2 36 	call	0x6de4	; 0x6de4 <eeprom_read_block>
    5268:	40 e4       	ldi	r20, 0x40	; 64
    526a:	50 e0       	ldi	r21, 0x00	; 0
    526c:	60 e4       	ldi	r22, 0x40	; 64
    526e:	70 e0       	ldi	r23, 0x00	; 0
    5270:	89 e3       	ldi	r24, 0x39	; 57
    5272:	9a e0       	ldi	r25, 0x0A	; 10
    5274:	0e 94 f2 36 	call	0x6de4	; 0x6de4 <eeprom_read_block>
    5278:	40 e4       	ldi	r20, 0x40	; 64
    527a:	50 e0       	ldi	r21, 0x00	; 0
    527c:	60 e8       	ldi	r22, 0x80	; 128
    527e:	70 e0       	ldi	r23, 0x00	; 0
    5280:	88 e3       	ldi	r24, 0x38	; 56
    5282:	97 e0       	ldi	r25, 0x07	; 7
    5284:	0e 94 f2 36 	call	0x6de4	; 0x6de4 <eeprom_read_block>
    5288:	40 e4       	ldi	r20, 0x40	; 64
    528a:	50 e0       	ldi	r21, 0x00	; 0
    528c:	60 ec       	ldi	r22, 0xC0	; 192
    528e:	70 e0       	ldi	r23, 0x00	; 0
    5290:	88 ef       	ldi	r24, 0xF8	; 248
    5292:	97 e0       	ldi	r25, 0x07	; 7
    5294:	0e 94 f2 36 	call	0x6de4	; 0x6de4 <eeprom_read_block>
    5298:	40 e4       	ldi	r20, 0x40	; 64
    529a:	50 e0       	ldi	r21, 0x00	; 0
    529c:	60 e0       	ldi	r22, 0x00	; 0
    529e:	71 e0       	ldi	r23, 0x01	; 1
    52a0:	89 e7       	ldi	r24, 0x79	; 121
    52a2:	97 e0       	ldi	r25, 0x07	; 7
    52a4:	0c 94 f2 36 	jmp	0x6de4	; 0x6de4 <eeprom_read_block>

000052a8 <LoadEepromParameters>:
    52a8:	82 e0       	ldi	r24, 0x02	; 2
    52aa:	92 e0       	ldi	r25, 0x02	; 2
    52ac:	0e 94 02 37 	call	0x6e04	; 0x6e04 <eeprom_read_byte>
    52b0:	80 93 ea 06 	sts	0x06EA, r24
    52b4:	81 e0       	ldi	r24, 0x01	; 1
    52b6:	92 e0       	ldi	r25, 0x02	; 2
    52b8:	0e 94 02 37 	call	0x6e04	; 0x6e04 <eeprom_read_byte>
    52bc:	80 93 78 07 	sts	0x0778, r24
    52c0:	80 e0       	ldi	r24, 0x00	; 0
    52c2:	92 e0       	ldi	r25, 0x02	; 2
    52c4:	0e 94 02 37 	call	0x6e04	; 0x6e04 <eeprom_read_byte>
    52c8:	80 93 2d 07 	sts	0x072D, r24
    52cc:	8c e0       	ldi	r24, 0x0C	; 12
    52ce:	92 e0       	ldi	r25, 0x02	; 2
    52d0:	0e 94 02 37 	call	0x6e04	; 0x6e04 <eeprom_read_byte>
    52d4:	80 93 2c 07 	sts	0x072C, r24
    52d8:	83 e0       	ldi	r24, 0x03	; 3
    52da:	92 e0       	ldi	r25, 0x02	; 2
    52dc:	0e 94 02 37 	call	0x6e04	; 0x6e04 <eeprom_read_byte>
    52e0:	80 93 ba 07 	sts	0x07BA, r24
    52e4:	84 e0       	ldi	r24, 0x04	; 4
    52e6:	92 e0       	ldi	r25, 0x02	; 2
    52e8:	0e 94 02 37 	call	0x6e04	; 0x6e04 <eeprom_read_byte>
    52ec:	80 93 36 07 	sts	0x0736, r24
    52f0:	85 e0       	ldi	r24, 0x05	; 5
    52f2:	92 e0       	ldi	r25, 0x02	; 2
    52f4:	0e 94 02 37 	call	0x6e04	; 0x6e04 <eeprom_read_byte>
    52f8:	80 93 2e 07 	sts	0x072E, r24
    52fc:	8e e0       	ldi	r24, 0x0E	; 14
    52fe:	92 e0       	ldi	r25, 0x02	; 2
    5300:	0e 94 02 37 	call	0x6e04	; 0x6e04 <eeprom_read_byte>
    5304:	80 93 e8 06 	sts	0x06E8, r24
    5308:	8f e0       	ldi	r24, 0x0F	; 15
    530a:	92 e0       	ldi	r25, 0x02	; 2
    530c:	0e 94 02 37 	call	0x6e04	; 0x6e04 <eeprom_read_byte>
    5310:	80 93 e7 06 	sts	0x06E7, r24
    5314:	08 95       	ret

00005316 <ClearKeyCodeTables>:
    5316:	80 e4       	ldi	r24, 0x40	; 64
    5318:	ec ee       	ldi	r30, 0xEC	; 236
    531a:	f6 e0       	ldi	r31, 0x06	; 6
    531c:	df 01       	movw	r26, r30
    531e:	98 2f       	mov	r25, r24
    5320:	1d 92       	st	X+, r1
    5322:	9a 95       	dec	r25
    5324:	e9 f7       	brne	.-6      	; 0x5320 <ClearKeyCodeTables+0xa>
    5326:	e9 e3       	ldi	r30, 0x39	; 57
    5328:	fa e0       	ldi	r31, 0x0A	; 10
    532a:	df 01       	movw	r26, r30
    532c:	98 2f       	mov	r25, r24
    532e:	1d 92       	st	X+, r1
    5330:	9a 95       	dec	r25
    5332:	e9 f7       	brne	.-6      	; 0x532e <ClearKeyCodeTables+0x18>
    5334:	e8 e3       	ldi	r30, 0x38	; 56
    5336:	f7 e0       	ldi	r31, 0x07	; 7
    5338:	df 01       	movw	r26, r30
    533a:	98 2f       	mov	r25, r24
    533c:	1d 92       	st	X+, r1
    533e:	9a 95       	dec	r25
    5340:	e9 f7       	brne	.-6      	; 0x533c <ClearKeyCodeTables+0x26>
    5342:	e8 ef       	ldi	r30, 0xF8	; 248
    5344:	f7 e0       	ldi	r31, 0x07	; 7
    5346:	df 01       	movw	r26, r30
    5348:	98 2f       	mov	r25, r24
    534a:	1d 92       	st	X+, r1
    534c:	9a 95       	dec	r25
    534e:	e9 f7       	brne	.-6      	; 0x534a <ClearKeyCodeTables+0x34>
    5350:	e9 e7       	ldi	r30, 0x79	; 121
    5352:	f7 e0       	ldi	r31, 0x07	; 7
    5354:	df 01       	movw	r26, r30
    5356:	1d 92       	st	X+, r1
    5358:	8a 95       	dec	r24
    535a:	e9 f7       	brne	.-6      	; 0x5356 <ClearKeyCodeTables+0x40>
    535c:	10 92 2e 07 	sts	0x072E, r1
    5360:	08 95       	ret

00005362 <RestoreFactoryDefaults>:
    5362:	65 e0       	ldi	r22, 0x05	; 5
    5364:	80 e0       	ldi	r24, 0x00	; 0
    5366:	92 e0       	ldi	r25, 0x02	; 2
    5368:	0e 94 0f 37 	call	0x6e1e	; 0x6e1e <eeprom_update_byte>
    536c:	66 e0       	ldi	r22, 0x06	; 6
    536e:	81 e0       	ldi	r24, 0x01	; 1
    5370:	92 e0       	ldi	r25, 0x02	; 2
    5372:	0e 94 0f 37 	call	0x6e1e	; 0x6e1e <eeprom_update_byte>
    5376:	63 e0       	ldi	r22, 0x03	; 3
    5378:	82 e0       	ldi	r24, 0x02	; 2
    537a:	92 e0       	ldi	r25, 0x02	; 2
    537c:	0e 94 0f 37 	call	0x6e1e	; 0x6e1e <eeprom_update_byte>
    5380:	63 e0       	ldi	r22, 0x03	; 3
    5382:	8c e0       	ldi	r24, 0x0C	; 12
    5384:	92 e0       	ldi	r25, 0x02	; 2
    5386:	0e 94 0f 37 	call	0x6e1e	; 0x6e1e <eeprom_update_byte>
    538a:	60 e0       	ldi	r22, 0x00	; 0
    538c:	8e e0       	ldi	r24, 0x0E	; 14
    538e:	92 e0       	ldi	r25, 0x02	; 2
    5390:	0e 94 0f 37 	call	0x6e1e	; 0x6e1e <eeprom_update_byte>
    5394:	61 e0       	ldi	r22, 0x01	; 1
    5396:	8d e0       	ldi	r24, 0x0D	; 13
    5398:	92 e0       	ldi	r25, 0x02	; 2
    539a:	0e 94 0f 37 	call	0x6e1e	; 0x6e1e <eeprom_update_byte>
    539e:	60 e0       	ldi	r22, 0x00	; 0
    53a0:	8f e0       	ldi	r24, 0x0F	; 15
    53a2:	92 e0       	ldi	r25, 0x02	; 2
    53a4:	0e 94 0f 37 	call	0x6e1e	; 0x6e1e <eeprom_update_byte>
    53a8:	60 e0       	ldi	r22, 0x00	; 0
    53aa:	70 e0       	ldi	r23, 0x00	; 0
    53ac:	8a e0       	ldi	r24, 0x0A	; 10
    53ae:	92 e0       	ldi	r25, 0x02	; 2
    53b0:	0e 94 38 37 	call	0x6e70	; 0x6e70 <eeprom_write_word>
    53b4:	60 e0       	ldi	r22, 0x00	; 0
    53b6:	83 e0       	ldi	r24, 0x03	; 3
    53b8:	92 e0       	ldi	r25, 0x02	; 2
    53ba:	0e 94 2a 37 	call	0x6e54	; 0x6e54 <eeprom_write_byte>
    53be:	74 cf       	rjmp	.-280    	; 0x52a8 <LoadEepromParameters>

000053c0 <InitializeEeprom>:
    53c0:	cf 93       	push	r28
    53c2:	df 93       	push	r29
    53c4:	8f ef       	ldi	r24, 0xFF	; 255
    53c6:	93 e0       	ldi	r25, 0x03	; 3
    53c8:	0e 94 02 37 	call	0x6e04	; 0x6e04 <eeprom_read_byte>
    53cc:	87 34       	cpi	r24, 0x47	; 71
    53ce:	f1 f0       	breq	.+60     	; 0x540c <InitializeEeprom+0x4c>
    53d0:	c0 e0       	ldi	r28, 0x00	; 0
    53d2:	d0 e0       	ldi	r29, 0x00	; 0
    53d4:	60 e0       	ldi	r22, 0x00	; 0
    53d6:	ce 01       	movw	r24, r28
    53d8:	0e 94 0f 37 	call	0x6e1e	; 0x6e1e <eeprom_update_byte>
    53dc:	21 96       	adiw	r28, 0x01	; 1
    53de:	c1 35       	cpi	r28, 0x51	; 81
    53e0:	81 e0       	ldi	r24, 0x01	; 1
    53e2:	d8 07       	cpc	r29, r24
    53e4:	b9 f7       	brne	.-18     	; 0x53d4 <InitializeEeprom+0x14>
    53e6:	c0 e0       	ldi	r28, 0x00	; 0
    53e8:	d2 e0       	ldi	r29, 0x02	; 2
    53ea:	60 e0       	ldi	r22, 0x00	; 0
    53ec:	ce 01       	movw	r24, r28
    53ee:	0e 94 0f 37 	call	0x6e1e	; 0x6e1e <eeprom_update_byte>
    53f2:	21 96       	adiw	r28, 0x01	; 1
    53f4:	c2 31       	cpi	r28, 0x12	; 18
    53f6:	82 e0       	ldi	r24, 0x02	; 2
    53f8:	d8 07       	cpc	r29, r24
    53fa:	b9 f7       	brne	.-18     	; 0x53ea <InitializeEeprom+0x2a>
    53fc:	b2 df       	rcall	.-156    	; 0x5362 <RestoreFactoryDefaults>
    53fe:	67 e4       	ldi	r22, 0x47	; 71
    5400:	8f ef       	ldi	r24, 0xFF	; 255
    5402:	93 e0       	ldi	r25, 0x03	; 3
    5404:	df 91       	pop	r29
    5406:	cf 91       	pop	r28
    5408:	0c 94 2a 37 	jmp	0x6e54	; 0x6e54 <eeprom_write_byte>
    540c:	df 91       	pop	r29
    540e:	cf 91       	pop	r28
    5410:	08 95       	ret

00005412 <HID_Device_ProcessControlRequest>:
    5412:	6f 92       	push	r6
    5414:	7f 92       	push	r7
    5416:	8f 92       	push	r8
    5418:	9f 92       	push	r9
    541a:	af 92       	push	r10
    541c:	bf 92       	push	r11
    541e:	cf 92       	push	r12
    5420:	df 92       	push	r13
    5422:	ef 92       	push	r14
    5424:	ff 92       	push	r15
    5426:	0f 93       	push	r16
    5428:	1f 93       	push	r17
    542a:	cf 93       	push	r28
    542c:	df 93       	push	r29
    542e:	00 d0       	rcall	.+0      	; 0x5430 <HID_Device_ProcessControlRequest+0x1e>
    5430:	1f 92       	push	r1
    5432:	cd b7       	in	r28, 0x3d	; 61
    5434:	de b7       	in	r29, 0x3e	; 62
    5436:	7c 01       	movw	r14, r24
    5438:	cd b6       	in	r12, 0x3d	; 61
    543a:	de b6       	in	r13, 0x3e	; 62
    543c:	80 91 e8 00 	lds	r24, 0x00E8
    5440:	83 ff       	sbrs	r24, 3
    5442:	0a c1       	rjmp	.+532    	; 0x5658 <HID_Device_ProcessControlRequest+0x246>
    5444:	f7 01       	movw	r30, r14
    5446:	80 81       	ld	r24, Z
    5448:	90 e0       	ldi	r25, 0x00	; 0
    544a:	20 91 82 0a 	lds	r18, 0x0A82
    544e:	30 91 83 0a 	lds	r19, 0x0A83
    5452:	28 17       	cp	r18, r24
    5454:	39 07       	cpc	r19, r25
    5456:	09 f0       	breq	.+2      	; 0x545a <HID_Device_ProcessControlRequest+0x48>
    5458:	ff c0       	rjmp	.+510    	; 0x5658 <HID_Device_ProcessControlRequest+0x246>
    545a:	80 91 7f 0a 	lds	r24, 0x0A7F
    545e:	83 30       	cpi	r24, 0x03	; 3
    5460:	09 f4       	brne	.+2      	; 0x5464 <HID_Device_ProcessControlRequest+0x52>
    5462:	a1 c0       	rjmp	.+322    	; 0x55a6 <HID_Device_ProcessControlRequest+0x194>
    5464:	30 f4       	brcc	.+12     	; 0x5472 <HID_Device_ProcessControlRequest+0x60>
    5466:	81 30       	cpi	r24, 0x01	; 1
    5468:	71 f0       	breq	.+28     	; 0x5486 <HID_Device_ProcessControlRequest+0x74>
    546a:	82 30       	cpi	r24, 0x02	; 2
    546c:	09 f4       	brne	.+2      	; 0x5470 <HID_Device_ProcessControlRequest+0x5e>
    546e:	d8 c0       	rjmp	.+432    	; 0x5620 <HID_Device_ProcessControlRequest+0x20e>
    5470:	f3 c0       	rjmp	.+486    	; 0x5658 <HID_Device_ProcessControlRequest+0x246>
    5472:	8a 30       	cpi	r24, 0x0A	; 10
    5474:	09 f4       	brne	.+2      	; 0x5478 <HID_Device_ProcessControlRequest+0x66>
    5476:	bc c0       	rjmp	.+376    	; 0x55f0 <HID_Device_ProcessControlRequest+0x1de>
    5478:	8b 30       	cpi	r24, 0x0B	; 11
    547a:	09 f4       	brne	.+2      	; 0x547e <HID_Device_ProcessControlRequest+0x6c>
    547c:	a5 c0       	rjmp	.+330    	; 0x55c8 <HID_Device_ProcessControlRequest+0x1b6>
    547e:	89 30       	cpi	r24, 0x09	; 9
    5480:	09 f0       	breq	.+2      	; 0x5484 <HID_Device_ProcessControlRequest+0x72>
    5482:	ea c0       	rjmp	.+468    	; 0x5658 <HID_Device_ProcessControlRequest+0x246>
    5484:	53 c0       	rjmp	.+166    	; 0x552c <HID_Device_ProcessControlRequest+0x11a>
    5486:	80 91 7e 0a 	lds	r24, 0x0A7E
    548a:	81 3a       	cpi	r24, 0xA1	; 161
    548c:	09 f0       	breq	.+2      	; 0x5490 <HID_Device_ProcessControlRequest+0x7e>
    548e:	e4 c0       	rjmp	.+456    	; 0x5658 <HID_Device_ProcessControlRequest+0x246>
    5490:	8d b6       	in	r8, 0x3d	; 61
    5492:	9e b6       	in	r9, 0x3e	; 62
    5494:	1a 82       	std	Y+2, r1	; 0x02
    5496:	19 82       	std	Y+1, r1	; 0x01
    5498:	80 91 80 0a 	lds	r24, 0x0A80
    549c:	10 91 81 0a 	lds	r17, 0x0A81
    54a0:	8b 83       	std	Y+3, r24	; 0x03
    54a2:	f7 01       	movw	r30, r14
    54a4:	80 85       	ldd	r24, Z+8	; 0x08
    54a6:	48 2f       	mov	r20, r24
    54a8:	50 e0       	ldi	r21, 0x00	; 0
    54aa:	8d b7       	in	r24, 0x3d	; 61
    54ac:	9e b7       	in	r25, 0x3e	; 62
    54ae:	84 1b       	sub	r24, r20
    54b0:	95 0b       	sbc	r25, r21
    54b2:	0f b6       	in	r0, 0x3f	; 63
    54b4:	f8 94       	cli
    54b6:	9e bf       	out	0x3e, r25	; 62
    54b8:	0f be       	out	0x3f, r0	; 63
    54ba:	8d bf       	out	0x3d, r24	; 61
    54bc:	ed b7       	in	r30, 0x3d	; 61
    54be:	fe b7       	in	r31, 0x3e	; 62
    54c0:	31 96       	adiw	r30, 0x01	; 1
    54c2:	5f 01       	movw	r10, r30
    54c4:	60 e0       	ldi	r22, 0x00	; 0
    54c6:	70 e0       	ldi	r23, 0x00	; 0
    54c8:	cf 01       	movw	r24, r30
    54ca:	0e 94 2e 34 	call	0x685c	; 0x685c <memset>
    54ce:	4f ef       	ldi	r20, 0xFF	; 255
    54d0:	41 0f       	add	r20, r17
    54d2:	8e 01       	movw	r16, r28
    54d4:	0f 5f       	subi	r16, 0xFF	; 255
    54d6:	1f 4f       	sbci	r17, 0xFF	; 255
    54d8:	95 01       	movw	r18, r10
    54da:	be 01       	movw	r22, r28
    54dc:	6d 5f       	subi	r22, 0xFD	; 253
    54de:	7f 4f       	sbci	r23, 0xFF	; 255
    54e0:	c7 01       	movw	r24, r14
    54e2:	88 d9       	rcall	.-3312   	; 0x47f4 <CALLBACK_HID_Device_CreateHIDReport>
    54e4:	f7 01       	movw	r30, r14
    54e6:	86 81       	ldd	r24, Z+6	; 0x06
    54e8:	97 81       	ldd	r25, Z+7	; 0x07
    54ea:	00 97       	sbiw	r24, 0x00	; 0
    54ec:	29 f0       	breq	.+10     	; 0x54f8 <HID_Device_ProcessControlRequest+0xe6>
    54ee:	40 85       	ldd	r20, Z+8	; 0x08
    54f0:	50 e0       	ldi	r21, 0x00	; 0
    54f2:	b5 01       	movw	r22, r10
    54f4:	0e 94 25 34 	call	0x684a	; 0x684a <memcpy>
    54f8:	10 92 e9 00 	sts	0x00E9, r1
    54fc:	80 91 e8 00 	lds	r24, 0x00E8
    5500:	87 7f       	andi	r24, 0xF7	; 247
    5502:	80 93 e8 00 	sts	0x00E8, r24
    5506:	8b 81       	ldd	r24, Y+3	; 0x03
    5508:	81 11       	cpse	r24, r1
    550a:	80 93 f1 00 	sts	0x00F1, r24
    550e:	69 81       	ldd	r22, Y+1	; 0x01
    5510:	7a 81       	ldd	r23, Y+2	; 0x02
    5512:	c5 01       	movw	r24, r10
    5514:	2a d4       	rcall	.+2132   	; 0x5d6a <Endpoint_Write_Control_Stream_LE>
    5516:	80 91 e8 00 	lds	r24, 0x00E8
    551a:	8b 77       	andi	r24, 0x7B	; 123
    551c:	80 93 e8 00 	sts	0x00E8, r24
    5520:	0f b6       	in	r0, 0x3f	; 63
    5522:	f8 94       	cli
    5524:	9e be       	out	0x3e, r9	; 62
    5526:	0f be       	out	0x3f, r0	; 63
    5528:	8d be       	out	0x3d, r8	; 61
    552a:	96 c0       	rjmp	.+300    	; 0x5658 <HID_Device_ProcessControlRequest+0x246>
    552c:	80 91 7e 0a 	lds	r24, 0x0A7E
    5530:	81 32       	cpi	r24, 0x21	; 33
    5532:	09 f0       	breq	.+2      	; 0x5536 <HID_Device_ProcessControlRequest+0x124>
    5534:	91 c0       	rjmp	.+290    	; 0x5658 <HID_Device_ProcessControlRequest+0x246>
    5536:	ad b6       	in	r10, 0x3d	; 61
    5538:	be b6       	in	r11, 0x3e	; 62
    553a:	00 91 84 0a 	lds	r16, 0x0A84
    553e:	10 91 85 0a 	lds	r17, 0x0A85
    5542:	70 90 80 0a 	lds	r7, 0x0A80
    5546:	60 90 81 0a 	lds	r6, 0x0A81
    554a:	8d b7       	in	r24, 0x3d	; 61
    554c:	9e b7       	in	r25, 0x3e	; 62
    554e:	80 1b       	sub	r24, r16
    5550:	91 0b       	sbc	r25, r17
    5552:	0f b6       	in	r0, 0x3f	; 63
    5554:	f8 94       	cli
    5556:	9e bf       	out	0x3e, r25	; 62
    5558:	0f be       	out	0x3f, r0	; 63
    555a:	8d bf       	out	0x3d, r24	; 61
    555c:	ed b7       	in	r30, 0x3d	; 61
    555e:	fe b7       	in	r31, 0x3e	; 62
    5560:	31 96       	adiw	r30, 0x01	; 1
    5562:	4f 01       	movw	r8, r30
    5564:	80 91 e8 00 	lds	r24, 0x00E8
    5568:	87 7f       	andi	r24, 0xF7	; 247
    556a:	80 93 e8 00 	sts	0x00E8, r24
    556e:	b8 01       	movw	r22, r16
    5570:	cf 01       	movw	r24, r30
    5572:	5e d4       	rcall	.+2236   	; 0x5e30 <Endpoint_Read_Control_Stream_LE>
    5574:	80 91 e8 00 	lds	r24, 0x00E8
    5578:	8e 77       	andi	r24, 0x7E	; 126
    557a:	80 93 e8 00 	sts	0x00E8, r24
    557e:	21 e0       	ldi	r18, 0x01	; 1
    5580:	71 10       	cpse	r7, r1
    5582:	01 c0       	rjmp	.+2      	; 0x5586 <HID_Device_ProcessControlRequest+0x174>
    5584:	20 e0       	ldi	r18, 0x00	; 0
    5586:	30 e0       	ldi	r19, 0x00	; 0
    5588:	02 1b       	sub	r16, r18
    558a:	13 0b       	sbc	r17, r19
    558c:	28 0d       	add	r18, r8
    558e:	39 1d       	adc	r19, r9
    5590:	4f ef       	ldi	r20, 0xFF	; 255
    5592:	46 0d       	add	r20, r6
    5594:	67 2d       	mov	r22, r7
    5596:	c7 01       	movw	r24, r14
    5598:	4e d9       	rcall	.-3428   	; 0x4836 <CALLBACK_HID_Device_ProcessHIDReport>
    559a:	0f b6       	in	r0, 0x3f	; 63
    559c:	f8 94       	cli
    559e:	be be       	out	0x3e, r11	; 62
    55a0:	0f be       	out	0x3f, r0	; 63
    55a2:	ad be       	out	0x3d, r10	; 61
    55a4:	59 c0       	rjmp	.+178    	; 0x5658 <HID_Device_ProcessControlRequest+0x246>
    55a6:	80 91 7e 0a 	lds	r24, 0x0A7E
    55aa:	81 3a       	cpi	r24, 0xA1	; 161
    55ac:	09 f0       	breq	.+2      	; 0x55b0 <HID_Device_ProcessControlRequest+0x19e>
    55ae:	54 c0       	rjmp	.+168    	; 0x5658 <HID_Device_ProcessControlRequest+0x246>
    55b0:	80 91 e8 00 	lds	r24, 0x00E8
    55b4:	87 7f       	andi	r24, 0xF7	; 247
    55b6:	80 93 e8 00 	sts	0x00E8, r24
    55ba:	80 91 e8 00 	lds	r24, 0x00E8
    55be:	80 ff       	sbrs	r24, 0
    55c0:	fc cf       	rjmp	.-8      	; 0x55ba <HID_Device_ProcessControlRequest+0x1a8>
    55c2:	f7 01       	movw	r30, r14
    55c4:	81 85       	ldd	r24, Z+9	; 0x09
    55c6:	40 c0       	rjmp	.+128    	; 0x5648 <HID_Device_ProcessControlRequest+0x236>
    55c8:	80 91 7e 0a 	lds	r24, 0x0A7E
    55cc:	81 32       	cpi	r24, 0x21	; 33
    55ce:	09 f0       	breq	.+2      	; 0x55d2 <HID_Device_ProcessControlRequest+0x1c0>
    55d0:	43 c0       	rjmp	.+134    	; 0x5658 <HID_Device_ProcessControlRequest+0x246>
    55d2:	80 91 e8 00 	lds	r24, 0x00E8
    55d6:	87 7f       	andi	r24, 0xF7	; 247
    55d8:	80 93 e8 00 	sts	0x00E8, r24
    55dc:	47 d5       	rcall	.+2702   	; 0x606c <Endpoint_ClearStatusStage>
    55de:	90 91 80 0a 	lds	r25, 0x0A80
    55e2:	81 e0       	ldi	r24, 0x01	; 1
    55e4:	91 11       	cpse	r25, r1
    55e6:	01 c0       	rjmp	.+2      	; 0x55ea <HID_Device_ProcessControlRequest+0x1d8>
    55e8:	80 e0       	ldi	r24, 0x00	; 0
    55ea:	f7 01       	movw	r30, r14
    55ec:	81 87       	std	Z+9, r24	; 0x09
    55ee:	34 c0       	rjmp	.+104    	; 0x5658 <HID_Device_ProcessControlRequest+0x246>
    55f0:	80 91 7e 0a 	lds	r24, 0x0A7E
    55f4:	81 32       	cpi	r24, 0x21	; 33
    55f6:	81 f5       	brne	.+96     	; 0x5658 <HID_Device_ProcessControlRequest+0x246>
    55f8:	80 91 e8 00 	lds	r24, 0x00E8
    55fc:	87 7f       	andi	r24, 0xF7	; 247
    55fe:	80 93 e8 00 	sts	0x00E8, r24
    5602:	34 d5       	rcall	.+2664   	; 0x606c <Endpoint_ClearStatusStage>
    5604:	80 91 80 0a 	lds	r24, 0x0A80
    5608:	90 91 81 0a 	lds	r25, 0x0A81
    560c:	88 27       	eor	r24, r24
    560e:	36 e0       	ldi	r19, 0x06	; 6
    5610:	96 95       	lsr	r25
    5612:	87 95       	ror	r24
    5614:	3a 95       	dec	r19
    5616:	e1 f7       	brne	.-8      	; 0x5610 <HID_Device_ProcessControlRequest+0x1fe>
    5618:	f7 01       	movw	r30, r14
    561a:	95 87       	std	Z+13, r25	; 0x0d
    561c:	84 87       	std	Z+12, r24	; 0x0c
    561e:	1c c0       	rjmp	.+56     	; 0x5658 <HID_Device_ProcessControlRequest+0x246>
    5620:	80 91 7e 0a 	lds	r24, 0x0A7E
    5624:	81 3a       	cpi	r24, 0xA1	; 161
    5626:	c1 f4       	brne	.+48     	; 0x5658 <HID_Device_ProcessControlRequest+0x246>
    5628:	80 91 e8 00 	lds	r24, 0x00E8
    562c:	87 7f       	andi	r24, 0xF7	; 247
    562e:	80 93 e8 00 	sts	0x00E8, r24
    5632:	80 91 e8 00 	lds	r24, 0x00E8
    5636:	80 ff       	sbrs	r24, 0
    5638:	fc cf       	rjmp	.-8      	; 0x5632 <HID_Device_ProcessControlRequest+0x220>
    563a:	f7 01       	movw	r30, r14
    563c:	84 85       	ldd	r24, Z+12	; 0x0c
    563e:	95 85       	ldd	r25, Z+13	; 0x0d
    5640:	96 95       	lsr	r25
    5642:	87 95       	ror	r24
    5644:	96 95       	lsr	r25
    5646:	87 95       	ror	r24
    5648:	80 93 f1 00 	sts	0x00F1, r24
    564c:	80 91 e8 00 	lds	r24, 0x00E8
    5650:	8e 77       	andi	r24, 0x7E	; 126
    5652:	80 93 e8 00 	sts	0x00E8, r24
    5656:	0a d5       	rcall	.+2580   	; 0x606c <Endpoint_ClearStatusStage>
    5658:	0f b6       	in	r0, 0x3f	; 63
    565a:	f8 94       	cli
    565c:	de be       	out	0x3e, r13	; 62
    565e:	0f be       	out	0x3f, r0	; 63
    5660:	cd be       	out	0x3d, r12	; 61
    5662:	0f 90       	pop	r0
    5664:	0f 90       	pop	r0
    5666:	0f 90       	pop	r0
    5668:	df 91       	pop	r29
    566a:	cf 91       	pop	r28
    566c:	1f 91       	pop	r17
    566e:	0f 91       	pop	r16
    5670:	ff 90       	pop	r15
    5672:	ef 90       	pop	r14
    5674:	df 90       	pop	r13
    5676:	cf 90       	pop	r12
    5678:	bf 90       	pop	r11
    567a:	af 90       	pop	r10
    567c:	9f 90       	pop	r9
    567e:	8f 90       	pop	r8
    5680:	7f 90       	pop	r7
    5682:	6f 90       	pop	r6
    5684:	08 95       	ret

00005686 <HID_Device_ConfigureEndpoints>:
    5686:	fc 01       	movw	r30, r24
    5688:	39 96       	adiw	r30, 0x09	; 9
    568a:	27 e0       	ldi	r18, 0x07	; 7
    568c:	df 01       	movw	r26, r30
    568e:	1d 92       	st	X+, r1
    5690:	2a 95       	dec	r18
    5692:	e9 f7       	brne	.-6      	; 0x568e <HID_Device_ConfigureEndpoints+0x8>
    5694:	21 e0       	ldi	r18, 0x01	; 1
    5696:	fc 01       	movw	r30, r24
    5698:	21 87       	std	Z+9, r18	; 0x09
    569a:	24 ef       	ldi	r18, 0xF4	; 244
    569c:	31 e0       	ldi	r19, 0x01	; 1
    569e:	35 87       	std	Z+13, r19	; 0x0d
    56a0:	24 87       	std	Z+12, r18	; 0x0c
    56a2:	23 e0       	ldi	r18, 0x03	; 3
    56a4:	24 83       	std	Z+4, r18	; 0x04
    56a6:	61 e0       	ldi	r22, 0x01	; 1
    56a8:	01 96       	adiw	r24, 0x01	; 1
    56aa:	98 c4       	rjmp	.+2352   	; 0x5fdc <Endpoint_ConfigureEndpointTable>

000056ac <HID_Device_USBTask>:
    56ac:	4f 92       	push	r4
    56ae:	5f 92       	push	r5
    56b0:	6f 92       	push	r6
    56b2:	7f 92       	push	r7
    56b4:	8f 92       	push	r8
    56b6:	9f 92       	push	r9
    56b8:	af 92       	push	r10
    56ba:	bf 92       	push	r11
    56bc:	cf 92       	push	r12
    56be:	df 92       	push	r13
    56c0:	ef 92       	push	r14
    56c2:	ff 92       	push	r15
    56c4:	0f 93       	push	r16
    56c6:	1f 93       	push	r17
    56c8:	cf 93       	push	r28
    56ca:	df 93       	push	r29
    56cc:	00 d0       	rcall	.+0      	; 0x56ce <HID_Device_USBTask+0x22>
    56ce:	1f 92       	push	r1
    56d0:	cd b7       	in	r28, 0x3d	; 61
    56d2:	de b7       	in	r29, 0x3e	; 62
    56d4:	7c 01       	movw	r14, r24
    56d6:	ad b6       	in	r10, 0x3d	; 61
    56d8:	be b6       	in	r11, 0x3e	; 62
    56da:	80 91 7d 0a 	lds	r24, 0x0A7D
    56de:	84 30       	cpi	r24, 0x04	; 4
    56e0:	09 f0       	breq	.+2      	; 0x56e4 <HID_Device_USBTask+0x38>
    56e2:	90 c0       	rjmp	.+288    	; 0x5804 <HID_Device_USBTask+0x158>
    56e4:	80 91 e4 00 	lds	r24, 0x00E4
    56e8:	90 91 e5 00 	lds	r25, 0x00E5
    56ec:	f7 01       	movw	r30, r14
    56ee:	22 85       	ldd	r18, Z+10	; 0x0a
    56f0:	33 85       	ldd	r19, Z+11	; 0x0b
    56f2:	28 17       	cp	r18, r24
    56f4:	39 07       	cpc	r19, r25
    56f6:	09 f4       	brne	.+2      	; 0x56fa <HID_Device_USBTask+0x4e>
    56f8:	85 c0       	rjmp	.+266    	; 0x5804 <HID_Device_USBTask+0x158>
    56fa:	81 81       	ldd	r24, Z+1	; 0x01
    56fc:	8f 70       	andi	r24, 0x0F	; 15
    56fe:	80 93 e9 00 	sts	0x00E9, r24
    5702:	80 91 e8 00 	lds	r24, 0x00E8
    5706:	85 ff       	sbrs	r24, 5
    5708:	7d c0       	rjmp	.+250    	; 0x5804 <HID_Device_USBTask+0x158>
    570a:	8d b6       	in	r8, 0x3d	; 61
    570c:	9e b6       	in	r9, 0x3e	; 62
    570e:	40 85       	ldd	r20, Z+8	; 0x08
    5710:	50 e0       	ldi	r21, 0x00	; 0
    5712:	8d b7       	in	r24, 0x3d	; 61
    5714:	9e b7       	in	r25, 0x3e	; 62
    5716:	84 1b       	sub	r24, r20
    5718:	95 0b       	sbc	r25, r21
    571a:	0f b6       	in	r0, 0x3f	; 63
    571c:	f8 94       	cli
    571e:	9e bf       	out	0x3e, r25	; 62
    5720:	0f be       	out	0x3f, r0	; 63
    5722:	8d bf       	out	0x3d, r24	; 61
    5724:	ed b7       	in	r30, 0x3d	; 61
    5726:	fe b7       	in	r31, 0x3e	; 62
    5728:	31 96       	adiw	r30, 0x01	; 1
    572a:	6f 01       	movw	r12, r30
    572c:	1b 82       	std	Y+3, r1	; 0x03
    572e:	1a 82       	std	Y+2, r1	; 0x02
    5730:	19 82       	std	Y+1, r1	; 0x01
    5732:	60 e0       	ldi	r22, 0x00	; 0
    5734:	70 e0       	ldi	r23, 0x00	; 0
    5736:	cf 01       	movw	r24, r30
    5738:	0e 94 2e 34 	call	0x685c	; 0x685c <memset>
    573c:	8e 01       	movw	r16, r28
    573e:	0f 5f       	subi	r16, 0xFF	; 255
    5740:	1f 4f       	sbci	r17, 0xFF	; 255
    5742:	96 01       	movw	r18, r12
    5744:	40 e0       	ldi	r20, 0x00	; 0
    5746:	be 01       	movw	r22, r28
    5748:	6d 5f       	subi	r22, 0xFD	; 253
    574a:	7f 4f       	sbci	r23, 0xFF	; 255
    574c:	c7 01       	movw	r24, r14
    574e:	52 d8       	rcall	.-3932   	; 0x47f4 <CALLBACK_HID_Device_CreateHIDReport>
    5750:	48 2e       	mov	r4, r24
    5752:	f7 01       	movw	r30, r14
    5754:	84 85       	ldd	r24, Z+12	; 0x0c
    5756:	95 85       	ldd	r25, Z+13	; 0x0d
    5758:	89 2b       	or	r24, r25
    575a:	51 f0       	breq	.+20     	; 0x5770 <HID_Device_USBTask+0xc4>
    575c:	91 e0       	ldi	r25, 0x01	; 1
    575e:	80 e0       	ldi	r24, 0x00	; 0
    5760:	26 85       	ldd	r18, Z+14	; 0x0e
    5762:	37 85       	ldd	r19, Z+15	; 0x0f
    5764:	23 2b       	or	r18, r19
    5766:	09 f0       	breq	.+2      	; 0x576a <HID_Device_USBTask+0xbe>
    5768:	90 e0       	ldi	r25, 0x00	; 0
    576a:	09 2f       	mov	r16, r25
    576c:	18 2f       	mov	r17, r24
    576e:	02 c0       	rjmp	.+4      	; 0x5774 <HID_Device_USBTask+0xc8>
    5770:	00 e0       	ldi	r16, 0x00	; 0
    5772:	10 e0       	ldi	r17, 0x00	; 0
    5774:	f7 01       	movw	r30, r14
    5776:	66 80       	ldd	r6, Z+6	; 0x06
    5778:	77 80       	ldd	r7, Z+7	; 0x07
    577a:	61 14       	cp	r6, r1
    577c:	71 04       	cpc	r7, r1
    577e:	99 f0       	breq	.+38     	; 0x57a6 <HID_Device_USBTask+0xfa>
    5780:	49 81       	ldd	r20, Y+1	; 0x01
    5782:	5a 81       	ldd	r21, Y+2	; 0x02
    5784:	b3 01       	movw	r22, r6
    5786:	c6 01       	movw	r24, r12
    5788:	0e 94 18 34 	call	0x6830	; 0x6830 <memcmp>
    578c:	55 24       	eor	r5, r5
    578e:	53 94       	inc	r5
    5790:	89 2b       	or	r24, r25
    5792:	09 f4       	brne	.+2      	; 0x5796 <HID_Device_USBTask+0xea>
    5794:	51 2c       	mov	r5, r1
    5796:	f7 01       	movw	r30, r14
    5798:	40 85       	ldd	r20, Z+8	; 0x08
    579a:	50 e0       	ldi	r21, 0x00	; 0
    579c:	b6 01       	movw	r22, r12
    579e:	c3 01       	movw	r24, r6
    57a0:	0e 94 25 34 	call	0x684a	; 0x684a <memcpy>
    57a4:	01 c0       	rjmp	.+2      	; 0x57a8 <HID_Device_USBTask+0xfc>
    57a6:	51 2c       	mov	r5, r1
    57a8:	89 81       	ldd	r24, Y+1	; 0x01
    57aa:	9a 81       	ldd	r25, Y+2	; 0x02
    57ac:	89 2b       	or	r24, r25
    57ae:	f1 f0       	breq	.+60     	; 0x57ec <HID_Device_USBTask+0x140>
    57b0:	41 10       	cpse	r4, r1
    57b2:	04 c0       	rjmp	.+8      	; 0x57bc <HID_Device_USBTask+0x110>
    57b4:	51 10       	cpse	r5, r1
    57b6:	02 c0       	rjmp	.+4      	; 0x57bc <HID_Device_USBTask+0x110>
    57b8:	01 2b       	or	r16, r17
    57ba:	c1 f0       	breq	.+48     	; 0x57ec <HID_Device_USBTask+0x140>
    57bc:	f7 01       	movw	r30, r14
    57be:	84 85       	ldd	r24, Z+12	; 0x0c
    57c0:	95 85       	ldd	r25, Z+13	; 0x0d
    57c2:	97 87       	std	Z+15, r25	; 0x0f
    57c4:	86 87       	std	Z+14, r24	; 0x0e
    57c6:	81 81       	ldd	r24, Z+1	; 0x01
    57c8:	8f 70       	andi	r24, 0x0F	; 15
    57ca:	80 93 e9 00 	sts	0x00E9, r24
    57ce:	8b 81       	ldd	r24, Y+3	; 0x03
    57d0:	81 11       	cpse	r24, r1
    57d2:	80 93 f1 00 	sts	0x00F1, r24
    57d6:	69 81       	ldd	r22, Y+1	; 0x01
    57d8:	7a 81       	ldd	r23, Y+2	; 0x02
    57da:	40 e0       	ldi	r20, 0x00	; 0
    57dc:	50 e0       	ldi	r21, 0x00	; 0
    57de:	c6 01       	movw	r24, r12
    57e0:	e0 d1       	rcall	.+960    	; 0x5ba2 <Endpoint_Write_Stream_LE>
    57e2:	80 91 e8 00 	lds	r24, 0x00E8
    57e6:	8e 77       	andi	r24, 0x7E	; 126
    57e8:	80 93 e8 00 	sts	0x00E8, r24
    57ec:	80 91 e4 00 	lds	r24, 0x00E4
    57f0:	90 91 e5 00 	lds	r25, 0x00E5
    57f4:	f7 01       	movw	r30, r14
    57f6:	93 87       	std	Z+11, r25	; 0x0b
    57f8:	82 87       	std	Z+10, r24	; 0x0a
    57fa:	0f b6       	in	r0, 0x3f	; 63
    57fc:	f8 94       	cli
    57fe:	9e be       	out	0x3e, r9	; 62
    5800:	0f be       	out	0x3f, r0	; 63
    5802:	8d be       	out	0x3d, r8	; 61
    5804:	0f b6       	in	r0, 0x3f	; 63
    5806:	f8 94       	cli
    5808:	be be       	out	0x3e, r11	; 62
    580a:	0f be       	out	0x3f, r0	; 63
    580c:	ad be       	out	0x3d, r10	; 61
    580e:	0f 90       	pop	r0
    5810:	0f 90       	pop	r0
    5812:	0f 90       	pop	r0
    5814:	df 91       	pop	r29
    5816:	cf 91       	pop	r28
    5818:	1f 91       	pop	r17
    581a:	0f 91       	pop	r16
    581c:	ff 90       	pop	r15
    581e:	ef 90       	pop	r14
    5820:	df 90       	pop	r13
    5822:	cf 90       	pop	r12
    5824:	bf 90       	pop	r11
    5826:	af 90       	pop	r10
    5828:	9f 90       	pop	r9
    582a:	8f 90       	pop	r8
    582c:	7f 90       	pop	r7
    582e:	6f 90       	pop	r6
    5830:	5f 90       	pop	r5
    5832:	4f 90       	pop	r4
    5834:	08 95       	ret

00005836 <MS_Device_ProcessControlRequest>:
    5836:	cf 93       	push	r28
    5838:	df 93       	push	r29
    583a:	20 91 e8 00 	lds	r18, 0x00E8
    583e:	23 ff       	sbrs	r18, 3
    5840:	38 c0       	rjmp	.+112    	; 0x58b2 <MS_Device_ProcessControlRequest+0x7c>
    5842:	fc 01       	movw	r30, r24
    5844:	20 81       	ld	r18, Z
    5846:	30 e0       	ldi	r19, 0x00	; 0
    5848:	40 91 82 0a 	lds	r20, 0x0A82
    584c:	50 91 83 0a 	lds	r21, 0x0A83
    5850:	42 17       	cp	r20, r18
    5852:	53 07       	cpc	r21, r19
    5854:	71 f5       	brne	.+92     	; 0x58b2 <MS_Device_ProcessControlRequest+0x7c>
    5856:	20 91 7f 0a 	lds	r18, 0x0A7F
    585a:	2e 3f       	cpi	r18, 0xFE	; 254
    585c:	81 f0       	breq	.+32     	; 0x587e <MS_Device_ProcessControlRequest+0x48>
    585e:	2f 3f       	cpi	r18, 0xFF	; 255
    5860:	41 f5       	brne	.+80     	; 0x58b2 <MS_Device_ProcessControlRequest+0x7c>
    5862:	20 91 7e 0a 	lds	r18, 0x0A7E
    5866:	21 32       	cpi	r18, 0x21	; 33
    5868:	21 f5       	brne	.+72     	; 0x58b2 <MS_Device_ProcessControlRequest+0x7c>
    586a:	ec 01       	movw	r28, r24
    586c:	80 91 e8 00 	lds	r24, 0x00E8
    5870:	87 7f       	andi	r24, 0xF7	; 247
    5872:	80 93 e8 00 	sts	0x00E8, r24
    5876:	fa d3       	rcall	.+2036   	; 0x606c <Endpoint_ClearStatusStage>
    5878:	81 e0       	ldi	r24, 0x01	; 1
    587a:	88 af       	std	Y+56, r24	; 0x38
    587c:	1a c0       	rjmp	.+52     	; 0x58b2 <MS_Device_ProcessControlRequest+0x7c>
    587e:	20 91 7e 0a 	lds	r18, 0x0A7E
    5882:	21 3a       	cpi	r18, 0xA1	; 161
    5884:	b1 f4       	brne	.+44     	; 0x58b2 <MS_Device_ProcessControlRequest+0x7c>
    5886:	20 91 e8 00 	lds	r18, 0x00E8
    588a:	27 7f       	andi	r18, 0xF7	; 247
    588c:	20 93 e8 00 	sts	0x00E8, r18
    5890:	20 91 e8 00 	lds	r18, 0x00E8
    5894:	20 ff       	sbrs	r18, 0
    5896:	fc cf       	rjmp	.-8      	; 0x5890 <MS_Device_ProcessControlRequest+0x5a>
    5898:	fc 01       	movw	r30, r24
    589a:	83 85       	ldd	r24, Z+11	; 0x0b
    589c:	81 50       	subi	r24, 0x01	; 1
    589e:	80 93 f1 00 	sts	0x00F1, r24
    58a2:	80 91 e8 00 	lds	r24, 0x00E8
    58a6:	8e 77       	andi	r24, 0x7E	; 126
    58a8:	80 93 e8 00 	sts	0x00E8, r24
    58ac:	df 91       	pop	r29
    58ae:	cf 91       	pop	r28
    58b0:	dd c3       	rjmp	.+1978   	; 0x606c <Endpoint_ClearStatusStage>
    58b2:	df 91       	pop	r29
    58b4:	cf 91       	pop	r28
    58b6:	08 95       	ret

000058b8 <MS_Device_ConfigureEndpoints>:
    58b8:	cf 93       	push	r28
    58ba:	df 93       	push	r29
    58bc:	ec 01       	movw	r28, r24
    58be:	fc 01       	movw	r30, r24
    58c0:	3c 96       	adiw	r30, 0x0c	; 12
    58c2:	8d e2       	ldi	r24, 0x2D	; 45
    58c4:	df 01       	movw	r26, r30
    58c6:	1d 92       	st	X+, r1
    58c8:	8a 95       	dec	r24
    58ca:	e9 f7       	brne	.-6      	; 0x58c6 <MS_Device_ConfigureEndpoints+0xe>
    58cc:	82 e0       	ldi	r24, 0x02	; 2
    58ce:	8c 83       	std	Y+4, r24	; 0x04
    58d0:	89 87       	std	Y+9, r24	; 0x09
    58d2:	61 e0       	ldi	r22, 0x01	; 1
    58d4:	ce 01       	movw	r24, r28
    58d6:	01 96       	adiw	r24, 0x01	; 1
    58d8:	81 d3       	rcall	.+1794   	; 0x5fdc <Endpoint_ConfigureEndpointTable>
    58da:	88 23       	and	r24, r24
    58dc:	31 f0       	breq	.+12     	; 0x58ea <MS_Device_ConfigureEndpoints+0x32>
    58de:	61 e0       	ldi	r22, 0x01	; 1
    58e0:	ce 01       	movw	r24, r28
    58e2:	06 96       	adiw	r24, 0x06	; 6
    58e4:	df 91       	pop	r29
    58e6:	cf 91       	pop	r28
    58e8:	79 c3       	rjmp	.+1778   	; 0x5fdc <Endpoint_ConfigureEndpointTable>
    58ea:	80 e0       	ldi	r24, 0x00	; 0
    58ec:	df 91       	pop	r29
    58ee:	cf 91       	pop	r28
    58f0:	08 95       	ret

000058f2 <MS_Device_USBTask>:
    58f2:	ef 92       	push	r14
    58f4:	ff 92       	push	r15
    58f6:	0f 93       	push	r16
    58f8:	1f 93       	push	r17
    58fa:	cf 93       	push	r28
    58fc:	df 93       	push	r29
    58fe:	00 d0       	rcall	.+0      	; 0x5900 <MS_Device_USBTask+0xe>
    5900:	cd b7       	in	r28, 0x3d	; 61
    5902:	de b7       	in	r29, 0x3e	; 62
    5904:	20 91 7d 0a 	lds	r18, 0x0A7D
    5908:	24 30       	cpi	r18, 0x04	; 4
    590a:	09 f0       	breq	.+2      	; 0x590e <MS_Device_USBTask+0x1c>
    590c:	03 c1       	rjmp	.+518    	; 0x5b14 <MS_Device_USBTask+0x222>
    590e:	8c 01       	movw	r16, r24
    5910:	fc 01       	movw	r30, r24
    5912:	86 81       	ldd	r24, Z+6	; 0x06
    5914:	8f 70       	andi	r24, 0x0F	; 15
    5916:	80 93 e9 00 	sts	0x00E9, r24
    591a:	80 91 e8 00 	lds	r24, 0x00E8
    591e:	82 ff       	sbrs	r24, 2
    5920:	c0 c0       	rjmp	.+384    	; 0x5aa2 <MS_Device_USBTask+0x1b0>
    5922:	86 81       	ldd	r24, Z+6	; 0x06
    5924:	8f 70       	andi	r24, 0x0F	; 15
    5926:	80 93 e9 00 	sts	0x00E9, r24
    592a:	1a 82       	std	Y+2, r1	; 0x02
    592c:	19 82       	std	Y+1, r1	; 0x01
    592e:	78 01       	movw	r14, r16
    5930:	fc e0       	ldi	r31, 0x0C	; 12
    5932:	ef 0e       	add	r14, r31
    5934:	f1 1c       	adc	r15, r1
    5936:	ae 01       	movw	r20, r28
    5938:	4f 5f       	subi	r20, 0xFF	; 255
    593a:	5f 4f       	sbci	r21, 0xFF	; 255
    593c:	6f e0       	ldi	r22, 0x0F	; 15
    593e:	70 e0       	ldi	r23, 0x00	; 0
    5940:	c7 01       	movw	r24, r14
    5942:	c9 d1       	rcall	.+914    	; 0x5cd6 <Endpoint_Read_Stream_LE>
    5944:	f8 01       	movw	r30, r16
    5946:	85 30       	cpi	r24, 0x05	; 5
    5948:	21 f4       	brne	.+8      	; 0x5952 <MS_Device_USBTask+0x60>
    594a:	80 ad       	ldd	r24, Z+56	; 0x38
    594c:	88 23       	and	r24, r24
    594e:	99 f3       	breq	.-26     	; 0x5936 <MS_Device_USBTask+0x44>
    5950:	a8 c0       	rjmp	.+336    	; 0x5aa2 <MS_Device_USBTask+0x1b0>
    5952:	84 85       	ldd	r24, Z+12	; 0x0c
    5954:	95 85       	ldd	r25, Z+13	; 0x0d
    5956:	a6 85       	ldd	r26, Z+14	; 0x0e
    5958:	b7 85       	ldd	r27, Z+15	; 0x0f
    595a:	85 35       	cpi	r24, 0x55	; 85
    595c:	93 45       	sbci	r25, 0x53	; 83
    595e:	a2 44       	sbci	r26, 0x42	; 66
    5960:	b3 44       	sbci	r27, 0x43	; 67
    5962:	61 f4       	brne	.+24     	; 0x597c <MS_Device_USBTask+0x8a>
    5964:	f8 01       	movw	r30, r16
    5966:	91 8d       	ldd	r25, Z+25	; 0x19
    5968:	83 85       	ldd	r24, Z+11	; 0x0b
    596a:	98 17       	cp	r25, r24
    596c:	38 f4       	brcc	.+14     	; 0x597c <MS_Device_USBTask+0x8a>
    596e:	80 8d       	ldd	r24, Z+24	; 0x18
    5970:	8f 71       	andi	r24, 0x1F	; 31
    5972:	21 f4       	brne	.+8      	; 0x597c <MS_Device_USBTask+0x8a>
    5974:	82 8d       	ldd	r24, Z+26	; 0x1a
    5976:	81 50       	subi	r24, 0x01	; 1
    5978:	80 31       	cpi	r24, 0x10	; 16
    597a:	80 f0       	brcs	.+32     	; 0x599c <MS_Device_USBTask+0xaa>
    597c:	80 91 eb 00 	lds	r24, 0x00EB
    5980:	80 62       	ori	r24, 0x20	; 32
    5982:	80 93 eb 00 	sts	0x00EB, r24
    5986:	f8 01       	movw	r30, r16
    5988:	81 81       	ldd	r24, Z+1	; 0x01
    598a:	8f 70       	andi	r24, 0x0F	; 15
    598c:	80 93 e9 00 	sts	0x00E9, r24
    5990:	80 91 eb 00 	lds	r24, 0x00EB
    5994:	80 62       	ori	r24, 0x20	; 32
    5996:	80 93 eb 00 	sts	0x00EB, r24
    599a:	83 c0       	rjmp	.+262    	; 0x5aa2 <MS_Device_USBTask+0x1b0>
    599c:	1a 82       	std	Y+2, r1	; 0x02
    599e:	19 82       	std	Y+1, r1	; 0x01
    59a0:	78 01       	movw	r14, r16
    59a2:	fb e1       	ldi	r31, 0x1B	; 27
    59a4:	ef 0e       	add	r14, r31
    59a6:	f1 1c       	adc	r15, r1
    59a8:	f8 01       	movw	r30, r16
    59aa:	62 8d       	ldd	r22, Z+26	; 0x1a
    59ac:	70 e0       	ldi	r23, 0x00	; 0
    59ae:	ae 01       	movw	r20, r28
    59b0:	4f 5f       	subi	r20, 0xFF	; 255
    59b2:	5f 4f       	sbci	r21, 0xFF	; 255
    59b4:	c7 01       	movw	r24, r14
    59b6:	8f d1       	rcall	.+798    	; 0x5cd6 <Endpoint_Read_Stream_LE>
    59b8:	85 30       	cpi	r24, 0x05	; 5
    59ba:	29 f4       	brne	.+10     	; 0x59c6 <MS_Device_USBTask+0xd4>
    59bc:	f8 01       	movw	r30, r16
    59be:	80 ad       	ldd	r24, Z+56	; 0x38
    59c0:	88 23       	and	r24, r24
    59c2:	91 f3       	breq	.-28     	; 0x59a8 <MS_Device_USBTask+0xb6>
    59c4:	6e c0       	rjmp	.+220    	; 0x5aa2 <MS_Device_USBTask+0x1b0>
    59c6:	80 91 e8 00 	lds	r24, 0x00E8
    59ca:	8b 77       	andi	r24, 0x7B	; 123
    59cc:	80 93 e8 00 	sts	0x00E8, r24
    59d0:	f8 01       	movw	r30, r16
    59d2:	80 8d       	ldd	r24, Z+24	; 0x18
    59d4:	87 ff       	sbrs	r24, 7
    59d6:	04 c0       	rjmp	.+8      	; 0x59e0 <MS_Device_USBTask+0xee>
    59d8:	81 81       	ldd	r24, Z+1	; 0x01
    59da:	8f 70       	andi	r24, 0x0F	; 15
    59dc:	80 93 e9 00 	sts	0x00E9, r24
    59e0:	c8 01       	movw	r24, r16
    59e2:	0e 94 f9 23 	call	0x47f2	; 0x47f2 <CALLBACK_MS_Device_SCSICommandReceived>
    59e6:	91 e0       	ldi	r25, 0x01	; 1
    59e8:	98 27       	eor	r25, r24
    59ea:	f8 01       	movw	r30, r16
    59ec:	97 ab       	std	Z+55, r25	; 0x37
    59ee:	45 e5       	ldi	r20, 0x55	; 85
    59f0:	53 e5       	ldi	r21, 0x53	; 83
    59f2:	62 e4       	ldi	r22, 0x42	; 66
    59f4:	73 e5       	ldi	r23, 0x53	; 83
    59f6:	43 a7       	std	Z+43, r20	; 0x2b
    59f8:	54 a7       	std	Z+44, r21	; 0x2c
    59fa:	65 a7       	std	Z+45, r22	; 0x2d
    59fc:	76 a7       	std	Z+46, r23	; 0x2e
    59fe:	40 89       	ldd	r20, Z+16	; 0x10
    5a00:	51 89       	ldd	r21, Z+17	; 0x11
    5a02:	62 89       	ldd	r22, Z+18	; 0x12
    5a04:	73 89       	ldd	r23, Z+19	; 0x13
    5a06:	47 a7       	std	Z+47, r20	; 0x2f
    5a08:	50 ab       	std	Z+48, r21	; 0x30
    5a0a:	61 ab       	std	Z+49, r22	; 0x31
    5a0c:	72 ab       	std	Z+50, r23	; 0x32
    5a0e:	44 89       	ldd	r20, Z+20	; 0x14
    5a10:	55 89       	ldd	r21, Z+21	; 0x15
    5a12:	66 89       	ldd	r22, Z+22	; 0x16
    5a14:	77 89       	ldd	r23, Z+23	; 0x17
    5a16:	43 ab       	std	Z+51, r20	; 0x33
    5a18:	54 ab       	std	Z+52, r21	; 0x34
    5a1a:	65 ab       	std	Z+53, r22	; 0x35
    5a1c:	76 ab       	std	Z+54, r23	; 0x36
    5a1e:	81 11       	cpse	r24, r1
    5a20:	09 c0       	rjmp	.+18     	; 0x5a34 <MS_Device_USBTask+0x142>
    5a22:	45 2b       	or	r20, r21
    5a24:	46 2b       	or	r20, r22
    5a26:	47 2b       	or	r20, r23
    5a28:	29 f0       	breq	.+10     	; 0x5a34 <MS_Device_USBTask+0x142>
    5a2a:	80 91 eb 00 	lds	r24, 0x00EB
    5a2e:	80 62       	ori	r24, 0x20	; 32
    5a30:	80 93 eb 00 	sts	0x00EB, r24
    5a34:	f8 01       	movw	r30, r16
    5a36:	86 81       	ldd	r24, Z+6	; 0x06
    5a38:	8f 70       	andi	r24, 0x0F	; 15
    5a3a:	80 93 e9 00 	sts	0x00E9, r24
    5a3e:	80 91 eb 00 	lds	r24, 0x00EB
    5a42:	85 ff       	sbrs	r24, 5
    5a44:	06 c0       	rjmp	.+12     	; 0x5a52 <MS_Device_USBTask+0x160>
    5a46:	f6 d5       	rcall	.+3052   	; 0x6634 <USB_USBTask>
    5a48:	f8 01       	movw	r30, r16
    5a4a:	80 ad       	ldd	r24, Z+56	; 0x38
    5a4c:	88 23       	and	r24, r24
    5a4e:	b9 f3       	breq	.-18     	; 0x5a3e <MS_Device_USBTask+0x14c>
    5a50:	28 c0       	rjmp	.+80     	; 0x5aa2 <MS_Device_USBTask+0x1b0>
    5a52:	f8 01       	movw	r30, r16
    5a54:	81 81       	ldd	r24, Z+1	; 0x01
    5a56:	8f 70       	andi	r24, 0x0F	; 15
    5a58:	80 93 e9 00 	sts	0x00E9, r24
    5a5c:	80 91 eb 00 	lds	r24, 0x00EB
    5a60:	85 ff       	sbrs	r24, 5
    5a62:	06 c0       	rjmp	.+12     	; 0x5a70 <MS_Device_USBTask+0x17e>
    5a64:	e7 d5       	rcall	.+3022   	; 0x6634 <USB_USBTask>
    5a66:	f8 01       	movw	r30, r16
    5a68:	80 ad       	ldd	r24, Z+56	; 0x38
    5a6a:	88 23       	and	r24, r24
    5a6c:	b9 f3       	breq	.-18     	; 0x5a5c <MS_Device_USBTask+0x16a>
    5a6e:	19 c0       	rjmp	.+50     	; 0x5aa2 <MS_Device_USBTask+0x1b0>
    5a70:	1a 82       	std	Y+2, r1	; 0x02
    5a72:	19 82       	std	Y+1, r1	; 0x01
    5a74:	78 01       	movw	r14, r16
    5a76:	fb e2       	ldi	r31, 0x2B	; 43
    5a78:	ef 0e       	add	r14, r31
    5a7a:	f1 1c       	adc	r15, r1
    5a7c:	ae 01       	movw	r20, r28
    5a7e:	4f 5f       	subi	r20, 0xFF	; 255
    5a80:	5f 4f       	sbci	r21, 0xFF	; 255
    5a82:	6d e0       	ldi	r22, 0x0D	; 13
    5a84:	70 e0       	ldi	r23, 0x00	; 0
    5a86:	c7 01       	movw	r24, r14
    5a88:	8c d0       	rcall	.+280    	; 0x5ba2 <Endpoint_Write_Stream_LE>
    5a8a:	85 30       	cpi	r24, 0x05	; 5
    5a8c:	29 f4       	brne	.+10     	; 0x5a98 <MS_Device_USBTask+0x1a6>
    5a8e:	f8 01       	movw	r30, r16
    5a90:	80 ad       	ldd	r24, Z+56	; 0x38
    5a92:	88 23       	and	r24, r24
    5a94:	99 f3       	breq	.-26     	; 0x5a7c <MS_Device_USBTask+0x18a>
    5a96:	05 c0       	rjmp	.+10     	; 0x5aa2 <MS_Device_USBTask+0x1b0>
    5a98:	80 91 e8 00 	lds	r24, 0x00E8
    5a9c:	8e 77       	andi	r24, 0x7E	; 126
    5a9e:	80 93 e8 00 	sts	0x00E8, r24
    5aa2:	f8 01       	movw	r30, r16
    5aa4:	80 ad       	ldd	r24, Z+56	; 0x38
    5aa6:	88 23       	and	r24, r24
    5aa8:	a9 f1       	breq	.+106    	; 0x5b14 <MS_Device_USBTask+0x222>
    5aaa:	26 81       	ldd	r18, Z+6	; 0x06
    5aac:	2f 70       	andi	r18, 0x0F	; 15
    5aae:	81 e0       	ldi	r24, 0x01	; 1
    5ab0:	90 e0       	ldi	r25, 0x00	; 0
    5ab2:	ac 01       	movw	r20, r24
    5ab4:	02 c0       	rjmp	.+4      	; 0x5aba <MS_Device_USBTask+0x1c8>
    5ab6:	44 0f       	add	r20, r20
    5ab8:	55 1f       	adc	r21, r21
    5aba:	2a 95       	dec	r18
    5abc:	e2 f7       	brpl	.-8      	; 0x5ab6 <MS_Device_USBTask+0x1c4>
    5abe:	40 93 ea 00 	sts	0x00EA, r20
    5ac2:	10 92 ea 00 	sts	0x00EA, r1
    5ac6:	21 81       	ldd	r18, Z+1	; 0x01
    5ac8:	2f 70       	andi	r18, 0x0F	; 15
    5aca:	01 c0       	rjmp	.+2      	; 0x5ace <MS_Device_USBTask+0x1dc>
    5acc:	88 0f       	add	r24, r24
    5ace:	2a 95       	dec	r18
    5ad0:	ea f7       	brpl	.-6      	; 0x5acc <MS_Device_USBTask+0x1da>
    5ad2:	80 93 ea 00 	sts	0x00EA, r24
    5ad6:	10 92 ea 00 	sts	0x00EA, r1
    5ada:	86 81       	ldd	r24, Z+6	; 0x06
    5adc:	8f 70       	andi	r24, 0x0F	; 15
    5ade:	80 93 e9 00 	sts	0x00E9, r24
    5ae2:	80 91 eb 00 	lds	r24, 0x00EB
    5ae6:	80 61       	ori	r24, 0x10	; 16
    5ae8:	80 93 eb 00 	sts	0x00EB, r24
    5aec:	80 91 eb 00 	lds	r24, 0x00EB
    5af0:	88 60       	ori	r24, 0x08	; 8
    5af2:	80 93 eb 00 	sts	0x00EB, r24
    5af6:	81 81       	ldd	r24, Z+1	; 0x01
    5af8:	8f 70       	andi	r24, 0x0F	; 15
    5afa:	80 93 e9 00 	sts	0x00E9, r24
    5afe:	80 91 eb 00 	lds	r24, 0x00EB
    5b02:	80 61       	ori	r24, 0x10	; 16
    5b04:	80 93 eb 00 	sts	0x00EB, r24
    5b08:	80 91 eb 00 	lds	r24, 0x00EB
    5b0c:	88 60       	ori	r24, 0x08	; 8
    5b0e:	80 93 eb 00 	sts	0x00EB, r24
    5b12:	10 ae       	std	Z+56, r1	; 0x38
    5b14:	0f 90       	pop	r0
    5b16:	0f 90       	pop	r0
    5b18:	df 91       	pop	r29
    5b1a:	cf 91       	pop	r28
    5b1c:	1f 91       	pop	r17
    5b1e:	0f 91       	pop	r16
    5b20:	ff 90       	pop	r15
    5b22:	ef 90       	pop	r14
    5b24:	08 95       	ret

00005b26 <Endpoint_Null_Stream>:
    5b26:	ef 92       	push	r14
    5b28:	ff 92       	push	r15
    5b2a:	0f 93       	push	r16
    5b2c:	1f 93       	push	r17
    5b2e:	cf 93       	push	r28
    5b30:	df 93       	push	r29
    5b32:	ec 01       	movw	r28, r24
    5b34:	7b 01       	movw	r14, r22
    5b36:	b9 d2       	rcall	.+1394   	; 0x60aa <Endpoint_WaitUntilReady>
    5b38:	81 11       	cpse	r24, r1
    5b3a:	2c c0       	rjmp	.+88     	; 0x5b94 <Endpoint_Null_Stream+0x6e>
    5b3c:	e1 14       	cp	r14, r1
    5b3e:	f1 04       	cpc	r15, r1
    5b40:	29 f0       	breq	.+10     	; 0x5b4c <Endpoint_Null_Stream+0x26>
    5b42:	f7 01       	movw	r30, r14
    5b44:	80 81       	ld	r24, Z
    5b46:	91 81       	ldd	r25, Z+1	; 0x01
    5b48:	c8 1b       	sub	r28, r24
    5b4a:	d9 0b       	sbc	r29, r25
    5b4c:	00 e0       	ldi	r16, 0x00	; 0
    5b4e:	10 e0       	ldi	r17, 0x00	; 0
    5b50:	20 97       	sbiw	r28, 0x00	; 0
    5b52:	f9 f0       	breq	.+62     	; 0x5b92 <Endpoint_Null_Stream+0x6c>
    5b54:	80 91 e8 00 	lds	r24, 0x00E8
    5b58:	85 fd       	sbrc	r24, 5
    5b5a:	15 c0       	rjmp	.+42     	; 0x5b86 <Endpoint_Null_Stream+0x60>
    5b5c:	80 91 e8 00 	lds	r24, 0x00E8
    5b60:	8e 77       	andi	r24, 0x7E	; 126
    5b62:	80 93 e8 00 	sts	0x00E8, r24
    5b66:	e1 14       	cp	r14, r1
    5b68:	f1 04       	cpc	r15, r1
    5b6a:	49 f0       	breq	.+18     	; 0x5b7e <Endpoint_Null_Stream+0x58>
    5b6c:	f7 01       	movw	r30, r14
    5b6e:	80 81       	ld	r24, Z
    5b70:	91 81       	ldd	r25, Z+1	; 0x01
    5b72:	08 0f       	add	r16, r24
    5b74:	19 1f       	adc	r17, r25
    5b76:	11 83       	std	Z+1, r17	; 0x01
    5b78:	00 83       	st	Z, r16
    5b7a:	85 e0       	ldi	r24, 0x05	; 5
    5b7c:	0b c0       	rjmp	.+22     	; 0x5b94 <Endpoint_Null_Stream+0x6e>
    5b7e:	95 d2       	rcall	.+1322   	; 0x60aa <Endpoint_WaitUntilReady>
    5b80:	88 23       	and	r24, r24
    5b82:	31 f3       	breq	.-52     	; 0x5b50 <Endpoint_Null_Stream+0x2a>
    5b84:	07 c0       	rjmp	.+14     	; 0x5b94 <Endpoint_Null_Stream+0x6e>
    5b86:	10 92 f1 00 	sts	0x00F1, r1
    5b8a:	21 97       	sbiw	r28, 0x01	; 1
    5b8c:	0f 5f       	subi	r16, 0xFF	; 255
    5b8e:	1f 4f       	sbci	r17, 0xFF	; 255
    5b90:	df cf       	rjmp	.-66     	; 0x5b50 <Endpoint_Null_Stream+0x2a>
    5b92:	80 e0       	ldi	r24, 0x00	; 0
    5b94:	df 91       	pop	r29
    5b96:	cf 91       	pop	r28
    5b98:	1f 91       	pop	r17
    5b9a:	0f 91       	pop	r16
    5b9c:	ff 90       	pop	r15
    5b9e:	ef 90       	pop	r14
    5ba0:	08 95       	ret

00005ba2 <Endpoint_Write_Stream_LE>:
    5ba2:	cf 92       	push	r12
    5ba4:	df 92       	push	r13
    5ba6:	ef 92       	push	r14
    5ba8:	ff 92       	push	r15
    5baa:	0f 93       	push	r16
    5bac:	1f 93       	push	r17
    5bae:	cf 93       	push	r28
    5bb0:	df 93       	push	r29
    5bb2:	ec 01       	movw	r28, r24
    5bb4:	8b 01       	movw	r16, r22
    5bb6:	7a 01       	movw	r14, r20
    5bb8:	78 d2       	rcall	.+1264   	; 0x60aa <Endpoint_WaitUntilReady>
    5bba:	81 11       	cpse	r24, r1
    5bbc:	33 c0       	rjmp	.+102    	; 0x5c24 <Endpoint_Write_Stream_LE+0x82>
    5bbe:	e1 14       	cp	r14, r1
    5bc0:	f1 04       	cpc	r15, r1
    5bc2:	39 f0       	breq	.+14     	; 0x5bd2 <Endpoint_Write_Stream_LE+0x30>
    5bc4:	f7 01       	movw	r30, r14
    5bc6:	80 81       	ld	r24, Z
    5bc8:	91 81       	ldd	r25, Z+1	; 0x01
    5bca:	08 1b       	sub	r16, r24
    5bcc:	19 0b       	sbc	r17, r25
    5bce:	c8 0f       	add	r28, r24
    5bd0:	d9 1f       	adc	r29, r25
    5bd2:	c1 2c       	mov	r12, r1
    5bd4:	d1 2c       	mov	r13, r1
    5bd6:	01 15       	cp	r16, r1
    5bd8:	11 05       	cpc	r17, r1
    5bda:	19 f1       	breq	.+70     	; 0x5c22 <Endpoint_Write_Stream_LE+0x80>
    5bdc:	80 91 e8 00 	lds	r24, 0x00E8
    5be0:	85 fd       	sbrc	r24, 5
    5be2:	16 c0       	rjmp	.+44     	; 0x5c10 <Endpoint_Write_Stream_LE+0x6e>
    5be4:	80 91 e8 00 	lds	r24, 0x00E8
    5be8:	8e 77       	andi	r24, 0x7E	; 126
    5bea:	80 93 e8 00 	sts	0x00E8, r24
    5bee:	22 d5       	rcall	.+2628   	; 0x6634 <USB_USBTask>
    5bf0:	e1 14       	cp	r14, r1
    5bf2:	f1 04       	cpc	r15, r1
    5bf4:	49 f0       	breq	.+18     	; 0x5c08 <Endpoint_Write_Stream_LE+0x66>
    5bf6:	f7 01       	movw	r30, r14
    5bf8:	80 81       	ld	r24, Z
    5bfa:	91 81       	ldd	r25, Z+1	; 0x01
    5bfc:	c8 0e       	add	r12, r24
    5bfe:	d9 1e       	adc	r13, r25
    5c00:	d1 82       	std	Z+1, r13	; 0x01
    5c02:	c0 82       	st	Z, r12
    5c04:	85 e0       	ldi	r24, 0x05	; 5
    5c06:	0e c0       	rjmp	.+28     	; 0x5c24 <Endpoint_Write_Stream_LE+0x82>
    5c08:	50 d2       	rcall	.+1184   	; 0x60aa <Endpoint_WaitUntilReady>
    5c0a:	88 23       	and	r24, r24
    5c0c:	21 f3       	breq	.-56     	; 0x5bd6 <Endpoint_Write_Stream_LE+0x34>
    5c0e:	0a c0       	rjmp	.+20     	; 0x5c24 <Endpoint_Write_Stream_LE+0x82>
    5c10:	89 91       	ld	r24, Y+
    5c12:	80 93 f1 00 	sts	0x00F1, r24
    5c16:	01 50       	subi	r16, 0x01	; 1
    5c18:	11 09       	sbc	r17, r1
    5c1a:	ff ef       	ldi	r31, 0xFF	; 255
    5c1c:	cf 1a       	sub	r12, r31
    5c1e:	df 0a       	sbc	r13, r31
    5c20:	da cf       	rjmp	.-76     	; 0x5bd6 <Endpoint_Write_Stream_LE+0x34>
    5c22:	80 e0       	ldi	r24, 0x00	; 0
    5c24:	df 91       	pop	r29
    5c26:	cf 91       	pop	r28
    5c28:	1f 91       	pop	r17
    5c2a:	0f 91       	pop	r16
    5c2c:	ff 90       	pop	r15
    5c2e:	ef 90       	pop	r14
    5c30:	df 90       	pop	r13
    5c32:	cf 90       	pop	r12
    5c34:	08 95       	ret

00005c36 <Endpoint_Write_Stream_BE>:
    5c36:	cf 92       	push	r12
    5c38:	df 92       	push	r13
    5c3a:	ef 92       	push	r14
    5c3c:	ff 92       	push	r15
    5c3e:	0f 93       	push	r16
    5c40:	1f 93       	push	r17
    5c42:	cf 93       	push	r28
    5c44:	df 93       	push	r29
    5c46:	ec 01       	movw	r28, r24
    5c48:	8b 01       	movw	r16, r22
    5c4a:	7a 01       	movw	r14, r20
    5c4c:	2e d2       	rcall	.+1116   	; 0x60aa <Endpoint_WaitUntilReady>
    5c4e:	81 11       	cpse	r24, r1
    5c50:	39 c0       	rjmp	.+114    	; 0x5cc4 <Endpoint_Write_Stream_BE+0x8e>
    5c52:	98 01       	movw	r18, r16
    5c54:	21 50       	subi	r18, 0x01	; 1
    5c56:	31 09       	sbc	r19, r1
    5c58:	c2 0f       	add	r28, r18
    5c5a:	d3 1f       	adc	r29, r19
    5c5c:	e1 14       	cp	r14, r1
    5c5e:	f1 04       	cpc	r15, r1
    5c60:	39 f0       	breq	.+14     	; 0x5c70 <Endpoint_Write_Stream_BE+0x3a>
    5c62:	f7 01       	movw	r30, r14
    5c64:	80 81       	ld	r24, Z
    5c66:	91 81       	ldd	r25, Z+1	; 0x01
    5c68:	08 1b       	sub	r16, r24
    5c6a:	19 0b       	sbc	r17, r25
    5c6c:	c8 1b       	sub	r28, r24
    5c6e:	d9 0b       	sbc	r29, r25
    5c70:	c1 2c       	mov	r12, r1
    5c72:	d1 2c       	mov	r13, r1
    5c74:	01 15       	cp	r16, r1
    5c76:	11 05       	cpc	r17, r1
    5c78:	21 f1       	breq	.+72     	; 0x5cc2 <Endpoint_Write_Stream_BE+0x8c>
    5c7a:	80 91 e8 00 	lds	r24, 0x00E8
    5c7e:	85 fd       	sbrc	r24, 5
    5c80:	16 c0       	rjmp	.+44     	; 0x5cae <Endpoint_Write_Stream_BE+0x78>
    5c82:	80 91 e8 00 	lds	r24, 0x00E8
    5c86:	8e 77       	andi	r24, 0x7E	; 126
    5c88:	80 93 e8 00 	sts	0x00E8, r24
    5c8c:	d3 d4       	rcall	.+2470   	; 0x6634 <USB_USBTask>
    5c8e:	e1 14       	cp	r14, r1
    5c90:	f1 04       	cpc	r15, r1
    5c92:	49 f0       	breq	.+18     	; 0x5ca6 <Endpoint_Write_Stream_BE+0x70>
    5c94:	f7 01       	movw	r30, r14
    5c96:	80 81       	ld	r24, Z
    5c98:	91 81       	ldd	r25, Z+1	; 0x01
    5c9a:	c8 0e       	add	r12, r24
    5c9c:	d9 1e       	adc	r13, r25
    5c9e:	d1 82       	std	Z+1, r13	; 0x01
    5ca0:	c0 82       	st	Z, r12
    5ca2:	85 e0       	ldi	r24, 0x05	; 5
    5ca4:	0f c0       	rjmp	.+30     	; 0x5cc4 <Endpoint_Write_Stream_BE+0x8e>
    5ca6:	01 d2       	rcall	.+1026   	; 0x60aa <Endpoint_WaitUntilReady>
    5ca8:	88 23       	and	r24, r24
    5caa:	21 f3       	breq	.-56     	; 0x5c74 <Endpoint_Write_Stream_BE+0x3e>
    5cac:	0b c0       	rjmp	.+22     	; 0x5cc4 <Endpoint_Write_Stream_BE+0x8e>
    5cae:	88 81       	ld	r24, Y
    5cb0:	80 93 f1 00 	sts	0x00F1, r24
    5cb4:	21 97       	sbiw	r28, 0x01	; 1
    5cb6:	01 50       	subi	r16, 0x01	; 1
    5cb8:	11 09       	sbc	r17, r1
    5cba:	ff ef       	ldi	r31, 0xFF	; 255
    5cbc:	cf 1a       	sub	r12, r31
    5cbe:	df 0a       	sbc	r13, r31
    5cc0:	d9 cf       	rjmp	.-78     	; 0x5c74 <Endpoint_Write_Stream_BE+0x3e>
    5cc2:	80 e0       	ldi	r24, 0x00	; 0
    5cc4:	df 91       	pop	r29
    5cc6:	cf 91       	pop	r28
    5cc8:	1f 91       	pop	r17
    5cca:	0f 91       	pop	r16
    5ccc:	ff 90       	pop	r15
    5cce:	ef 90       	pop	r14
    5cd0:	df 90       	pop	r13
    5cd2:	cf 90       	pop	r12
    5cd4:	08 95       	ret

00005cd6 <Endpoint_Read_Stream_LE>:
    5cd6:	cf 92       	push	r12
    5cd8:	df 92       	push	r13
    5cda:	ef 92       	push	r14
    5cdc:	ff 92       	push	r15
    5cde:	0f 93       	push	r16
    5ce0:	1f 93       	push	r17
    5ce2:	cf 93       	push	r28
    5ce4:	df 93       	push	r29
    5ce6:	ec 01       	movw	r28, r24
    5ce8:	8b 01       	movw	r16, r22
    5cea:	7a 01       	movw	r14, r20
    5cec:	de d1       	rcall	.+956    	; 0x60aa <Endpoint_WaitUntilReady>
    5cee:	81 11       	cpse	r24, r1
    5cf0:	33 c0       	rjmp	.+102    	; 0x5d58 <Endpoint_Read_Stream_LE+0x82>
    5cf2:	e1 14       	cp	r14, r1
    5cf4:	f1 04       	cpc	r15, r1
    5cf6:	39 f0       	breq	.+14     	; 0x5d06 <Endpoint_Read_Stream_LE+0x30>
    5cf8:	f7 01       	movw	r30, r14
    5cfa:	80 81       	ld	r24, Z
    5cfc:	91 81       	ldd	r25, Z+1	; 0x01
    5cfe:	08 1b       	sub	r16, r24
    5d00:	19 0b       	sbc	r17, r25
    5d02:	c8 0f       	add	r28, r24
    5d04:	d9 1f       	adc	r29, r25
    5d06:	c1 2c       	mov	r12, r1
    5d08:	d1 2c       	mov	r13, r1
    5d0a:	01 15       	cp	r16, r1
    5d0c:	11 05       	cpc	r17, r1
    5d0e:	19 f1       	breq	.+70     	; 0x5d56 <Endpoint_Read_Stream_LE+0x80>
    5d10:	80 91 e8 00 	lds	r24, 0x00E8
    5d14:	85 fd       	sbrc	r24, 5
    5d16:	16 c0       	rjmp	.+44     	; 0x5d44 <Endpoint_Read_Stream_LE+0x6e>
    5d18:	80 91 e8 00 	lds	r24, 0x00E8
    5d1c:	8b 77       	andi	r24, 0x7B	; 123
    5d1e:	80 93 e8 00 	sts	0x00E8, r24
    5d22:	88 d4       	rcall	.+2320   	; 0x6634 <USB_USBTask>
    5d24:	e1 14       	cp	r14, r1
    5d26:	f1 04       	cpc	r15, r1
    5d28:	49 f0       	breq	.+18     	; 0x5d3c <Endpoint_Read_Stream_LE+0x66>
    5d2a:	f7 01       	movw	r30, r14
    5d2c:	80 81       	ld	r24, Z
    5d2e:	91 81       	ldd	r25, Z+1	; 0x01
    5d30:	c8 0e       	add	r12, r24
    5d32:	d9 1e       	adc	r13, r25
    5d34:	d1 82       	std	Z+1, r13	; 0x01
    5d36:	c0 82       	st	Z, r12
    5d38:	85 e0       	ldi	r24, 0x05	; 5
    5d3a:	0e c0       	rjmp	.+28     	; 0x5d58 <Endpoint_Read_Stream_LE+0x82>
    5d3c:	b6 d1       	rcall	.+876    	; 0x60aa <Endpoint_WaitUntilReady>
    5d3e:	88 23       	and	r24, r24
    5d40:	21 f3       	breq	.-56     	; 0x5d0a <Endpoint_Read_Stream_LE+0x34>
    5d42:	0a c0       	rjmp	.+20     	; 0x5d58 <Endpoint_Read_Stream_LE+0x82>
    5d44:	80 91 f1 00 	lds	r24, 0x00F1
    5d48:	89 93       	st	Y+, r24
    5d4a:	01 50       	subi	r16, 0x01	; 1
    5d4c:	11 09       	sbc	r17, r1
    5d4e:	ff ef       	ldi	r31, 0xFF	; 255
    5d50:	cf 1a       	sub	r12, r31
    5d52:	df 0a       	sbc	r13, r31
    5d54:	da cf       	rjmp	.-76     	; 0x5d0a <Endpoint_Read_Stream_LE+0x34>
    5d56:	80 e0       	ldi	r24, 0x00	; 0
    5d58:	df 91       	pop	r29
    5d5a:	cf 91       	pop	r28
    5d5c:	1f 91       	pop	r17
    5d5e:	0f 91       	pop	r16
    5d60:	ff 90       	pop	r15
    5d62:	ef 90       	pop	r14
    5d64:	df 90       	pop	r13
    5d66:	cf 90       	pop	r12
    5d68:	08 95       	ret

00005d6a <Endpoint_Write_Control_Stream_LE>:
    5d6a:	20 91 84 0a 	lds	r18, 0x0A84
    5d6e:	30 91 85 0a 	lds	r19, 0x0A85
    5d72:	26 17       	cp	r18, r22
    5d74:	37 07       	cpc	r19, r23
    5d76:	48 f0       	brcs	.+18     	; 0x5d8a <Endpoint_Write_Control_Stream_LE+0x20>
    5d78:	61 15       	cp	r22, r1
    5d7a:	71 05       	cpc	r23, r1
    5d7c:	39 f4       	brne	.+14     	; 0x5d8c <Endpoint_Write_Control_Stream_LE+0x22>
    5d7e:	20 91 e8 00 	lds	r18, 0x00E8
    5d82:	2e 77       	andi	r18, 0x7E	; 126
    5d84:	20 93 e8 00 	sts	0x00E8, r18
    5d88:	01 c0       	rjmp	.+2      	; 0x5d8c <Endpoint_Write_Control_Stream_LE+0x22>
    5d8a:	b9 01       	movw	r22, r18
    5d8c:	40 e0       	ldi	r20, 0x00	; 0
    5d8e:	61 15       	cp	r22, r1
    5d90:	71 05       	cpc	r23, r1
    5d92:	a9 f1       	breq	.+106    	; 0x5dfe <Endpoint_Write_Control_Stream_LE+0x94>
    5d94:	20 91 7d 0a 	lds	r18, 0x0A7D
    5d98:	22 23       	and	r18, r18
    5d9a:	09 f4       	brne	.+2      	; 0x5d9e <Endpoint_Write_Control_Stream_LE+0x34>
    5d9c:	43 c0       	rjmp	.+134    	; 0x5e24 <Endpoint_Write_Control_Stream_LE+0xba>
    5d9e:	25 30       	cpi	r18, 0x05	; 5
    5da0:	09 f4       	brne	.+2      	; 0x5da4 <Endpoint_Write_Control_Stream_LE+0x3a>
    5da2:	42 c0       	rjmp	.+132    	; 0x5e28 <Endpoint_Write_Control_Stream_LE+0xbe>
    5da4:	20 91 e8 00 	lds	r18, 0x00E8
    5da8:	23 fd       	sbrc	r18, 3
    5daa:	40 c0       	rjmp	.+128    	; 0x5e2c <Endpoint_Write_Control_Stream_LE+0xc2>
    5dac:	20 91 e8 00 	lds	r18, 0x00E8
    5db0:	22 fd       	sbrc	r18, 2
    5db2:	32 c0       	rjmp	.+100    	; 0x5e18 <Endpoint_Write_Control_Stream_LE+0xae>
    5db4:	20 91 e8 00 	lds	r18, 0x00E8
    5db8:	20 ff       	sbrs	r18, 0
    5dba:	e9 cf       	rjmp	.-46     	; 0x5d8e <Endpoint_Write_Control_Stream_LE+0x24>
    5dbc:	40 91 f3 00 	lds	r20, 0x00F3
    5dc0:	20 91 f2 00 	lds	r18, 0x00F2
    5dc4:	30 e0       	ldi	r19, 0x00	; 0
    5dc6:	34 2b       	or	r19, r20
    5dc8:	fc 01       	movw	r30, r24
    5dca:	cf 01       	movw	r24, r30
    5dcc:	61 15       	cp	r22, r1
    5dce:	71 05       	cpc	r23, r1
    5dd0:	59 f0       	breq	.+22     	; 0x5de8 <Endpoint_Write_Control_Stream_LE+0x7e>
    5dd2:	28 30       	cpi	r18, 0x08	; 8
    5dd4:	31 05       	cpc	r19, r1
    5dd6:	40 f4       	brcc	.+16     	; 0x5de8 <Endpoint_Write_Control_Stream_LE+0x7e>
    5dd8:	81 91       	ld	r24, Z+
    5dda:	80 93 f1 00 	sts	0x00F1, r24
    5dde:	61 50       	subi	r22, 0x01	; 1
    5de0:	71 09       	sbc	r23, r1
    5de2:	2f 5f       	subi	r18, 0xFF	; 255
    5de4:	3f 4f       	sbci	r19, 0xFF	; 255
    5de6:	f1 cf       	rjmp	.-30     	; 0x5dca <Endpoint_Write_Control_Stream_LE+0x60>
    5de8:	41 e0       	ldi	r20, 0x01	; 1
    5dea:	28 30       	cpi	r18, 0x08	; 8
    5dec:	31 05       	cpc	r19, r1
    5dee:	09 f0       	breq	.+2      	; 0x5df2 <Endpoint_Write_Control_Stream_LE+0x88>
    5df0:	40 e0       	ldi	r20, 0x00	; 0
    5df2:	20 91 e8 00 	lds	r18, 0x00E8
    5df6:	2e 77       	andi	r18, 0x7E	; 126
    5df8:	20 93 e8 00 	sts	0x00E8, r18
    5dfc:	c8 cf       	rjmp	.-112    	; 0x5d8e <Endpoint_Write_Control_Stream_LE+0x24>
    5dfe:	41 11       	cpse	r20, r1
    5e00:	c9 cf       	rjmp	.-110    	; 0x5d94 <Endpoint_Write_Control_Stream_LE+0x2a>
    5e02:	0a c0       	rjmp	.+20     	; 0x5e18 <Endpoint_Write_Control_Stream_LE+0xae>
    5e04:	80 91 7d 0a 	lds	r24, 0x0A7D
    5e08:	88 23       	and	r24, r24
    5e0a:	61 f0       	breq	.+24     	; 0x5e24 <Endpoint_Write_Control_Stream_LE+0xba>
    5e0c:	85 30       	cpi	r24, 0x05	; 5
    5e0e:	61 f0       	breq	.+24     	; 0x5e28 <Endpoint_Write_Control_Stream_LE+0xbe>
    5e10:	80 91 e8 00 	lds	r24, 0x00E8
    5e14:	83 fd       	sbrc	r24, 3
    5e16:	0a c0       	rjmp	.+20     	; 0x5e2c <Endpoint_Write_Control_Stream_LE+0xc2>
    5e18:	80 91 e8 00 	lds	r24, 0x00E8
    5e1c:	82 ff       	sbrs	r24, 2
    5e1e:	f2 cf       	rjmp	.-28     	; 0x5e04 <Endpoint_Write_Control_Stream_LE+0x9a>
    5e20:	80 e0       	ldi	r24, 0x00	; 0
    5e22:	08 95       	ret
    5e24:	82 e0       	ldi	r24, 0x02	; 2
    5e26:	08 95       	ret
    5e28:	83 e0       	ldi	r24, 0x03	; 3
    5e2a:	08 95       	ret
    5e2c:	81 e0       	ldi	r24, 0x01	; 1
    5e2e:	08 95       	ret

00005e30 <Endpoint_Read_Control_Stream_LE>:
    5e30:	61 15       	cp	r22, r1
    5e32:	71 05       	cpc	r23, r1
    5e34:	29 f4       	brne	.+10     	; 0x5e40 <Endpoint_Read_Control_Stream_LE+0x10>
    5e36:	20 91 e8 00 	lds	r18, 0x00E8
    5e3a:	2b 77       	andi	r18, 0x7B	; 123
    5e3c:	20 93 e8 00 	sts	0x00E8, r18
    5e40:	fc 01       	movw	r30, r24
    5e42:	61 15       	cp	r22, r1
    5e44:	71 05       	cpc	r23, r1
    5e46:	41 f1       	breq	.+80     	; 0x5e98 <Endpoint_Read_Control_Stream_LE+0x68>
    5e48:	80 91 7d 0a 	lds	r24, 0x0A7D
    5e4c:	88 23       	and	r24, r24
    5e4e:	61 f1       	breq	.+88     	; 0x5ea8 <Endpoint_Read_Control_Stream_LE+0x78>
    5e50:	85 30       	cpi	r24, 0x05	; 5
    5e52:	61 f1       	breq	.+88     	; 0x5eac <Endpoint_Read_Control_Stream_LE+0x7c>
    5e54:	80 91 e8 00 	lds	r24, 0x00E8
    5e58:	83 fd       	sbrc	r24, 3
    5e5a:	24 c0       	rjmp	.+72     	; 0x5ea4 <Endpoint_Read_Control_Stream_LE+0x74>
    5e5c:	80 91 e8 00 	lds	r24, 0x00E8
    5e60:	82 ff       	sbrs	r24, 2
    5e62:	ef cf       	rjmp	.-34     	; 0x5e42 <Endpoint_Read_Control_Stream_LE+0x12>
    5e64:	20 91 f3 00 	lds	r18, 0x00F3
    5e68:	80 91 f2 00 	lds	r24, 0x00F2
    5e6c:	90 e0       	ldi	r25, 0x00	; 0
    5e6e:	92 2b       	or	r25, r18
    5e70:	89 2b       	or	r24, r25
    5e72:	31 f0       	breq	.+12     	; 0x5e80 <Endpoint_Read_Control_Stream_LE+0x50>
    5e74:	80 91 f1 00 	lds	r24, 0x00F1
    5e78:	81 93       	st	Z+, r24
    5e7a:	61 50       	subi	r22, 0x01	; 1
    5e7c:	71 09       	sbc	r23, r1
    5e7e:	91 f7       	brne	.-28     	; 0x5e64 <Endpoint_Read_Control_Stream_LE+0x34>
    5e80:	80 91 e8 00 	lds	r24, 0x00E8
    5e84:	8b 77       	andi	r24, 0x7B	; 123
    5e86:	80 93 e8 00 	sts	0x00E8, r24
    5e8a:	db cf       	rjmp	.-74     	; 0x5e42 <Endpoint_Read_Control_Stream_LE+0x12>
    5e8c:	80 91 7d 0a 	lds	r24, 0x0A7D
    5e90:	88 23       	and	r24, r24
    5e92:	51 f0       	breq	.+20     	; 0x5ea8 <Endpoint_Read_Control_Stream_LE+0x78>
    5e94:	85 30       	cpi	r24, 0x05	; 5
    5e96:	51 f0       	breq	.+20     	; 0x5eac <Endpoint_Read_Control_Stream_LE+0x7c>
    5e98:	80 91 e8 00 	lds	r24, 0x00E8
    5e9c:	80 ff       	sbrs	r24, 0
    5e9e:	f6 cf       	rjmp	.-20     	; 0x5e8c <Endpoint_Read_Control_Stream_LE+0x5c>
    5ea0:	80 e0       	ldi	r24, 0x00	; 0
    5ea2:	08 95       	ret
    5ea4:	81 e0       	ldi	r24, 0x01	; 1
    5ea6:	08 95       	ret
    5ea8:	82 e0       	ldi	r24, 0x02	; 2
    5eaa:	08 95       	ret
    5eac:	83 e0       	ldi	r24, 0x03	; 3
    5eae:	08 95       	ret

00005eb0 <Endpoint_Write_Control_PStream_LE>:
    5eb0:	20 91 84 0a 	lds	r18, 0x0A84
    5eb4:	30 91 85 0a 	lds	r19, 0x0A85
    5eb8:	26 17       	cp	r18, r22
    5eba:	37 07       	cpc	r19, r23
    5ebc:	48 f0       	brcs	.+18     	; 0x5ed0 <Endpoint_Write_Control_PStream_LE+0x20>
    5ebe:	61 15       	cp	r22, r1
    5ec0:	71 05       	cpc	r23, r1
    5ec2:	39 f4       	brne	.+14     	; 0x5ed2 <Endpoint_Write_Control_PStream_LE+0x22>
    5ec4:	20 91 e8 00 	lds	r18, 0x00E8
    5ec8:	2e 77       	andi	r18, 0x7E	; 126
    5eca:	20 93 e8 00 	sts	0x00E8, r18
    5ece:	01 c0       	rjmp	.+2      	; 0x5ed2 <Endpoint_Write_Control_PStream_LE+0x22>
    5ed0:	b9 01       	movw	r22, r18
    5ed2:	fc 01       	movw	r30, r24
    5ed4:	20 e0       	ldi	r18, 0x00	; 0
    5ed6:	61 15       	cp	r22, r1
    5ed8:	71 05       	cpc	r23, r1
    5eda:	91 f1       	breq	.+100    	; 0x5f40 <Endpoint_Write_Control_PStream_LE+0x90>
    5edc:	80 91 7d 0a 	lds	r24, 0x0A7D
    5ee0:	88 23       	and	r24, r24
    5ee2:	09 f4       	brne	.+2      	; 0x5ee6 <Endpoint_Write_Control_PStream_LE+0x36>
    5ee4:	40 c0       	rjmp	.+128    	; 0x5f66 <Endpoint_Write_Control_PStream_LE+0xb6>
    5ee6:	85 30       	cpi	r24, 0x05	; 5
    5ee8:	09 f4       	brne	.+2      	; 0x5eec <Endpoint_Write_Control_PStream_LE+0x3c>
    5eea:	3f c0       	rjmp	.+126    	; 0x5f6a <Endpoint_Write_Control_PStream_LE+0xba>
    5eec:	80 91 e8 00 	lds	r24, 0x00E8
    5ef0:	83 fd       	sbrc	r24, 3
    5ef2:	3d c0       	rjmp	.+122    	; 0x5f6e <Endpoint_Write_Control_PStream_LE+0xbe>
    5ef4:	80 91 e8 00 	lds	r24, 0x00E8
    5ef8:	82 fd       	sbrc	r24, 2
    5efa:	2f c0       	rjmp	.+94     	; 0x5f5a <Endpoint_Write_Control_PStream_LE+0xaa>
    5efc:	80 91 e8 00 	lds	r24, 0x00E8
    5f00:	80 ff       	sbrs	r24, 0
    5f02:	e9 cf       	rjmp	.-46     	; 0x5ed6 <Endpoint_Write_Control_PStream_LE+0x26>
    5f04:	20 91 f3 00 	lds	r18, 0x00F3
    5f08:	80 91 f2 00 	lds	r24, 0x00F2
    5f0c:	90 e0       	ldi	r25, 0x00	; 0
    5f0e:	92 2b       	or	r25, r18
    5f10:	61 15       	cp	r22, r1
    5f12:	71 05       	cpc	r23, r1
    5f14:	59 f0       	breq	.+22     	; 0x5f2c <Endpoint_Write_Control_PStream_LE+0x7c>
    5f16:	88 30       	cpi	r24, 0x08	; 8
    5f18:	91 05       	cpc	r25, r1
    5f1a:	40 f4       	brcc	.+16     	; 0x5f2c <Endpoint_Write_Control_PStream_LE+0x7c>
    5f1c:	24 91       	lpm	r18, Z
    5f1e:	20 93 f1 00 	sts	0x00F1, r18
    5f22:	31 96       	adiw	r30, 0x01	; 1
    5f24:	61 50       	subi	r22, 0x01	; 1
    5f26:	71 09       	sbc	r23, r1
    5f28:	01 96       	adiw	r24, 0x01	; 1
    5f2a:	f2 cf       	rjmp	.-28     	; 0x5f10 <Endpoint_Write_Control_PStream_LE+0x60>
    5f2c:	21 e0       	ldi	r18, 0x01	; 1
    5f2e:	08 97       	sbiw	r24, 0x08	; 8
    5f30:	09 f0       	breq	.+2      	; 0x5f34 <Endpoint_Write_Control_PStream_LE+0x84>
    5f32:	20 e0       	ldi	r18, 0x00	; 0
    5f34:	80 91 e8 00 	lds	r24, 0x00E8
    5f38:	8e 77       	andi	r24, 0x7E	; 126
    5f3a:	80 93 e8 00 	sts	0x00E8, r24
    5f3e:	cb cf       	rjmp	.-106    	; 0x5ed6 <Endpoint_Write_Control_PStream_LE+0x26>
    5f40:	21 11       	cpse	r18, r1
    5f42:	cc cf       	rjmp	.-104    	; 0x5edc <Endpoint_Write_Control_PStream_LE+0x2c>
    5f44:	0a c0       	rjmp	.+20     	; 0x5f5a <Endpoint_Write_Control_PStream_LE+0xaa>
    5f46:	80 91 7d 0a 	lds	r24, 0x0A7D
    5f4a:	88 23       	and	r24, r24
    5f4c:	61 f0       	breq	.+24     	; 0x5f66 <Endpoint_Write_Control_PStream_LE+0xb6>
    5f4e:	85 30       	cpi	r24, 0x05	; 5
    5f50:	61 f0       	breq	.+24     	; 0x5f6a <Endpoint_Write_Control_PStream_LE+0xba>
    5f52:	80 91 e8 00 	lds	r24, 0x00E8
    5f56:	83 fd       	sbrc	r24, 3
    5f58:	0a c0       	rjmp	.+20     	; 0x5f6e <Endpoint_Write_Control_PStream_LE+0xbe>
    5f5a:	80 91 e8 00 	lds	r24, 0x00E8
    5f5e:	82 ff       	sbrs	r24, 2
    5f60:	f2 cf       	rjmp	.-28     	; 0x5f46 <Endpoint_Write_Control_PStream_LE+0x96>
    5f62:	80 e0       	ldi	r24, 0x00	; 0
    5f64:	08 95       	ret
    5f66:	82 e0       	ldi	r24, 0x02	; 2
    5f68:	08 95       	ret
    5f6a:	83 e0       	ldi	r24, 0x03	; 3
    5f6c:	08 95       	ret
    5f6e:	81 e0       	ldi	r24, 0x01	; 1
    5f70:	08 95       	ret

00005f72 <Endpoint_ConfigureEndpoint_Prv>:
    5f72:	98 2f       	mov	r25, r24
    5f74:	97 30       	cpi	r25, 0x07	; 7
    5f76:	58 f5       	brcc	.+86     	; 0x5fce <Endpoint_ConfigureEndpoint_Prv+0x5c>
    5f78:	90 93 e9 00 	sts	0x00E9, r25
    5f7c:	98 17       	cp	r25, r24
    5f7e:	39 f0       	breq	.+14     	; 0x5f8e <Endpoint_ConfigureEndpoint_Prv+0x1c>
    5f80:	70 91 ec 00 	lds	r23, 0x00EC
    5f84:	20 91 ed 00 	lds	r18, 0x00ED
    5f88:	50 91 f0 00 	lds	r21, 0x00F0
    5f8c:	03 c0       	rjmp	.+6      	; 0x5f94 <Endpoint_ConfigureEndpoint_Prv+0x22>
    5f8e:	24 2f       	mov	r18, r20
    5f90:	76 2f       	mov	r23, r22
    5f92:	50 e0       	ldi	r21, 0x00	; 0
    5f94:	21 ff       	sbrs	r18, 1
    5f96:	19 c0       	rjmp	.+50     	; 0x5fca <Endpoint_ConfigureEndpoint_Prv+0x58>
    5f98:	30 91 eb 00 	lds	r19, 0x00EB
    5f9c:	3e 7f       	andi	r19, 0xFE	; 254
    5f9e:	30 93 eb 00 	sts	0x00EB, r19
    5fa2:	30 91 ed 00 	lds	r19, 0x00ED
    5fa6:	3d 7f       	andi	r19, 0xFD	; 253
    5fa8:	30 93 ed 00 	sts	0x00ED, r19
    5fac:	30 91 eb 00 	lds	r19, 0x00EB
    5fb0:	31 60       	ori	r19, 0x01	; 1
    5fb2:	30 93 eb 00 	sts	0x00EB, r19
    5fb6:	70 93 ec 00 	sts	0x00EC, r23
    5fba:	20 93 ed 00 	sts	0x00ED, r18
    5fbe:	50 93 f0 00 	sts	0x00F0, r21
    5fc2:	20 91 ee 00 	lds	r18, 0x00EE
    5fc6:	27 ff       	sbrs	r18, 7
    5fc8:	07 c0       	rjmp	.+14     	; 0x5fd8 <Endpoint_ConfigureEndpoint_Prv+0x66>
    5fca:	9f 5f       	subi	r25, 0xFF	; 255
    5fcc:	d3 cf       	rjmp	.-90     	; 0x5f74 <Endpoint_ConfigureEndpoint_Prv+0x2>
    5fce:	8f 70       	andi	r24, 0x0F	; 15
    5fd0:	80 93 e9 00 	sts	0x00E9, r24
    5fd4:	81 e0       	ldi	r24, 0x01	; 1
    5fd6:	08 95       	ret
    5fd8:	80 e0       	ldi	r24, 0x00	; 0
    5fda:	08 95       	ret

00005fdc <Endpoint_ConfigureEndpointTable>:
    5fdc:	ef 92       	push	r14
    5fde:	ff 92       	push	r15
    5fe0:	0f 93       	push	r16
    5fe2:	1f 93       	push	r17
    5fe4:	cf 93       	push	r28
    5fe6:	df 93       	push	r29
    5fe8:	e6 2e       	mov	r14, r22
    5fea:	ec 01       	movw	r28, r24
    5fec:	8c 01       	movw	r16, r24
    5fee:	0c 5f       	subi	r16, 0xFC	; 252
    5ff0:	1f 4f       	sbci	r17, 0xFF	; 255
    5ff2:	f1 2c       	mov	r15, r1
    5ff4:	fe 14       	cp	r15, r14
    5ff6:	91 f1       	breq	.+100    	; 0x605c <Endpoint_ConfigureEndpointTable+0x80>
    5ff8:	58 81       	ld	r21, Y
    5ffa:	55 23       	and	r21, r21
    5ffc:	51 f1       	breq	.+84     	; 0x6052 <Endpoint_ConfigureEndpointTable+0x76>
    5ffe:	f8 01       	movw	r30, r16
    6000:	20 81       	ld	r18, Z
    6002:	69 81       	ldd	r22, Y+1	; 0x01
    6004:	7a 81       	ldd	r23, Y+2	; 0x02
    6006:	31 97       	sbiw	r30, 0x01	; 1
    6008:	90 81       	ld	r25, Z
    600a:	85 2f       	mov	r24, r21
    600c:	8f 70       	andi	r24, 0x0F	; 15
    600e:	87 30       	cpi	r24, 0x07	; 7
    6010:	10 f0       	brcs	.+4      	; 0x6016 <Endpoint_ConfigureEndpointTable+0x3a>
    6012:	80 e0       	ldi	r24, 0x00	; 0
    6014:	24 c0       	rjmp	.+72     	; 0x605e <Endpoint_ConfigureEndpointTable+0x82>
    6016:	22 30       	cpi	r18, 0x02	; 2
    6018:	10 f4       	brcc	.+4      	; 0x601e <Endpoint_ConfigureEndpointTable+0x42>
    601a:	42 e0       	ldi	r20, 0x02	; 2
    601c:	01 c0       	rjmp	.+2      	; 0x6020 <Endpoint_ConfigureEndpointTable+0x44>
    601e:	46 e0       	ldi	r20, 0x06	; 6
    6020:	e8 e0       	ldi	r30, 0x08	; 8
    6022:	f0 e0       	ldi	r31, 0x00	; 0
    6024:	20 e0       	ldi	r18, 0x00	; 0
    6026:	e6 17       	cp	r30, r22
    6028:	f7 07       	cpc	r31, r23
    602a:	20 f4       	brcc	.+8      	; 0x6034 <Endpoint_ConfigureEndpointTable+0x58>
    602c:	2f 5f       	subi	r18, 0xFF	; 255
    602e:	ee 0f       	add	r30, r30
    6030:	ff 1f       	adc	r31, r31
    6032:	f9 cf       	rjmp	.-14     	; 0x6026 <Endpoint_ConfigureEndpointTable+0x4a>
    6034:	22 95       	swap	r18
    6036:	20 7f       	andi	r18, 0xF0	; 240
    6038:	42 2b       	or	r20, r18
    603a:	f0 e4       	ldi	r31, 0x40	; 64
    603c:	9f 9f       	mul	r25, r31
    603e:	90 01       	movw	r18, r0
    6040:	11 24       	eor	r1, r1
    6042:	55 1f       	adc	r21, r21
    6044:	55 27       	eor	r21, r21
    6046:	55 1f       	adc	r21, r21
    6048:	65 2f       	mov	r22, r21
    604a:	62 2b       	or	r22, r18
    604c:	92 df       	rcall	.-220    	; 0x5f72 <Endpoint_ConfigureEndpoint_Prv>
    604e:	88 23       	and	r24, r24
    6050:	01 f3       	breq	.-64     	; 0x6012 <Endpoint_ConfigureEndpointTable+0x36>
    6052:	f3 94       	inc	r15
    6054:	25 96       	adiw	r28, 0x05	; 5
    6056:	0b 5f       	subi	r16, 0xFB	; 251
    6058:	1f 4f       	sbci	r17, 0xFF	; 255
    605a:	cc cf       	rjmp	.-104    	; 0x5ff4 <Endpoint_ConfigureEndpointTable+0x18>
    605c:	81 e0       	ldi	r24, 0x01	; 1
    605e:	df 91       	pop	r29
    6060:	cf 91       	pop	r28
    6062:	1f 91       	pop	r17
    6064:	0f 91       	pop	r16
    6066:	ff 90       	pop	r15
    6068:	ef 90       	pop	r14
    606a:	08 95       	ret

0000606c <Endpoint_ClearStatusStage>:
    606c:	80 91 7e 0a 	lds	r24, 0x0A7E
    6070:	87 ff       	sbrs	r24, 7
    6072:	11 c0       	rjmp	.+34     	; 0x6096 <Endpoint_ClearStatusStage+0x2a>
    6074:	80 91 e8 00 	lds	r24, 0x00E8
    6078:	82 fd       	sbrc	r24, 2
    607a:	05 c0       	rjmp	.+10     	; 0x6086 <Endpoint_ClearStatusStage+0x1a>
    607c:	80 91 7d 0a 	lds	r24, 0x0A7D
    6080:	81 11       	cpse	r24, r1
    6082:	f8 cf       	rjmp	.-16     	; 0x6074 <Endpoint_ClearStatusStage+0x8>
    6084:	11 c0       	rjmp	.+34     	; 0x60a8 <Endpoint_ClearStatusStage+0x3c>
    6086:	80 91 e8 00 	lds	r24, 0x00E8
    608a:	8b 77       	andi	r24, 0x7B	; 123
    608c:	0b c0       	rjmp	.+22     	; 0x60a4 <Endpoint_ClearStatusStage+0x38>
    608e:	80 91 7d 0a 	lds	r24, 0x0A7D
    6092:	88 23       	and	r24, r24
    6094:	49 f0       	breq	.+18     	; 0x60a8 <Endpoint_ClearStatusStage+0x3c>
    6096:	80 91 e8 00 	lds	r24, 0x00E8
    609a:	80 ff       	sbrs	r24, 0
    609c:	f8 cf       	rjmp	.-16     	; 0x608e <Endpoint_ClearStatusStage+0x22>
    609e:	80 91 e8 00 	lds	r24, 0x00E8
    60a2:	8e 77       	andi	r24, 0x7E	; 126
    60a4:	80 93 e8 00 	sts	0x00E8, r24
    60a8:	08 95       	ret

000060aa <Endpoint_WaitUntilReady>:
    60aa:	20 91 e4 00 	lds	r18, 0x00E4
    60ae:	30 91 e5 00 	lds	r19, 0x00E5
    60b2:	95 e6       	ldi	r25, 0x65	; 101
    60b4:	40 91 ec 00 	lds	r20, 0x00EC
    60b8:	84 2f       	mov	r24, r20
    60ba:	81 70       	andi	r24, 0x01	; 1
    60bc:	40 ff       	sbrs	r20, 0
    60be:	22 c0       	rjmp	.+68     	; 0x6104 <Endpoint_WaitUntilReady+0x5a>
    60c0:	80 91 e8 00 	lds	r24, 0x00E8
    60c4:	80 fd       	sbrc	r24, 0
    60c6:	1c c0       	rjmp	.+56     	; 0x6100 <Endpoint_WaitUntilReady+0x56>
    60c8:	80 91 7d 0a 	lds	r24, 0x0A7D
    60cc:	88 23       	and	r24, r24
    60ce:	91 f0       	breq	.+36     	; 0x60f4 <Endpoint_WaitUntilReady+0x4a>
    60d0:	85 30       	cpi	r24, 0x05	; 5
    60d2:	91 f0       	breq	.+36     	; 0x60f8 <Endpoint_WaitUntilReady+0x4e>
    60d4:	80 91 eb 00 	lds	r24, 0x00EB
    60d8:	85 fd       	sbrc	r24, 5
    60da:	10 c0       	rjmp	.+32     	; 0x60fc <Endpoint_WaitUntilReady+0x52>
    60dc:	40 91 e4 00 	lds	r20, 0x00E4
    60e0:	50 91 e5 00 	lds	r21, 0x00E5
    60e4:	42 17       	cp	r20, r18
    60e6:	53 07       	cpc	r21, r19
    60e8:	29 f3       	breq	.-54     	; 0x60b4 <Endpoint_WaitUntilReady+0xa>
    60ea:	9a 01       	movw	r18, r20
    60ec:	91 50       	subi	r25, 0x01	; 1
    60ee:	11 f7       	brne	.-60     	; 0x60b4 <Endpoint_WaitUntilReady+0xa>
    60f0:	84 e0       	ldi	r24, 0x04	; 4
    60f2:	08 95       	ret
    60f4:	82 e0       	ldi	r24, 0x02	; 2
    60f6:	08 95       	ret
    60f8:	83 e0       	ldi	r24, 0x03	; 3
    60fa:	08 95       	ret
    60fc:	81 e0       	ldi	r24, 0x01	; 1
    60fe:	08 95       	ret
    6100:	80 e0       	ldi	r24, 0x00	; 0
    6102:	08 95       	ret
    6104:	40 91 e8 00 	lds	r20, 0x00E8
    6108:	42 ff       	sbrs	r20, 2
    610a:	de cf       	rjmp	.-68     	; 0x60c8 <Endpoint_WaitUntilReady+0x1e>
    610c:	08 95       	ret

0000610e <USB_Disable>:
    610e:	67 d0       	rcall	.+206    	; 0x61de <USB_INT_DisableAllInterrupts>
    6110:	6e d0       	rcall	.+220    	; 0x61ee <USB_INT_ClearAllInterrupts>
    6112:	e0 ee       	ldi	r30, 0xE0	; 224
    6114:	f0 e0       	ldi	r31, 0x00	; 0
    6116:	80 81       	ld	r24, Z
    6118:	81 60       	ori	r24, 0x01	; 1
    611a:	80 83       	st	Z, r24
    611c:	e8 ed       	ldi	r30, 0xD8	; 216
    611e:	f0 e0       	ldi	r31, 0x00	; 0
    6120:	80 81       	ld	r24, Z
    6122:	8f 77       	andi	r24, 0x7F	; 127
    6124:	80 83       	st	Z, r24
    6126:	19 bc       	out	0x29, r1	; 41
    6128:	a7 ed       	ldi	r26, 0xD7	; 215
    612a:	b0 e0       	ldi	r27, 0x00	; 0
    612c:	8c 91       	ld	r24, X
    612e:	8e 7f       	andi	r24, 0xFE	; 254
    6130:	8c 93       	st	X, r24
    6132:	80 81       	ld	r24, Z
    6134:	8f 7e       	andi	r24, 0xEF	; 239
    6136:	80 83       	st	Z, r24
    6138:	10 92 7c 0a 	sts	0x0A7C, r1
    613c:	08 95       	ret

0000613e <USB_ResetInterface>:
    613e:	0f 93       	push	r16
    6140:	1f 93       	push	r17
    6142:	cf 93       	push	r28
    6144:	df 93       	push	r29
    6146:	4b d0       	rcall	.+150    	; 0x61de <USB_INT_DisableAllInterrupts>
    6148:	52 d0       	rcall	.+164    	; 0x61ee <USB_INT_ClearAllInterrupts>
    614a:	c8 ed       	ldi	r28, 0xD8	; 216
    614c:	d0 e0       	ldi	r29, 0x00	; 0
    614e:	88 81       	ld	r24, Y
    6150:	8f 77       	andi	r24, 0x7F	; 127
    6152:	88 83       	st	Y, r24
    6154:	88 81       	ld	r24, Y
    6156:	80 68       	ori	r24, 0x80	; 128
    6158:	88 83       	st	Y, r24
    615a:	88 81       	ld	r24, Y
    615c:	8f 7d       	andi	r24, 0xDF	; 223
    615e:	88 83       	st	Y, r24
    6160:	19 bc       	out	0x29, r1	; 41
    6162:	10 92 7d 0a 	sts	0x0A7D, r1
    6166:	10 92 79 0a 	sts	0x0A79, r1
    616a:	10 92 7b 0a 	sts	0x0A7B, r1
    616e:	10 92 7a 0a 	sts	0x0A7A, r1
    6172:	00 ee       	ldi	r16, 0xE0	; 224
    6174:	10 e0       	ldi	r17, 0x00	; 0
    6176:	f8 01       	movw	r30, r16
    6178:	80 81       	ld	r24, Z
    617a:	8b 7f       	andi	r24, 0xFB	; 251
    617c:	80 83       	st	Z, r24
    617e:	88 81       	ld	r24, Y
    6180:	81 60       	ori	r24, 0x01	; 1
    6182:	88 83       	st	Y, r24
    6184:	42 e0       	ldi	r20, 0x02	; 2
    6186:	60 e0       	ldi	r22, 0x00	; 0
    6188:	80 e0       	ldi	r24, 0x00	; 0
    618a:	f3 de       	rcall	.-538    	; 0x5f72 <Endpoint_ConfigureEndpoint_Prv>
    618c:	e1 ee       	ldi	r30, 0xE1	; 225
    618e:	f0 e0       	ldi	r31, 0x00	; 0
    6190:	80 81       	ld	r24, Z
    6192:	8e 7f       	andi	r24, 0xFE	; 254
    6194:	80 83       	st	Z, r24
    6196:	e2 ee       	ldi	r30, 0xE2	; 226
    6198:	f0 e0       	ldi	r31, 0x00	; 0
    619a:	80 81       	ld	r24, Z
    619c:	81 60       	ori	r24, 0x01	; 1
    619e:	80 83       	st	Z, r24
    61a0:	80 81       	ld	r24, Z
    61a2:	88 60       	ori	r24, 0x08	; 8
    61a4:	80 83       	st	Z, r24
    61a6:	f8 01       	movw	r30, r16
    61a8:	80 81       	ld	r24, Z
    61aa:	8e 7f       	andi	r24, 0xFE	; 254
    61ac:	80 83       	st	Z, r24
    61ae:	88 81       	ld	r24, Y
    61b0:	80 61       	ori	r24, 0x10	; 16
    61b2:	88 83       	st	Y, r24
    61b4:	df 91       	pop	r29
    61b6:	cf 91       	pop	r28
    61b8:	1f 91       	pop	r17
    61ba:	0f 91       	pop	r16
    61bc:	08 95       	ret

000061be <USB_Init>:
    61be:	e8 ed       	ldi	r30, 0xD8	; 216
    61c0:	f0 e0       	ldi	r31, 0x00	; 0
    61c2:	80 81       	ld	r24, Z
    61c4:	8f 7e       	andi	r24, 0xEF	; 239
    61c6:	80 83       	st	Z, r24
    61c8:	e7 ed       	ldi	r30, 0xD7	; 215
    61ca:	f0 e0       	ldi	r31, 0x00	; 0
    61cc:	80 81       	ld	r24, Z
    61ce:	81 60       	ori	r24, 0x01	; 1
    61d0:	80 83       	st	Z, r24
    61d2:	84 e0       	ldi	r24, 0x04	; 4
    61d4:	82 bf       	out	0x32, r24	; 50
    61d6:	81 e0       	ldi	r24, 0x01	; 1
    61d8:	80 93 7c 0a 	sts	0x0A7C, r24
    61dc:	b0 cf       	rjmp	.-160    	; 0x613e <USB_ResetInterface>

000061de <USB_INT_DisableAllInterrupts>:
    61de:	e8 ed       	ldi	r30, 0xD8	; 216
    61e0:	f0 e0       	ldi	r31, 0x00	; 0
    61e2:	80 81       	ld	r24, Z
    61e4:	8e 7f       	andi	r24, 0xFE	; 254
    61e6:	80 83       	st	Z, r24
    61e8:	10 92 e2 00 	sts	0x00E2, r1
    61ec:	08 95       	ret

000061ee <USB_INT_ClearAllInterrupts>:
    61ee:	10 92 da 00 	sts	0x00DA, r1
    61f2:	10 92 e1 00 	sts	0x00E1, r1
    61f6:	08 95       	ret

000061f8 <__vector_10>:
    61f8:	1f 92       	push	r1
    61fa:	0f 92       	push	r0
    61fc:	0f b6       	in	r0, 0x3f	; 63
    61fe:	0f 92       	push	r0
    6200:	11 24       	eor	r1, r1
    6202:	2f 93       	push	r18
    6204:	3f 93       	push	r19
    6206:	4f 93       	push	r20
    6208:	5f 93       	push	r21
    620a:	6f 93       	push	r22
    620c:	7f 93       	push	r23
    620e:	8f 93       	push	r24
    6210:	9f 93       	push	r25
    6212:	af 93       	push	r26
    6214:	bf 93       	push	r27
    6216:	ef 93       	push	r30
    6218:	ff 93       	push	r31
    621a:	80 91 e1 00 	lds	r24, 0x00E1
    621e:	82 ff       	sbrs	r24, 2
    6220:	0b c0       	rjmp	.+22     	; 0x6238 <__vector_10+0x40>
    6222:	80 91 e2 00 	lds	r24, 0x00E2
    6226:	82 ff       	sbrs	r24, 2
    6228:	07 c0       	rjmp	.+14     	; 0x6238 <__vector_10+0x40>
    622a:	80 91 e1 00 	lds	r24, 0x00E1
    622e:	8b 7f       	andi	r24, 0xFB	; 251
    6230:	80 93 e1 00 	sts	0x00E1, r24
    6234:	0e 94 ed 23 	call	0x47da	; 0x47da <EVENT_USB_Device_StartOfFrame>
    6238:	80 91 da 00 	lds	r24, 0x00DA
    623c:	80 ff       	sbrs	r24, 0
    623e:	1d c0       	rjmp	.+58     	; 0x627a <__vector_10+0x82>
    6240:	80 91 d8 00 	lds	r24, 0x00D8
    6244:	80 ff       	sbrs	r24, 0
    6246:	19 c0       	rjmp	.+50     	; 0x627a <__vector_10+0x82>
    6248:	80 91 da 00 	lds	r24, 0x00DA
    624c:	8e 7f       	andi	r24, 0xFE	; 254
    624e:	80 93 da 00 	sts	0x00DA, r24
    6252:	80 91 d9 00 	lds	r24, 0x00D9
    6256:	19 bc       	out	0x29, r1	; 41
    6258:	80 ff       	sbrs	r24, 0
    625a:	0b c0       	rjmp	.+22     	; 0x6272 <__vector_10+0x7a>
    625c:	82 e0       	ldi	r24, 0x02	; 2
    625e:	89 bd       	out	0x29, r24	; 41
    6260:	09 b4       	in	r0, 0x29	; 41
    6262:	00 fe       	sbrs	r0, 0
    6264:	fd cf       	rjmp	.-6      	; 0x6260 <__vector_10+0x68>
    6266:	81 e0       	ldi	r24, 0x01	; 1
    6268:	80 93 7d 0a 	sts	0x0A7D, r24
    626c:	0e 94 cf 23 	call	0x479e	; 0x479e <EVENT_USB_Device_Connect>
    6270:	04 c0       	rjmp	.+8      	; 0x627a <__vector_10+0x82>
    6272:	10 92 7d 0a 	sts	0x0A7D, r1
    6276:	0e 94 d0 23 	call	0x47a0	; 0x47a0 <EVENT_USB_Device_Disconnect>
    627a:	80 91 e1 00 	lds	r24, 0x00E1
    627e:	80 ff       	sbrs	r24, 0
    6280:	19 c0       	rjmp	.+50     	; 0x62b4 <__vector_10+0xbc>
    6282:	80 91 e2 00 	lds	r24, 0x00E2
    6286:	80 ff       	sbrs	r24, 0
    6288:	15 c0       	rjmp	.+42     	; 0x62b4 <__vector_10+0xbc>
    628a:	80 91 e2 00 	lds	r24, 0x00E2
    628e:	8e 7f       	andi	r24, 0xFE	; 254
    6290:	80 93 e2 00 	sts	0x00E2, r24
    6294:	80 91 e2 00 	lds	r24, 0x00E2
    6298:	80 61       	ori	r24, 0x10	; 16
    629a:	80 93 e2 00 	sts	0x00E2, r24
    629e:	80 91 d8 00 	lds	r24, 0x00D8
    62a2:	80 62       	ori	r24, 0x20	; 32
    62a4:	80 93 d8 00 	sts	0x00D8, r24
    62a8:	19 bc       	out	0x29, r1	; 41
    62aa:	85 e0       	ldi	r24, 0x05	; 5
    62ac:	80 93 7d 0a 	sts	0x0A7D, r24
    62b0:	0e 94 d7 23 	call	0x47ae	; 0x47ae <EVENT_USB_Device_Suspend>
    62b4:	80 91 e1 00 	lds	r24, 0x00E1
    62b8:	84 ff       	sbrs	r24, 4
    62ba:	2f c0       	rjmp	.+94     	; 0x631a <__vector_10+0x122>
    62bc:	80 91 e2 00 	lds	r24, 0x00E2
    62c0:	84 ff       	sbrs	r24, 4
    62c2:	2b c0       	rjmp	.+86     	; 0x631a <__vector_10+0x122>
    62c4:	19 bc       	out	0x29, r1	; 41
    62c6:	82 e0       	ldi	r24, 0x02	; 2
    62c8:	89 bd       	out	0x29, r24	; 41
    62ca:	09 b4       	in	r0, 0x29	; 41
    62cc:	00 fe       	sbrs	r0, 0
    62ce:	fd cf       	rjmp	.-6      	; 0x62ca <__vector_10+0xd2>
    62d0:	80 91 d8 00 	lds	r24, 0x00D8
    62d4:	8f 7d       	andi	r24, 0xDF	; 223
    62d6:	80 93 d8 00 	sts	0x00D8, r24
    62da:	80 91 e1 00 	lds	r24, 0x00E1
    62de:	8f 7e       	andi	r24, 0xEF	; 239
    62e0:	80 93 e1 00 	sts	0x00E1, r24
    62e4:	80 91 e2 00 	lds	r24, 0x00E2
    62e8:	8f 7e       	andi	r24, 0xEF	; 239
    62ea:	80 93 e2 00 	sts	0x00E2, r24
    62ee:	80 91 e2 00 	lds	r24, 0x00E2
    62f2:	81 60       	ori	r24, 0x01	; 1
    62f4:	80 93 e2 00 	sts	0x00E2, r24
    62f8:	80 91 79 0a 	lds	r24, 0x0A79
    62fc:	88 23       	and	r24, r24
    62fe:	11 f0       	breq	.+4      	; 0x6304 <__vector_10+0x10c>
    6300:	84 e0       	ldi	r24, 0x04	; 4
    6302:	07 c0       	rjmp	.+14     	; 0x6312 <__vector_10+0x11a>
    6304:	80 91 e3 00 	lds	r24, 0x00E3
    6308:	87 fd       	sbrc	r24, 7
    630a:	02 c0       	rjmp	.+4      	; 0x6310 <__vector_10+0x118>
    630c:	81 e0       	ldi	r24, 0x01	; 1
    630e:	01 c0       	rjmp	.+2      	; 0x6312 <__vector_10+0x11a>
    6310:	83 e0       	ldi	r24, 0x03	; 3
    6312:	80 93 7d 0a 	sts	0x0A7D, r24
    6316:	0e 94 d8 23 	call	0x47b0	; 0x47b0 <EVENT_USB_Device_WakeUp>
    631a:	80 91 e1 00 	lds	r24, 0x00E1
    631e:	83 ff       	sbrs	r24, 3
    6320:	22 c0       	rjmp	.+68     	; 0x6366 <__vector_10+0x16e>
    6322:	80 91 e2 00 	lds	r24, 0x00E2
    6326:	83 ff       	sbrs	r24, 3
    6328:	1e c0       	rjmp	.+60     	; 0x6366 <__vector_10+0x16e>
    632a:	80 91 e1 00 	lds	r24, 0x00E1
    632e:	87 7f       	andi	r24, 0xF7	; 247
    6330:	80 93 e1 00 	sts	0x00E1, r24
    6334:	82 e0       	ldi	r24, 0x02	; 2
    6336:	80 93 7d 0a 	sts	0x0A7D, r24
    633a:	10 92 79 0a 	sts	0x0A79, r1
    633e:	80 91 e1 00 	lds	r24, 0x00E1
    6342:	8e 7f       	andi	r24, 0xFE	; 254
    6344:	80 93 e1 00 	sts	0x00E1, r24
    6348:	80 91 e2 00 	lds	r24, 0x00E2
    634c:	8e 7f       	andi	r24, 0xFE	; 254
    634e:	80 93 e2 00 	sts	0x00E2, r24
    6352:	80 91 e2 00 	lds	r24, 0x00E2
    6356:	80 61       	ori	r24, 0x10	; 16
    6358:	80 93 e2 00 	sts	0x00E2, r24
    635c:	42 e0       	ldi	r20, 0x02	; 2
    635e:	60 e0       	ldi	r22, 0x00	; 0
    6360:	80 e0       	ldi	r24, 0x00	; 0
    6362:	07 de       	rcall	.-1010   	; 0x5f72 <Endpoint_ConfigureEndpoint_Prv>
    6364:	66 d1       	rcall	.+716    	; 0x6632 <USB_Event_Stub>
    6366:	ff 91       	pop	r31
    6368:	ef 91       	pop	r30
    636a:	bf 91       	pop	r27
    636c:	af 91       	pop	r26
    636e:	9f 91       	pop	r25
    6370:	8f 91       	pop	r24
    6372:	7f 91       	pop	r23
    6374:	6f 91       	pop	r22
    6376:	5f 91       	pop	r21
    6378:	4f 91       	pop	r20
    637a:	3f 91       	pop	r19
    637c:	2f 91       	pop	r18
    637e:	0f 90       	pop	r0
    6380:	0f be       	out	0x3f, r0	; 63
    6382:	0f 90       	pop	r0
    6384:	1f 90       	pop	r1
    6386:	18 95       	reti

00006388 <USB_Device_ProcessControlRequest>:
    6388:	1f 93       	push	r17
    638a:	cf 93       	push	r28
    638c:	df 93       	push	r29
    638e:	cd b7       	in	r28, 0x3d	; 61
    6390:	de b7       	in	r29, 0x3e	; 62
    6392:	aa 97       	sbiw	r28, 0x2a	; 42
    6394:	0f b6       	in	r0, 0x3f	; 63
    6396:	f8 94       	cli
    6398:	de bf       	out	0x3e, r29	; 62
    639a:	0f be       	out	0x3f, r0	; 63
    639c:	cd bf       	out	0x3d, r28	; 61
    639e:	ee e7       	ldi	r30, 0x7E	; 126
    63a0:	fa e0       	ldi	r31, 0x0A	; 10
    63a2:	88 e0       	ldi	r24, 0x08	; 8
    63a4:	8e 0f       	add	r24, r30
    63a6:	90 91 f1 00 	lds	r25, 0x00F1
    63aa:	91 93       	st	Z+, r25
    63ac:	8e 13       	cpse	r24, r30
    63ae:	fb cf       	rjmp	.-10     	; 0x63a6 <USB_Device_ProcessControlRequest+0x1e>
    63b0:	0e 94 e6 23 	call	0x47cc	; 0x47cc <EVENT_USB_Device_ControlRequest>
    63b4:	80 91 e8 00 	lds	r24, 0x00E8
    63b8:	83 ff       	sbrs	r24, 3
    63ba:	23 c1       	rjmp	.+582    	; 0x6602 <USB_Device_ProcessControlRequest+0x27a>
    63bc:	80 91 7e 0a 	lds	r24, 0x0A7E
    63c0:	90 91 7f 0a 	lds	r25, 0x0A7F
    63c4:	95 30       	cpi	r25, 0x05	; 5
    63c6:	09 f4       	brne	.+2      	; 0x63ca <USB_Device_ProcessControlRequest+0x42>
    63c8:	78 c0       	rjmp	.+240    	; 0x64ba <USB_Device_ProcessControlRequest+0x132>
    63ca:	30 f4       	brcc	.+12     	; 0x63d8 <USB_Device_ProcessControlRequest+0x50>
    63cc:	91 30       	cpi	r25, 0x01	; 1
    63ce:	81 f1       	breq	.+96     	; 0x6430 <USB_Device_ProcessControlRequest+0xa8>
    63d0:	68 f0       	brcs	.+26     	; 0x63ec <USB_Device_ProcessControlRequest+0x64>
    63d2:	93 30       	cpi	r25, 0x03	; 3
    63d4:	69 f1       	breq	.+90     	; 0x6430 <USB_Device_ProcessControlRequest+0xa8>
    63d6:	15 c1       	rjmp	.+554    	; 0x6602 <USB_Device_ProcessControlRequest+0x27a>
    63d8:	98 30       	cpi	r25, 0x08	; 8
    63da:	09 f4       	brne	.+2      	; 0x63de <USB_Device_ProcessControlRequest+0x56>
    63dc:	e3 c0       	rjmp	.+454    	; 0x65a4 <USB_Device_ProcessControlRequest+0x21c>
    63de:	99 30       	cpi	r25, 0x09	; 9
    63e0:	09 f4       	brne	.+2      	; 0x63e4 <USB_Device_ProcessControlRequest+0x5c>
    63e2:	f2 c0       	rjmp	.+484    	; 0x65c8 <USB_Device_ProcessControlRequest+0x240>
    63e4:	96 30       	cpi	r25, 0x06	; 6
    63e6:	09 f0       	breq	.+2      	; 0x63ea <USB_Device_ProcessControlRequest+0x62>
    63e8:	0c c1       	rjmp	.+536    	; 0x6602 <USB_Device_ProcessControlRequest+0x27a>
    63ea:	89 c0       	rjmp	.+274    	; 0x64fe <USB_Device_ProcessControlRequest+0x176>
    63ec:	80 38       	cpi	r24, 0x80	; 128
    63ee:	81 f0       	breq	.+32     	; 0x6410 <USB_Device_ProcessControlRequest+0x88>
    63f0:	82 38       	cpi	r24, 0x82	; 130
    63f2:	09 f0       	breq	.+2      	; 0x63f6 <USB_Device_ProcessControlRequest+0x6e>
    63f4:	06 c1       	rjmp	.+524    	; 0x6602 <USB_Device_ProcessControlRequest+0x27a>
    63f6:	80 91 82 0a 	lds	r24, 0x0A82
    63fa:	8f 70       	andi	r24, 0x0F	; 15
    63fc:	80 93 e9 00 	sts	0x00E9, r24
    6400:	80 91 eb 00 	lds	r24, 0x00EB
    6404:	85 fb       	bst	r24, 5
    6406:	88 27       	eor	r24, r24
    6408:	80 f9       	bld	r24, 0
    640a:	10 92 e9 00 	sts	0x00E9, r1
    640e:	06 c0       	rjmp	.+12     	; 0x641c <USB_Device_ProcessControlRequest+0x94>
    6410:	80 91 7a 0a 	lds	r24, 0x0A7A
    6414:	90 91 7b 0a 	lds	r25, 0x0A7B
    6418:	91 11       	cpse	r25, r1
    641a:	82 60       	ori	r24, 0x02	; 2
    641c:	90 91 e8 00 	lds	r25, 0x00E8
    6420:	97 7f       	andi	r25, 0xF7	; 247
    6422:	90 93 e8 00 	sts	0x00E8, r25
    6426:	80 93 f1 00 	sts	0x00F1, r24
    642a:	10 92 f1 00 	sts	0x00F1, r1
    642e:	c5 c0       	rjmp	.+394    	; 0x65ba <USB_Device_ProcessControlRequest+0x232>
    6430:	28 2f       	mov	r18, r24
    6432:	2d 7f       	andi	r18, 0xFD	; 253
    6434:	09 f0       	breq	.+2      	; 0x6438 <USB_Device_ProcessControlRequest+0xb0>
    6436:	e5 c0       	rjmp	.+458    	; 0x6602 <USB_Device_ProcessControlRequest+0x27a>
    6438:	88 23       	and	r24, r24
    643a:	19 f0       	breq	.+6      	; 0x6442 <USB_Device_ProcessControlRequest+0xba>
    643c:	82 30       	cpi	r24, 0x02	; 2
    643e:	61 f0       	breq	.+24     	; 0x6458 <USB_Device_ProcessControlRequest+0xd0>
    6440:	e0 c0       	rjmp	.+448    	; 0x6602 <USB_Device_ProcessControlRequest+0x27a>
    6442:	80 91 80 0a 	lds	r24, 0x0A80
    6446:	81 30       	cpi	r24, 0x01	; 1
    6448:	09 f0       	breq	.+2      	; 0x644c <USB_Device_ProcessControlRequest+0xc4>
    644a:	db c0       	rjmp	.+438    	; 0x6602 <USB_Device_ProcessControlRequest+0x27a>
    644c:	93 30       	cpi	r25, 0x03	; 3
    644e:	09 f0       	breq	.+2      	; 0x6452 <USB_Device_ProcessControlRequest+0xca>
    6450:	80 e0       	ldi	r24, 0x00	; 0
    6452:	80 93 7b 0a 	sts	0x0A7B, r24
    6456:	2b c0       	rjmp	.+86     	; 0x64ae <USB_Device_ProcessControlRequest+0x126>
    6458:	80 91 80 0a 	lds	r24, 0x0A80
    645c:	81 11       	cpse	r24, r1
    645e:	27 c0       	rjmp	.+78     	; 0x64ae <USB_Device_ProcessControlRequest+0x126>
    6460:	80 91 82 0a 	lds	r24, 0x0A82
    6464:	8f 70       	andi	r24, 0x0F	; 15
    6466:	09 f4       	brne	.+2      	; 0x646a <USB_Device_ProcessControlRequest+0xe2>
    6468:	cc c0       	rjmp	.+408    	; 0x6602 <USB_Device_ProcessControlRequest+0x27a>
    646a:	80 93 e9 00 	sts	0x00E9, r24
    646e:	20 91 eb 00 	lds	r18, 0x00EB
    6472:	20 ff       	sbrs	r18, 0
    6474:	1c c0       	rjmp	.+56     	; 0x64ae <USB_Device_ProcessControlRequest+0x126>
    6476:	93 30       	cpi	r25, 0x03	; 3
    6478:	21 f4       	brne	.+8      	; 0x6482 <USB_Device_ProcessControlRequest+0xfa>
    647a:	80 91 eb 00 	lds	r24, 0x00EB
    647e:	80 62       	ori	r24, 0x20	; 32
    6480:	14 c0       	rjmp	.+40     	; 0x64aa <USB_Device_ProcessControlRequest+0x122>
    6482:	90 91 eb 00 	lds	r25, 0x00EB
    6486:	90 61       	ori	r25, 0x10	; 16
    6488:	90 93 eb 00 	sts	0x00EB, r25
    648c:	21 e0       	ldi	r18, 0x01	; 1
    648e:	30 e0       	ldi	r19, 0x00	; 0
    6490:	a9 01       	movw	r20, r18
    6492:	02 c0       	rjmp	.+4      	; 0x6498 <USB_Device_ProcessControlRequest+0x110>
    6494:	44 0f       	add	r20, r20
    6496:	55 1f       	adc	r21, r21
    6498:	8a 95       	dec	r24
    649a:	e2 f7       	brpl	.-8      	; 0x6494 <USB_Device_ProcessControlRequest+0x10c>
    649c:	40 93 ea 00 	sts	0x00EA, r20
    64a0:	10 92 ea 00 	sts	0x00EA, r1
    64a4:	80 91 eb 00 	lds	r24, 0x00EB
    64a8:	88 60       	ori	r24, 0x08	; 8
    64aa:	80 93 eb 00 	sts	0x00EB, r24
    64ae:	10 92 e9 00 	sts	0x00E9, r1
    64b2:	80 91 e8 00 	lds	r24, 0x00E8
    64b6:	87 7f       	andi	r24, 0xF7	; 247
    64b8:	83 c0       	rjmp	.+262    	; 0x65c0 <USB_Device_ProcessControlRequest+0x238>
    64ba:	81 11       	cpse	r24, r1
    64bc:	a2 c0       	rjmp	.+324    	; 0x6602 <USB_Device_ProcessControlRequest+0x27a>
    64be:	10 91 80 0a 	lds	r17, 0x0A80
    64c2:	1f 77       	andi	r17, 0x7F	; 127
    64c4:	80 91 e3 00 	lds	r24, 0x00E3
    64c8:	80 78       	andi	r24, 0x80	; 128
    64ca:	81 2b       	or	r24, r17
    64cc:	80 93 e3 00 	sts	0x00E3, r24
    64d0:	80 91 e8 00 	lds	r24, 0x00E8
    64d4:	87 7f       	andi	r24, 0xF7	; 247
    64d6:	80 93 e8 00 	sts	0x00E8, r24
    64da:	c8 dd       	rcall	.-1136   	; 0x606c <Endpoint_ClearStatusStage>
    64dc:	80 91 e8 00 	lds	r24, 0x00E8
    64e0:	80 ff       	sbrs	r24, 0
    64e2:	fc cf       	rjmp	.-8      	; 0x64dc <USB_Device_ProcessControlRequest+0x154>
    64e4:	80 91 e3 00 	lds	r24, 0x00E3
    64e8:	80 68       	ori	r24, 0x80	; 128
    64ea:	80 93 e3 00 	sts	0x00E3, r24
    64ee:	11 11       	cpse	r17, r1
    64f0:	02 c0       	rjmp	.+4      	; 0x64f6 <USB_Device_ProcessControlRequest+0x16e>
    64f2:	82 e0       	ldi	r24, 0x02	; 2
    64f4:	01 c0       	rjmp	.+2      	; 0x64f8 <USB_Device_ProcessControlRequest+0x170>
    64f6:	83 e0       	ldi	r24, 0x03	; 3
    64f8:	80 93 7d 0a 	sts	0x0A7D, r24
    64fc:	82 c0       	rjmp	.+260    	; 0x6602 <USB_Device_ProcessControlRequest+0x27a>
    64fe:	80 58       	subi	r24, 0x80	; 128
    6500:	82 30       	cpi	r24, 0x02	; 2
    6502:	08 f0       	brcs	.+2      	; 0x6506 <USB_Device_ProcessControlRequest+0x17e>
    6504:	7e c0       	rjmp	.+252    	; 0x6602 <USB_Device_ProcessControlRequest+0x27a>
    6506:	80 91 80 0a 	lds	r24, 0x0A80
    650a:	90 91 81 0a 	lds	r25, 0x0A81
    650e:	8c 3d       	cpi	r24, 0xDC	; 220
    6510:	53 e0       	ldi	r21, 0x03	; 3
    6512:	95 07       	cpc	r25, r21
    6514:	71 f5       	brne	.+92     	; 0x6572 <USB_Device_ProcessControlRequest+0x1ea>
    6516:	83 e0       	ldi	r24, 0x03	; 3
    6518:	8a 83       	std	Y+2, r24	; 0x02
    651a:	8a e2       	ldi	r24, 0x2A	; 42
    651c:	89 83       	std	Y+1, r24	; 0x01
    651e:	4f b7       	in	r20, 0x3f	; 63
    6520:	f8 94       	cli
    6522:	de 01       	movw	r26, r28
    6524:	13 96       	adiw	r26, 0x03	; 3
    6526:	20 e0       	ldi	r18, 0x00	; 0
    6528:	3e e0       	ldi	r19, 0x0E	; 14
    652a:	51 e2       	ldi	r21, 0x21	; 33
    652c:	e3 2f       	mov	r30, r19
    652e:	f0 e0       	ldi	r31, 0x00	; 0
    6530:	50 93 57 00 	sts	0x0057, r21
    6534:	e4 91       	lpm	r30, Z
    6536:	20 ff       	sbrs	r18, 0
    6538:	03 c0       	rjmp	.+6      	; 0x6540 <USB_Device_ProcessControlRequest+0x1b8>
    653a:	e2 95       	swap	r30
    653c:	ef 70       	andi	r30, 0x0F	; 15
    653e:	3f 5f       	subi	r19, 0xFF	; 255
    6540:	ef 70       	andi	r30, 0x0F	; 15
    6542:	8e 2f       	mov	r24, r30
    6544:	90 e0       	ldi	r25, 0x00	; 0
    6546:	ea 30       	cpi	r30, 0x0A	; 10
    6548:	10 f0       	brcs	.+4      	; 0x654e <USB_Device_ProcessControlRequest+0x1c6>
    654a:	c7 96       	adiw	r24, 0x37	; 55
    654c:	01 c0       	rjmp	.+2      	; 0x6550 <USB_Device_ProcessControlRequest+0x1c8>
    654e:	c0 96       	adiw	r24, 0x30	; 48
    6550:	8d 93       	st	X+, r24
    6552:	9d 93       	st	X+, r25
    6554:	2f 5f       	subi	r18, 0xFF	; 255
    6556:	24 31       	cpi	r18, 0x14	; 20
    6558:	49 f7       	brne	.-46     	; 0x652c <USB_Device_ProcessControlRequest+0x1a4>
    655a:	4f bf       	out	0x3f, r20	; 63
    655c:	80 91 e8 00 	lds	r24, 0x00E8
    6560:	87 7f       	andi	r24, 0xF7	; 247
    6562:	80 93 e8 00 	sts	0x00E8, r24
    6566:	6a e2       	ldi	r22, 0x2A	; 42
    6568:	70 e0       	ldi	r23, 0x00	; 0
    656a:	ce 01       	movw	r24, r28
    656c:	01 96       	adiw	r24, 0x01	; 1
    656e:	fd db       	rcall	.-2054   	; 0x5d6a <Endpoint_Write_Control_Stream_LE>
    6570:	13 c0       	rjmp	.+38     	; 0x6598 <USB_Device_ProcessControlRequest+0x210>
    6572:	ae 01       	movw	r20, r28
    6574:	4f 5f       	subi	r20, 0xFF	; 255
    6576:	5f 4f       	sbci	r21, 0xFF	; 255
    6578:	60 91 82 0a 	lds	r22, 0x0A82
    657c:	0e 94 0d 0a 	call	0x141a	; 0x141a <CALLBACK_USB_GetDescriptor>
    6580:	bc 01       	movw	r22, r24
    6582:	89 2b       	or	r24, r25
    6584:	09 f4       	brne	.+2      	; 0x6588 <USB_Device_ProcessControlRequest+0x200>
    6586:	3d c0       	rjmp	.+122    	; 0x6602 <USB_Device_ProcessControlRequest+0x27a>
    6588:	90 91 e8 00 	lds	r25, 0x00E8
    658c:	97 7f       	andi	r25, 0xF7	; 247
    658e:	90 93 e8 00 	sts	0x00E8, r25
    6592:	89 81       	ldd	r24, Y+1	; 0x01
    6594:	9a 81       	ldd	r25, Y+2	; 0x02
    6596:	8c dc       	rcall	.-1768   	; 0x5eb0 <Endpoint_Write_Control_PStream_LE>
    6598:	80 91 e8 00 	lds	r24, 0x00E8
    659c:	8b 77       	andi	r24, 0x7B	; 123
    659e:	80 93 e8 00 	sts	0x00E8, r24
    65a2:	2f c0       	rjmp	.+94     	; 0x6602 <USB_Device_ProcessControlRequest+0x27a>
    65a4:	80 38       	cpi	r24, 0x80	; 128
    65a6:	69 f5       	brne	.+90     	; 0x6602 <USB_Device_ProcessControlRequest+0x27a>
    65a8:	80 91 e8 00 	lds	r24, 0x00E8
    65ac:	87 7f       	andi	r24, 0xF7	; 247
    65ae:	80 93 e8 00 	sts	0x00E8, r24
    65b2:	80 91 79 0a 	lds	r24, 0x0A79
    65b6:	80 93 f1 00 	sts	0x00F1, r24
    65ba:	80 91 e8 00 	lds	r24, 0x00E8
    65be:	8e 77       	andi	r24, 0x7E	; 126
    65c0:	80 93 e8 00 	sts	0x00E8, r24
    65c4:	53 dd       	rcall	.-1370   	; 0x606c <Endpoint_ClearStatusStage>
    65c6:	1d c0       	rjmp	.+58     	; 0x6602 <USB_Device_ProcessControlRequest+0x27a>
    65c8:	81 11       	cpse	r24, r1
    65ca:	1b c0       	rjmp	.+54     	; 0x6602 <USB_Device_ProcessControlRequest+0x27a>
    65cc:	90 91 80 0a 	lds	r25, 0x0A80
    65d0:	92 30       	cpi	r25, 0x02	; 2
    65d2:	b8 f4       	brcc	.+46     	; 0x6602 <USB_Device_ProcessControlRequest+0x27a>
    65d4:	80 91 e8 00 	lds	r24, 0x00E8
    65d8:	87 7f       	andi	r24, 0xF7	; 247
    65da:	80 93 e8 00 	sts	0x00E8, r24
    65de:	90 93 79 0a 	sts	0x0A79, r25
    65e2:	44 dd       	rcall	.-1400   	; 0x606c <Endpoint_ClearStatusStage>
    65e4:	80 91 79 0a 	lds	r24, 0x0A79
    65e8:	81 11       	cpse	r24, r1
    65ea:	06 c0       	rjmp	.+12     	; 0x65f8 <USB_Device_ProcessControlRequest+0x270>
    65ec:	80 91 e3 00 	lds	r24, 0x00E3
    65f0:	87 fd       	sbrc	r24, 7
    65f2:	02 c0       	rjmp	.+4      	; 0x65f8 <USB_Device_ProcessControlRequest+0x270>
    65f4:	81 e0       	ldi	r24, 0x01	; 1
    65f6:	01 c0       	rjmp	.+2      	; 0x65fa <USB_Device_ProcessControlRequest+0x272>
    65f8:	84 e0       	ldi	r24, 0x04	; 4
    65fa:	80 93 7d 0a 	sts	0x0A7D, r24
    65fe:	0e 94 d9 23 	call	0x47b2	; 0x47b2 <EVENT_USB_Device_ConfigurationChanged>
    6602:	80 91 e8 00 	lds	r24, 0x00E8
    6606:	83 ff       	sbrs	r24, 3
    6608:	0a c0       	rjmp	.+20     	; 0x661e <USB_Device_ProcessControlRequest+0x296>
    660a:	80 91 e8 00 	lds	r24, 0x00E8
    660e:	87 7f       	andi	r24, 0xF7	; 247
    6610:	80 93 e8 00 	sts	0x00E8, r24
    6614:	80 91 eb 00 	lds	r24, 0x00EB
    6618:	80 62       	ori	r24, 0x20	; 32
    661a:	80 93 eb 00 	sts	0x00EB, r24
    661e:	aa 96       	adiw	r28, 0x2a	; 42
    6620:	0f b6       	in	r0, 0x3f	; 63
    6622:	f8 94       	cli
    6624:	de bf       	out	0x3e, r29	; 62
    6626:	0f be       	out	0x3f, r0	; 63
    6628:	cd bf       	out	0x3d, r28	; 61
    662a:	df 91       	pop	r29
    662c:	cf 91       	pop	r28
    662e:	1f 91       	pop	r17
    6630:	08 95       	ret

00006632 <USB_Event_Stub>:
    6632:	08 95       	ret

00006634 <USB_USBTask>:
    6634:	cf 93       	push	r28
    6636:	80 91 7d 0a 	lds	r24, 0x0A7D
    663a:	88 23       	and	r24, r24
    663c:	99 f0       	breq	.+38     	; 0x6664 <USB_USBTask+0x30>
    663e:	c0 91 e9 00 	lds	r28, 0x00E9
    6642:	cf 70       	andi	r28, 0x0F	; 15
    6644:	90 91 ec 00 	lds	r25, 0x00EC
    6648:	89 2f       	mov	r24, r25
    664a:	81 70       	andi	r24, 0x01	; 1
    664c:	90 fd       	sbrc	r25, 0
    664e:	80 e8       	ldi	r24, 0x80	; 128
    6650:	c8 2b       	or	r28, r24
    6652:	10 92 e9 00 	sts	0x00E9, r1
    6656:	80 91 e8 00 	lds	r24, 0x00E8
    665a:	83 fd       	sbrc	r24, 3
    665c:	95 de       	rcall	.-726    	; 0x6388 <USB_Device_ProcessControlRequest>
    665e:	cf 70       	andi	r28, 0x0F	; 15
    6660:	c0 93 e9 00 	sts	0x00E9, r28
    6664:	cf 91       	pop	r28
    6666:	08 95       	ret

00006668 <__udivmodqi4>:
    6668:	99 1b       	sub	r25, r25
    666a:	79 e0       	ldi	r23, 0x09	; 9
    666c:	04 c0       	rjmp	.+8      	; 0x6676 <__udivmodqi4_ep>

0000666e <__udivmodqi4_loop>:
    666e:	99 1f       	adc	r25, r25
    6670:	96 17       	cp	r25, r22
    6672:	08 f0       	brcs	.+2      	; 0x6676 <__udivmodqi4_ep>
    6674:	96 1b       	sub	r25, r22

00006676 <__udivmodqi4_ep>:
    6676:	88 1f       	adc	r24, r24
    6678:	7a 95       	dec	r23
    667a:	c9 f7       	brne	.-14     	; 0x666e <__udivmodqi4_loop>
    667c:	80 95       	com	r24
    667e:	08 95       	ret

00006680 <__divmodhi4>:
    6680:	97 fb       	bst	r25, 7
    6682:	07 2e       	mov	r0, r23
    6684:	16 f4       	brtc	.+4      	; 0x668a <__divmodhi4+0xa>
    6686:	00 94       	com	r0
    6688:	06 d0       	rcall	.+12     	; 0x6696 <__divmodhi4_neg1>
    668a:	77 fd       	sbrc	r23, 7
    668c:	08 d0       	rcall	.+16     	; 0x669e <__divmodhi4_neg2>
    668e:	82 d0       	rcall	.+260    	; 0x6794 <__udivmodhi4>
    6690:	07 fc       	sbrc	r0, 7
    6692:	05 d0       	rcall	.+10     	; 0x669e <__divmodhi4_neg2>
    6694:	3e f4       	brtc	.+14     	; 0x66a4 <__divmodhi4_exit>

00006696 <__divmodhi4_neg1>:
    6696:	90 95       	com	r25
    6698:	81 95       	neg	r24
    669a:	9f 4f       	sbci	r25, 0xFF	; 255
    669c:	08 95       	ret

0000669e <__divmodhi4_neg2>:
    669e:	70 95       	com	r23
    66a0:	61 95       	neg	r22
    66a2:	7f 4f       	sbci	r23, 0xFF	; 255

000066a4 <__divmodhi4_exit>:
    66a4:	08 95       	ret

000066a6 <__udivmodsi4>:
    66a6:	a1 e2       	ldi	r26, 0x21	; 33
    66a8:	1a 2e       	mov	r1, r26
    66aa:	aa 1b       	sub	r26, r26
    66ac:	bb 1b       	sub	r27, r27
    66ae:	fd 01       	movw	r30, r26
    66b0:	0d c0       	rjmp	.+26     	; 0x66cc <__udivmodsi4_ep>

000066b2 <__udivmodsi4_loop>:
    66b2:	aa 1f       	adc	r26, r26
    66b4:	bb 1f       	adc	r27, r27
    66b6:	ee 1f       	adc	r30, r30
    66b8:	ff 1f       	adc	r31, r31
    66ba:	a2 17       	cp	r26, r18
    66bc:	b3 07       	cpc	r27, r19
    66be:	e4 07       	cpc	r30, r20
    66c0:	f5 07       	cpc	r31, r21
    66c2:	20 f0       	brcs	.+8      	; 0x66cc <__udivmodsi4_ep>
    66c4:	a2 1b       	sub	r26, r18
    66c6:	b3 0b       	sbc	r27, r19
    66c8:	e4 0b       	sbc	r30, r20
    66ca:	f5 0b       	sbc	r31, r21

000066cc <__udivmodsi4_ep>:
    66cc:	66 1f       	adc	r22, r22
    66ce:	77 1f       	adc	r23, r23
    66d0:	88 1f       	adc	r24, r24
    66d2:	99 1f       	adc	r25, r25
    66d4:	1a 94       	dec	r1
    66d6:	69 f7       	brne	.-38     	; 0x66b2 <__udivmodsi4_loop>
    66d8:	60 95       	com	r22
    66da:	70 95       	com	r23
    66dc:	80 95       	com	r24
    66de:	90 95       	com	r25
    66e0:	9b 01       	movw	r18, r22
    66e2:	ac 01       	movw	r20, r24
    66e4:	bd 01       	movw	r22, r26
    66e6:	cf 01       	movw	r24, r30
    66e8:	08 95       	ret

000066ea <__muluhisi3>:
    66ea:	81 d0       	rcall	.+258    	; 0x67ee <__umulhisi3>
    66ec:	a5 9f       	mul	r26, r21
    66ee:	90 0d       	add	r25, r0
    66f0:	b4 9f       	mul	r27, r20
    66f2:	90 0d       	add	r25, r0
    66f4:	a4 9f       	mul	r26, r20
    66f6:	80 0d       	add	r24, r0
    66f8:	91 1d       	adc	r25, r1
    66fa:	11 24       	eor	r1, r1
    66fc:	08 95       	ret

000066fe <__clzdi2>:
    66fe:	5e d0       	rcall	.+188    	; 0x67bc <__clzsi2>
    6700:	85 ff       	sbrs	r24, 5
    6702:	08 95       	ret
    6704:	b9 01       	movw	r22, r18
    6706:	ca 01       	movw	r24, r20
    6708:	59 d0       	rcall	.+178    	; 0x67bc <__clzsi2>
    670a:	80 5e       	subi	r24, 0xE0	; 224
    670c:	08 95       	ret

0000670e <__ashldi3>:
    670e:	0f 93       	push	r16
    6710:	08 30       	cpi	r16, 0x08	; 8
    6712:	90 f0       	brcs	.+36     	; 0x6738 <__ashldi3+0x2a>
    6714:	98 2f       	mov	r25, r24
    6716:	87 2f       	mov	r24, r23
    6718:	76 2f       	mov	r23, r22
    671a:	65 2f       	mov	r22, r21
    671c:	54 2f       	mov	r21, r20
    671e:	43 2f       	mov	r20, r19
    6720:	32 2f       	mov	r19, r18
    6722:	22 27       	eor	r18, r18
    6724:	08 50       	subi	r16, 0x08	; 8
    6726:	f4 cf       	rjmp	.-24     	; 0x6710 <__ashldi3+0x2>
    6728:	22 0f       	add	r18, r18
    672a:	33 1f       	adc	r19, r19
    672c:	44 1f       	adc	r20, r20
    672e:	55 1f       	adc	r21, r21
    6730:	66 1f       	adc	r22, r22
    6732:	77 1f       	adc	r23, r23
    6734:	88 1f       	adc	r24, r24
    6736:	99 1f       	adc	r25, r25
    6738:	0a 95       	dec	r16
    673a:	b2 f7       	brpl	.-20     	; 0x6728 <__ashldi3+0x1a>
    673c:	0f 91       	pop	r16
    673e:	08 95       	ret

00006740 <__ashrdi3>:
    6740:	97 fb       	bst	r25, 7
    6742:	10 f8       	bld	r1, 0

00006744 <__lshrdi3>:
    6744:	16 94       	lsr	r1
    6746:	00 08       	sbc	r0, r0
    6748:	0f 93       	push	r16
    674a:	08 30       	cpi	r16, 0x08	; 8
    674c:	98 f0       	brcs	.+38     	; 0x6774 <__lshrdi3+0x30>
    674e:	08 50       	subi	r16, 0x08	; 8
    6750:	23 2f       	mov	r18, r19
    6752:	34 2f       	mov	r19, r20
    6754:	45 2f       	mov	r20, r21
    6756:	56 2f       	mov	r21, r22
    6758:	67 2f       	mov	r22, r23
    675a:	78 2f       	mov	r23, r24
    675c:	89 2f       	mov	r24, r25
    675e:	90 2d       	mov	r25, r0
    6760:	f4 cf       	rjmp	.-24     	; 0x674a <__lshrdi3+0x6>
    6762:	05 94       	asr	r0
    6764:	97 95       	ror	r25
    6766:	87 95       	ror	r24
    6768:	77 95       	ror	r23
    676a:	67 95       	ror	r22
    676c:	57 95       	ror	r21
    676e:	47 95       	ror	r20
    6770:	37 95       	ror	r19
    6772:	27 95       	ror	r18
    6774:	0a 95       	dec	r16
    6776:	aa f7       	brpl	.-22     	; 0x6762 <__lshrdi3+0x1e>
    6778:	0f 91       	pop	r16
    677a:	08 95       	ret

0000677c <__cmpdi2_s8>:
    677c:	00 24       	eor	r0, r0
    677e:	a7 fd       	sbrc	r26, 7
    6780:	00 94       	com	r0
    6782:	2a 17       	cp	r18, r26
    6784:	30 05       	cpc	r19, r0
    6786:	40 05       	cpc	r20, r0
    6788:	50 05       	cpc	r21, r0
    678a:	60 05       	cpc	r22, r0
    678c:	70 05       	cpc	r23, r0
    678e:	80 05       	cpc	r24, r0
    6790:	90 05       	cpc	r25, r0
    6792:	08 95       	ret

00006794 <__udivmodhi4>:
    6794:	aa 1b       	sub	r26, r26
    6796:	bb 1b       	sub	r27, r27
    6798:	51 e1       	ldi	r21, 0x11	; 17
    679a:	07 c0       	rjmp	.+14     	; 0x67aa <__udivmodhi4_ep>

0000679c <__udivmodhi4_loop>:
    679c:	aa 1f       	adc	r26, r26
    679e:	bb 1f       	adc	r27, r27
    67a0:	a6 17       	cp	r26, r22
    67a2:	b7 07       	cpc	r27, r23
    67a4:	10 f0       	brcs	.+4      	; 0x67aa <__udivmodhi4_ep>
    67a6:	a6 1b       	sub	r26, r22
    67a8:	b7 0b       	sbc	r27, r23

000067aa <__udivmodhi4_ep>:
    67aa:	88 1f       	adc	r24, r24
    67ac:	99 1f       	adc	r25, r25
    67ae:	5a 95       	dec	r21
    67b0:	a9 f7       	brne	.-22     	; 0x679c <__udivmodhi4_loop>
    67b2:	80 95       	com	r24
    67b4:	90 95       	com	r25
    67b6:	bc 01       	movw	r22, r24
    67b8:	cd 01       	movw	r24, r26
    67ba:	08 95       	ret

000067bc <__clzsi2>:
    67bc:	06 d0       	rcall	.+12     	; 0x67ca <__clzhi2>
    67be:	84 ff       	sbrs	r24, 4
    67c0:	08 95       	ret
    67c2:	cb 01       	movw	r24, r22
    67c4:	02 d0       	rcall	.+4      	; 0x67ca <__clzhi2>
    67c6:	80 5f       	subi	r24, 0xF0	; 240
    67c8:	08 95       	ret

000067ca <__clzhi2>:
    67ca:	aa 27       	eor	r26, r26
    67cc:	99 23       	and	r25, r25
    67ce:	29 f4       	brne	.+10     	; 0x67da <__clzhi2+0x10>
    67d0:	a8 5f       	subi	r26, 0xF8	; 248
    67d2:	98 2b       	or	r25, r24
    67d4:	11 f4       	brne	.+4      	; 0x67da <__clzhi2+0x10>
    67d6:	80 e1       	ldi	r24, 0x10	; 16
    67d8:	08 95       	ret
    67da:	90 31       	cpi	r25, 0x10	; 16
    67dc:	18 f4       	brcc	.+6      	; 0x67e4 <__clzhi2+0x1a>
    67de:	ad 5f       	subi	r26, 0xFD	; 253
    67e0:	92 95       	swap	r25
    67e2:	a3 95       	inc	r26
    67e4:	99 0f       	add	r25, r25
    67e6:	e8 f7       	brcc	.-6      	; 0x67e2 <__clzhi2+0x18>
    67e8:	8a 2f       	mov	r24, r26
    67ea:	99 27       	eor	r25, r25
    67ec:	08 95       	ret

000067ee <__umulhisi3>:
    67ee:	a2 9f       	mul	r26, r18
    67f0:	b0 01       	movw	r22, r0
    67f2:	b3 9f       	mul	r27, r19
    67f4:	c0 01       	movw	r24, r0
    67f6:	a3 9f       	mul	r26, r19
    67f8:	70 0d       	add	r23, r0
    67fa:	81 1d       	adc	r24, r1
    67fc:	11 24       	eor	r1, r1
    67fe:	91 1d       	adc	r25, r1
    6800:	b2 9f       	mul	r27, r18
    6802:	70 0d       	add	r23, r0
    6804:	81 1d       	adc	r24, r1
    6806:	11 24       	eor	r1, r1
    6808:	91 1d       	adc	r25, r1
    680a:	08 95       	ret

0000680c <toupper>:
    680c:	91 11       	cpse	r25, r1
    680e:	08 95       	ret
    6810:	81 56       	subi	r24, 0x61	; 97
    6812:	8a 51       	subi	r24, 0x1A	; 26
    6814:	08 f4       	brcc	.+2      	; 0x6818 <toupper+0xc>
    6816:	80 52       	subi	r24, 0x20	; 32
    6818:	85 58       	subi	r24, 0x85	; 133
    681a:	08 95       	ret

0000681c <strcpy_P>:
    681c:	fb 01       	movw	r30, r22
    681e:	dc 01       	movw	r26, r24
    6820:	05 90       	lpm	r0, Z+
    6822:	0d 92       	st	X+, r0
    6824:	00 20       	and	r0, r0
    6826:	e1 f7       	brne	.-8      	; 0x6820 <strcpy_P+0x4>
    6828:	08 95       	ret

0000682a <strtok>:
    682a:	4e ed       	ldi	r20, 0xDE	; 222
    682c:	53 e0       	ldi	r21, 0x03	; 3
    682e:	24 c0       	rjmp	.+72     	; 0x6878 <strtok_r>

00006830 <memcmp>:
    6830:	fb 01       	movw	r30, r22
    6832:	dc 01       	movw	r26, r24
    6834:	04 c0       	rjmp	.+8      	; 0x683e <memcmp+0xe>
    6836:	8d 91       	ld	r24, X+
    6838:	01 90       	ld	r0, Z+
    683a:	80 19       	sub	r24, r0
    683c:	21 f4       	brne	.+8      	; 0x6846 <memcmp+0x16>
    683e:	41 50       	subi	r20, 0x01	; 1
    6840:	50 40       	sbci	r21, 0x00	; 0
    6842:	c8 f7       	brcc	.-14     	; 0x6836 <memcmp+0x6>
    6844:	88 1b       	sub	r24, r24
    6846:	99 0b       	sbc	r25, r25
    6848:	08 95       	ret

0000684a <memcpy>:
    684a:	fb 01       	movw	r30, r22
    684c:	dc 01       	movw	r26, r24
    684e:	02 c0       	rjmp	.+4      	; 0x6854 <memcpy+0xa>
    6850:	01 90       	ld	r0, Z+
    6852:	0d 92       	st	X+, r0
    6854:	41 50       	subi	r20, 0x01	; 1
    6856:	50 40       	sbci	r21, 0x00	; 0
    6858:	d8 f7       	brcc	.-10     	; 0x6850 <memcpy+0x6>
    685a:	08 95       	ret

0000685c <memset>:
    685c:	dc 01       	movw	r26, r24
    685e:	01 c0       	rjmp	.+2      	; 0x6862 <memset+0x6>
    6860:	6d 93       	st	X+, r22
    6862:	41 50       	subi	r20, 0x01	; 1
    6864:	50 40       	sbci	r21, 0x00	; 0
    6866:	e0 f7       	brcc	.-8      	; 0x6860 <memset+0x4>
    6868:	08 95       	ret

0000686a <strcpy>:
    686a:	fb 01       	movw	r30, r22
    686c:	dc 01       	movw	r26, r24
    686e:	01 90       	ld	r0, Z+
    6870:	0d 92       	st	X+, r0
    6872:	00 20       	and	r0, r0
    6874:	e1 f7       	brne	.-8      	; 0x686e <strcpy+0x4>
    6876:	08 95       	ret

00006878 <strtok_r>:
    6878:	fa 01       	movw	r30, r20
    687a:	a1 91       	ld	r26, Z+
    687c:	b0 81       	ld	r27, Z
    687e:	00 97       	sbiw	r24, 0x00	; 0
    6880:	19 f4       	brne	.+6      	; 0x6888 <strtok_r+0x10>
    6882:	10 97       	sbiw	r26, 0x00	; 0
    6884:	e1 f0       	breq	.+56     	; 0x68be <strtok_r+0x46>
    6886:	cd 01       	movw	r24, r26
    6888:	dc 01       	movw	r26, r24
    688a:	cd 01       	movw	r24, r26
    688c:	0d 90       	ld	r0, X+
    688e:	00 20       	and	r0, r0
    6890:	11 f4       	brne	.+4      	; 0x6896 <strtok_r+0x1e>
    6892:	c0 01       	movw	r24, r0
    6894:	13 c0       	rjmp	.+38     	; 0x68bc <strtok_r+0x44>
    6896:	fb 01       	movw	r30, r22
    6898:	21 91       	ld	r18, Z+
    689a:	22 23       	and	r18, r18
    689c:	19 f0       	breq	.+6      	; 0x68a4 <strtok_r+0x2c>
    689e:	20 15       	cp	r18, r0
    68a0:	d9 f7       	brne	.-10     	; 0x6898 <strtok_r+0x20>
    68a2:	f3 cf       	rjmp	.-26     	; 0x688a <strtok_r+0x12>
    68a4:	fb 01       	movw	r30, r22
    68a6:	21 91       	ld	r18, Z+
    68a8:	20 15       	cp	r18, r0
    68aa:	19 f4       	brne	.+6      	; 0x68b2 <strtok_r+0x3a>
    68ac:	1e 92       	st	-X, r1
    68ae:	11 96       	adiw	r26, 0x01	; 1
    68b0:	06 c0       	rjmp	.+12     	; 0x68be <strtok_r+0x46>
    68b2:	22 23       	and	r18, r18
    68b4:	c1 f7       	brne	.-16     	; 0x68a6 <strtok_r+0x2e>
    68b6:	0d 90       	ld	r0, X+
    68b8:	00 20       	and	r0, r0
    68ba:	a1 f7       	brne	.-24     	; 0x68a4 <strtok_r+0x2c>
    68bc:	d0 01       	movw	r26, r0
    68be:	fa 01       	movw	r30, r20
    68c0:	a1 93       	st	Z+, r26
    68c2:	b0 83       	st	Z, r27
    68c4:	08 95       	ret

000068c6 <sprintf>:
    68c6:	ae e0       	ldi	r26, 0x0E	; 14
    68c8:	b0 e0       	ldi	r27, 0x00	; 0
    68ca:	e8 e6       	ldi	r30, 0x68	; 104
    68cc:	f4 e3       	ldi	r31, 0x34	; 52
    68ce:	e1 c2       	rjmp	.+1474   	; 0x6e92 <__prologue_saves__+0x1c>
    68d0:	0d 89       	ldd	r16, Y+21	; 0x15
    68d2:	1e 89       	ldd	r17, Y+22	; 0x16
    68d4:	86 e0       	ldi	r24, 0x06	; 6
    68d6:	8c 83       	std	Y+4, r24	; 0x04
    68d8:	1a 83       	std	Y+2, r17	; 0x02
    68da:	09 83       	std	Y+1, r16	; 0x01
    68dc:	8f ef       	ldi	r24, 0xFF	; 255
    68de:	9f e7       	ldi	r25, 0x7F	; 127
    68e0:	9e 83       	std	Y+6, r25	; 0x06
    68e2:	8d 83       	std	Y+5, r24	; 0x05
    68e4:	ae 01       	movw	r20, r28
    68e6:	47 5e       	subi	r20, 0xE7	; 231
    68e8:	5f 4f       	sbci	r21, 0xFF	; 255
    68ea:	6f 89       	ldd	r22, Y+23	; 0x17
    68ec:	78 8d       	ldd	r23, Y+24	; 0x18
    68ee:	ce 01       	movw	r24, r28
    68f0:	01 96       	adiw	r24, 0x01	; 1
    68f2:	09 d0       	rcall	.+18     	; 0x6906 <vfprintf>
    68f4:	2f 81       	ldd	r18, Y+7	; 0x07
    68f6:	38 85       	ldd	r19, Y+8	; 0x08
    68f8:	f8 01       	movw	r30, r16
    68fa:	e2 0f       	add	r30, r18
    68fc:	f3 1f       	adc	r31, r19
    68fe:	10 82       	st	Z, r1
    6900:	2e 96       	adiw	r28, 0x0e	; 14
    6902:	e4 e0       	ldi	r30, 0x04	; 4
    6904:	e2 c2       	rjmp	.+1476   	; 0x6eca <__epilogue_restores__+0x1c>

00006906 <vfprintf>:
    6906:	ac e0       	ldi	r26, 0x0C	; 12
    6908:	b0 e0       	ldi	r27, 0x00	; 0
    690a:	e8 e8       	ldi	r30, 0x88	; 136
    690c:	f4 e3       	ldi	r31, 0x34	; 52
    690e:	b3 c2       	rjmp	.+1382   	; 0x6e76 <__prologue_saves__>
    6910:	7c 01       	movw	r14, r24
    6912:	6b 01       	movw	r12, r22
    6914:	8a 01       	movw	r16, r20
    6916:	fc 01       	movw	r30, r24
    6918:	17 82       	std	Z+7, r1	; 0x07
    691a:	16 82       	std	Z+6, r1	; 0x06
    691c:	83 81       	ldd	r24, Z+3	; 0x03
    691e:	81 ff       	sbrs	r24, 1
    6920:	b0 c1       	rjmp	.+864    	; 0x6c82 <vfprintf+0x37c>
    6922:	ce 01       	movw	r24, r28
    6924:	01 96       	adiw	r24, 0x01	; 1
    6926:	4c 01       	movw	r8, r24
    6928:	f7 01       	movw	r30, r14
    692a:	93 81       	ldd	r25, Z+3	; 0x03
    692c:	f6 01       	movw	r30, r12
    692e:	93 fd       	sbrc	r25, 3
    6930:	85 91       	lpm	r24, Z+
    6932:	93 ff       	sbrs	r25, 3
    6934:	81 91       	ld	r24, Z+
    6936:	6f 01       	movw	r12, r30
    6938:	88 23       	and	r24, r24
    693a:	09 f4       	brne	.+2      	; 0x693e <vfprintf+0x38>
    693c:	9e c1       	rjmp	.+828    	; 0x6c7a <vfprintf+0x374>
    693e:	85 32       	cpi	r24, 0x25	; 37
    6940:	39 f4       	brne	.+14     	; 0x6950 <vfprintf+0x4a>
    6942:	93 fd       	sbrc	r25, 3
    6944:	85 91       	lpm	r24, Z+
    6946:	93 ff       	sbrs	r25, 3
    6948:	81 91       	ld	r24, Z+
    694a:	6f 01       	movw	r12, r30
    694c:	85 32       	cpi	r24, 0x25	; 37
    694e:	21 f4       	brne	.+8      	; 0x6958 <vfprintf+0x52>
    6950:	b7 01       	movw	r22, r14
    6952:	90 e0       	ldi	r25, 0x00	; 0
    6954:	b1 d1       	rcall	.+866    	; 0x6cb8 <fputc>
    6956:	e8 cf       	rjmp	.-48     	; 0x6928 <vfprintf+0x22>
    6958:	51 2c       	mov	r5, r1
    695a:	31 2c       	mov	r3, r1
    695c:	20 e0       	ldi	r18, 0x00	; 0
    695e:	20 32       	cpi	r18, 0x20	; 32
    6960:	a0 f4       	brcc	.+40     	; 0x698a <vfprintf+0x84>
    6962:	8b 32       	cpi	r24, 0x2B	; 43
    6964:	69 f0       	breq	.+26     	; 0x6980 <vfprintf+0x7a>
    6966:	30 f4       	brcc	.+12     	; 0x6974 <vfprintf+0x6e>
    6968:	80 32       	cpi	r24, 0x20	; 32
    696a:	59 f0       	breq	.+22     	; 0x6982 <vfprintf+0x7c>
    696c:	83 32       	cpi	r24, 0x23	; 35
    696e:	69 f4       	brne	.+26     	; 0x698a <vfprintf+0x84>
    6970:	20 61       	ori	r18, 0x10	; 16
    6972:	2c c0       	rjmp	.+88     	; 0x69cc <vfprintf+0xc6>
    6974:	8d 32       	cpi	r24, 0x2D	; 45
    6976:	39 f0       	breq	.+14     	; 0x6986 <vfprintf+0x80>
    6978:	80 33       	cpi	r24, 0x30	; 48
    697a:	39 f4       	brne	.+14     	; 0x698a <vfprintf+0x84>
    697c:	21 60       	ori	r18, 0x01	; 1
    697e:	26 c0       	rjmp	.+76     	; 0x69cc <vfprintf+0xc6>
    6980:	22 60       	ori	r18, 0x02	; 2
    6982:	24 60       	ori	r18, 0x04	; 4
    6984:	23 c0       	rjmp	.+70     	; 0x69cc <vfprintf+0xc6>
    6986:	28 60       	ori	r18, 0x08	; 8
    6988:	21 c0       	rjmp	.+66     	; 0x69cc <vfprintf+0xc6>
    698a:	27 fd       	sbrc	r18, 7
    698c:	27 c0       	rjmp	.+78     	; 0x69dc <vfprintf+0xd6>
    698e:	30 ed       	ldi	r19, 0xD0	; 208
    6990:	38 0f       	add	r19, r24
    6992:	3a 30       	cpi	r19, 0x0A	; 10
    6994:	78 f4       	brcc	.+30     	; 0x69b4 <vfprintf+0xae>
    6996:	26 ff       	sbrs	r18, 6
    6998:	06 c0       	rjmp	.+12     	; 0x69a6 <vfprintf+0xa0>
    699a:	fa e0       	ldi	r31, 0x0A	; 10
    699c:	5f 9e       	mul	r5, r31
    699e:	30 0d       	add	r19, r0
    69a0:	11 24       	eor	r1, r1
    69a2:	53 2e       	mov	r5, r19
    69a4:	13 c0       	rjmp	.+38     	; 0x69cc <vfprintf+0xc6>
    69a6:	8a e0       	ldi	r24, 0x0A	; 10
    69a8:	38 9e       	mul	r3, r24
    69aa:	30 0d       	add	r19, r0
    69ac:	11 24       	eor	r1, r1
    69ae:	33 2e       	mov	r3, r19
    69b0:	20 62       	ori	r18, 0x20	; 32
    69b2:	0c c0       	rjmp	.+24     	; 0x69cc <vfprintf+0xc6>
    69b4:	8e 32       	cpi	r24, 0x2E	; 46
    69b6:	21 f4       	brne	.+8      	; 0x69c0 <vfprintf+0xba>
    69b8:	26 fd       	sbrc	r18, 6
    69ba:	5f c1       	rjmp	.+702    	; 0x6c7a <vfprintf+0x374>
    69bc:	20 64       	ori	r18, 0x40	; 64
    69be:	06 c0       	rjmp	.+12     	; 0x69cc <vfprintf+0xc6>
    69c0:	8c 36       	cpi	r24, 0x6C	; 108
    69c2:	11 f4       	brne	.+4      	; 0x69c8 <vfprintf+0xc2>
    69c4:	20 68       	ori	r18, 0x80	; 128
    69c6:	02 c0       	rjmp	.+4      	; 0x69cc <vfprintf+0xc6>
    69c8:	88 36       	cpi	r24, 0x68	; 104
    69ca:	41 f4       	brne	.+16     	; 0x69dc <vfprintf+0xd6>
    69cc:	f6 01       	movw	r30, r12
    69ce:	93 fd       	sbrc	r25, 3
    69d0:	85 91       	lpm	r24, Z+
    69d2:	93 ff       	sbrs	r25, 3
    69d4:	81 91       	ld	r24, Z+
    69d6:	6f 01       	movw	r12, r30
    69d8:	81 11       	cpse	r24, r1
    69da:	c1 cf       	rjmp	.-126    	; 0x695e <vfprintf+0x58>
    69dc:	98 2f       	mov	r25, r24
    69de:	9f 7d       	andi	r25, 0xDF	; 223
    69e0:	95 54       	subi	r25, 0x45	; 69
    69e2:	93 30       	cpi	r25, 0x03	; 3
    69e4:	28 f4       	brcc	.+10     	; 0x69f0 <vfprintf+0xea>
    69e6:	0c 5f       	subi	r16, 0xFC	; 252
    69e8:	1f 4f       	sbci	r17, 0xFF	; 255
    69ea:	ff e3       	ldi	r31, 0x3F	; 63
    69ec:	f9 83       	std	Y+1, r31	; 0x01
    69ee:	0d c0       	rjmp	.+26     	; 0x6a0a <vfprintf+0x104>
    69f0:	83 36       	cpi	r24, 0x63	; 99
    69f2:	31 f0       	breq	.+12     	; 0x6a00 <vfprintf+0xfa>
    69f4:	83 37       	cpi	r24, 0x73	; 115
    69f6:	71 f0       	breq	.+28     	; 0x6a14 <vfprintf+0x10e>
    69f8:	83 35       	cpi	r24, 0x53	; 83
    69fa:	09 f0       	breq	.+2      	; 0x69fe <vfprintf+0xf8>
    69fc:	57 c0       	rjmp	.+174    	; 0x6aac <vfprintf+0x1a6>
    69fe:	21 c0       	rjmp	.+66     	; 0x6a42 <vfprintf+0x13c>
    6a00:	f8 01       	movw	r30, r16
    6a02:	80 81       	ld	r24, Z
    6a04:	89 83       	std	Y+1, r24	; 0x01
    6a06:	0e 5f       	subi	r16, 0xFE	; 254
    6a08:	1f 4f       	sbci	r17, 0xFF	; 255
    6a0a:	44 24       	eor	r4, r4
    6a0c:	43 94       	inc	r4
    6a0e:	51 2c       	mov	r5, r1
    6a10:	54 01       	movw	r10, r8
    6a12:	14 c0       	rjmp	.+40     	; 0x6a3c <vfprintf+0x136>
    6a14:	38 01       	movw	r6, r16
    6a16:	f2 e0       	ldi	r31, 0x02	; 2
    6a18:	6f 0e       	add	r6, r31
    6a1a:	71 1c       	adc	r7, r1
    6a1c:	f8 01       	movw	r30, r16
    6a1e:	a0 80       	ld	r10, Z
    6a20:	b1 80       	ldd	r11, Z+1	; 0x01
    6a22:	26 ff       	sbrs	r18, 6
    6a24:	03 c0       	rjmp	.+6      	; 0x6a2c <vfprintf+0x126>
    6a26:	65 2d       	mov	r22, r5
    6a28:	70 e0       	ldi	r23, 0x00	; 0
    6a2a:	02 c0       	rjmp	.+4      	; 0x6a30 <vfprintf+0x12a>
    6a2c:	6f ef       	ldi	r22, 0xFF	; 255
    6a2e:	7f ef       	ldi	r23, 0xFF	; 255
    6a30:	c5 01       	movw	r24, r10
    6a32:	2c 87       	std	Y+12, r18	; 0x0c
    6a34:	36 d1       	rcall	.+620    	; 0x6ca2 <strnlen>
    6a36:	2c 01       	movw	r4, r24
    6a38:	83 01       	movw	r16, r6
    6a3a:	2c 85       	ldd	r18, Y+12	; 0x0c
    6a3c:	2f 77       	andi	r18, 0x7F	; 127
    6a3e:	22 2e       	mov	r2, r18
    6a40:	16 c0       	rjmp	.+44     	; 0x6a6e <vfprintf+0x168>
    6a42:	38 01       	movw	r6, r16
    6a44:	f2 e0       	ldi	r31, 0x02	; 2
    6a46:	6f 0e       	add	r6, r31
    6a48:	71 1c       	adc	r7, r1
    6a4a:	f8 01       	movw	r30, r16
    6a4c:	a0 80       	ld	r10, Z
    6a4e:	b1 80       	ldd	r11, Z+1	; 0x01
    6a50:	26 ff       	sbrs	r18, 6
    6a52:	03 c0       	rjmp	.+6      	; 0x6a5a <vfprintf+0x154>
    6a54:	65 2d       	mov	r22, r5
    6a56:	70 e0       	ldi	r23, 0x00	; 0
    6a58:	02 c0       	rjmp	.+4      	; 0x6a5e <vfprintf+0x158>
    6a5a:	6f ef       	ldi	r22, 0xFF	; 255
    6a5c:	7f ef       	ldi	r23, 0xFF	; 255
    6a5e:	c5 01       	movw	r24, r10
    6a60:	2c 87       	std	Y+12, r18	; 0x0c
    6a62:	14 d1       	rcall	.+552    	; 0x6c8c <strnlen_P>
    6a64:	2c 01       	movw	r4, r24
    6a66:	2c 85       	ldd	r18, Y+12	; 0x0c
    6a68:	20 68       	ori	r18, 0x80	; 128
    6a6a:	22 2e       	mov	r2, r18
    6a6c:	83 01       	movw	r16, r6
    6a6e:	23 fc       	sbrc	r2, 3
    6a70:	19 c0       	rjmp	.+50     	; 0x6aa4 <vfprintf+0x19e>
    6a72:	83 2d       	mov	r24, r3
    6a74:	90 e0       	ldi	r25, 0x00	; 0
    6a76:	48 16       	cp	r4, r24
    6a78:	59 06       	cpc	r5, r25
    6a7a:	a0 f4       	brcc	.+40     	; 0x6aa4 <vfprintf+0x19e>
    6a7c:	b7 01       	movw	r22, r14
    6a7e:	80 e2       	ldi	r24, 0x20	; 32
    6a80:	90 e0       	ldi	r25, 0x00	; 0
    6a82:	1a d1       	rcall	.+564    	; 0x6cb8 <fputc>
    6a84:	3a 94       	dec	r3
    6a86:	f5 cf       	rjmp	.-22     	; 0x6a72 <vfprintf+0x16c>
    6a88:	f5 01       	movw	r30, r10
    6a8a:	27 fc       	sbrc	r2, 7
    6a8c:	85 91       	lpm	r24, Z+
    6a8e:	27 fe       	sbrs	r2, 7
    6a90:	81 91       	ld	r24, Z+
    6a92:	5f 01       	movw	r10, r30
    6a94:	b7 01       	movw	r22, r14
    6a96:	90 e0       	ldi	r25, 0x00	; 0
    6a98:	0f d1       	rcall	.+542    	; 0x6cb8 <fputc>
    6a9a:	31 10       	cpse	r3, r1
    6a9c:	3a 94       	dec	r3
    6a9e:	f1 e0       	ldi	r31, 0x01	; 1
    6aa0:	4f 1a       	sub	r4, r31
    6aa2:	51 08       	sbc	r5, r1
    6aa4:	41 14       	cp	r4, r1
    6aa6:	51 04       	cpc	r5, r1
    6aa8:	79 f7       	brne	.-34     	; 0x6a88 <vfprintf+0x182>
    6aaa:	de c0       	rjmp	.+444    	; 0x6c68 <vfprintf+0x362>
    6aac:	84 36       	cpi	r24, 0x64	; 100
    6aae:	11 f0       	breq	.+4      	; 0x6ab4 <vfprintf+0x1ae>
    6ab0:	89 36       	cpi	r24, 0x69	; 105
    6ab2:	31 f5       	brne	.+76     	; 0x6b00 <vfprintf+0x1fa>
    6ab4:	f8 01       	movw	r30, r16
    6ab6:	27 ff       	sbrs	r18, 7
    6ab8:	07 c0       	rjmp	.+14     	; 0x6ac8 <vfprintf+0x1c2>
    6aba:	60 81       	ld	r22, Z
    6abc:	71 81       	ldd	r23, Z+1	; 0x01
    6abe:	82 81       	ldd	r24, Z+2	; 0x02
    6ac0:	93 81       	ldd	r25, Z+3	; 0x03
    6ac2:	0c 5f       	subi	r16, 0xFC	; 252
    6ac4:	1f 4f       	sbci	r17, 0xFF	; 255
    6ac6:	08 c0       	rjmp	.+16     	; 0x6ad8 <vfprintf+0x1d2>
    6ac8:	60 81       	ld	r22, Z
    6aca:	71 81       	ldd	r23, Z+1	; 0x01
    6acc:	07 2e       	mov	r0, r23
    6ace:	00 0c       	add	r0, r0
    6ad0:	88 0b       	sbc	r24, r24
    6ad2:	99 0b       	sbc	r25, r25
    6ad4:	0e 5f       	subi	r16, 0xFE	; 254
    6ad6:	1f 4f       	sbci	r17, 0xFF	; 255
    6ad8:	2f 76       	andi	r18, 0x6F	; 111
    6ada:	72 2e       	mov	r7, r18
    6adc:	97 ff       	sbrs	r25, 7
    6ade:	09 c0       	rjmp	.+18     	; 0x6af2 <vfprintf+0x1ec>
    6ae0:	90 95       	com	r25
    6ae2:	80 95       	com	r24
    6ae4:	70 95       	com	r23
    6ae6:	61 95       	neg	r22
    6ae8:	7f 4f       	sbci	r23, 0xFF	; 255
    6aea:	8f 4f       	sbci	r24, 0xFF	; 255
    6aec:	9f 4f       	sbci	r25, 0xFF	; 255
    6aee:	20 68       	ori	r18, 0x80	; 128
    6af0:	72 2e       	mov	r7, r18
    6af2:	2a e0       	ldi	r18, 0x0A	; 10
    6af4:	30 e0       	ldi	r19, 0x00	; 0
    6af6:	a4 01       	movw	r20, r8
    6af8:	17 d1       	rcall	.+558    	; 0x6d28 <__ultoa_invert>
    6afa:	a8 2e       	mov	r10, r24
    6afc:	a8 18       	sub	r10, r8
    6afe:	43 c0       	rjmp	.+134    	; 0x6b86 <vfprintf+0x280>
    6b00:	85 37       	cpi	r24, 0x75	; 117
    6b02:	29 f4       	brne	.+10     	; 0x6b0e <vfprintf+0x208>
    6b04:	2f 7e       	andi	r18, 0xEF	; 239
    6b06:	b2 2e       	mov	r11, r18
    6b08:	2a e0       	ldi	r18, 0x0A	; 10
    6b0a:	30 e0       	ldi	r19, 0x00	; 0
    6b0c:	25 c0       	rjmp	.+74     	; 0x6b58 <vfprintf+0x252>
    6b0e:	f2 2f       	mov	r31, r18
    6b10:	f9 7f       	andi	r31, 0xF9	; 249
    6b12:	bf 2e       	mov	r11, r31
    6b14:	8f 36       	cpi	r24, 0x6F	; 111
    6b16:	c1 f0       	breq	.+48     	; 0x6b48 <vfprintf+0x242>
    6b18:	18 f4       	brcc	.+6      	; 0x6b20 <vfprintf+0x21a>
    6b1a:	88 35       	cpi	r24, 0x58	; 88
    6b1c:	79 f0       	breq	.+30     	; 0x6b3c <vfprintf+0x236>
    6b1e:	ad c0       	rjmp	.+346    	; 0x6c7a <vfprintf+0x374>
    6b20:	80 37       	cpi	r24, 0x70	; 112
    6b22:	19 f0       	breq	.+6      	; 0x6b2a <vfprintf+0x224>
    6b24:	88 37       	cpi	r24, 0x78	; 120
    6b26:	21 f0       	breq	.+8      	; 0x6b30 <vfprintf+0x22a>
    6b28:	a8 c0       	rjmp	.+336    	; 0x6c7a <vfprintf+0x374>
    6b2a:	2f 2f       	mov	r18, r31
    6b2c:	20 61       	ori	r18, 0x10	; 16
    6b2e:	b2 2e       	mov	r11, r18
    6b30:	b4 fe       	sbrs	r11, 4
    6b32:	0d c0       	rjmp	.+26     	; 0x6b4e <vfprintf+0x248>
    6b34:	8b 2d       	mov	r24, r11
    6b36:	84 60       	ori	r24, 0x04	; 4
    6b38:	b8 2e       	mov	r11, r24
    6b3a:	09 c0       	rjmp	.+18     	; 0x6b4e <vfprintf+0x248>
    6b3c:	24 ff       	sbrs	r18, 4
    6b3e:	0a c0       	rjmp	.+20     	; 0x6b54 <vfprintf+0x24e>
    6b40:	9f 2f       	mov	r25, r31
    6b42:	96 60       	ori	r25, 0x06	; 6
    6b44:	b9 2e       	mov	r11, r25
    6b46:	06 c0       	rjmp	.+12     	; 0x6b54 <vfprintf+0x24e>
    6b48:	28 e0       	ldi	r18, 0x08	; 8
    6b4a:	30 e0       	ldi	r19, 0x00	; 0
    6b4c:	05 c0       	rjmp	.+10     	; 0x6b58 <vfprintf+0x252>
    6b4e:	20 e1       	ldi	r18, 0x10	; 16
    6b50:	30 e0       	ldi	r19, 0x00	; 0
    6b52:	02 c0       	rjmp	.+4      	; 0x6b58 <vfprintf+0x252>
    6b54:	20 e1       	ldi	r18, 0x10	; 16
    6b56:	32 e0       	ldi	r19, 0x02	; 2
    6b58:	f8 01       	movw	r30, r16
    6b5a:	b7 fe       	sbrs	r11, 7
    6b5c:	07 c0       	rjmp	.+14     	; 0x6b6c <vfprintf+0x266>
    6b5e:	60 81       	ld	r22, Z
    6b60:	71 81       	ldd	r23, Z+1	; 0x01
    6b62:	82 81       	ldd	r24, Z+2	; 0x02
    6b64:	93 81       	ldd	r25, Z+3	; 0x03
    6b66:	0c 5f       	subi	r16, 0xFC	; 252
    6b68:	1f 4f       	sbci	r17, 0xFF	; 255
    6b6a:	06 c0       	rjmp	.+12     	; 0x6b78 <vfprintf+0x272>
    6b6c:	60 81       	ld	r22, Z
    6b6e:	71 81       	ldd	r23, Z+1	; 0x01
    6b70:	80 e0       	ldi	r24, 0x00	; 0
    6b72:	90 e0       	ldi	r25, 0x00	; 0
    6b74:	0e 5f       	subi	r16, 0xFE	; 254
    6b76:	1f 4f       	sbci	r17, 0xFF	; 255
    6b78:	a4 01       	movw	r20, r8
    6b7a:	d6 d0       	rcall	.+428    	; 0x6d28 <__ultoa_invert>
    6b7c:	a8 2e       	mov	r10, r24
    6b7e:	a8 18       	sub	r10, r8
    6b80:	fb 2d       	mov	r31, r11
    6b82:	ff 77       	andi	r31, 0x7F	; 127
    6b84:	7f 2e       	mov	r7, r31
    6b86:	76 fe       	sbrs	r7, 6
    6b88:	0b c0       	rjmp	.+22     	; 0x6ba0 <vfprintf+0x29a>
    6b8a:	37 2d       	mov	r19, r7
    6b8c:	3e 7f       	andi	r19, 0xFE	; 254
    6b8e:	a5 14       	cp	r10, r5
    6b90:	50 f4       	brcc	.+20     	; 0x6ba6 <vfprintf+0x2a0>
    6b92:	74 fe       	sbrs	r7, 4
    6b94:	0a c0       	rjmp	.+20     	; 0x6baa <vfprintf+0x2a4>
    6b96:	72 fc       	sbrc	r7, 2
    6b98:	08 c0       	rjmp	.+16     	; 0x6baa <vfprintf+0x2a4>
    6b9a:	37 2d       	mov	r19, r7
    6b9c:	3e 7e       	andi	r19, 0xEE	; 238
    6b9e:	05 c0       	rjmp	.+10     	; 0x6baa <vfprintf+0x2a4>
    6ba0:	ba 2c       	mov	r11, r10
    6ba2:	37 2d       	mov	r19, r7
    6ba4:	03 c0       	rjmp	.+6      	; 0x6bac <vfprintf+0x2a6>
    6ba6:	ba 2c       	mov	r11, r10
    6ba8:	01 c0       	rjmp	.+2      	; 0x6bac <vfprintf+0x2a6>
    6baa:	b5 2c       	mov	r11, r5
    6bac:	34 ff       	sbrs	r19, 4
    6bae:	0d c0       	rjmp	.+26     	; 0x6bca <vfprintf+0x2c4>
    6bb0:	fe 01       	movw	r30, r28
    6bb2:	ea 0d       	add	r30, r10
    6bb4:	f1 1d       	adc	r31, r1
    6bb6:	80 81       	ld	r24, Z
    6bb8:	80 33       	cpi	r24, 0x30	; 48
    6bba:	11 f4       	brne	.+4      	; 0x6bc0 <vfprintf+0x2ba>
    6bbc:	39 7e       	andi	r19, 0xE9	; 233
    6bbe:	09 c0       	rjmp	.+18     	; 0x6bd2 <vfprintf+0x2cc>
    6bc0:	32 ff       	sbrs	r19, 2
    6bc2:	06 c0       	rjmp	.+12     	; 0x6bd0 <vfprintf+0x2ca>
    6bc4:	b3 94       	inc	r11
    6bc6:	b3 94       	inc	r11
    6bc8:	04 c0       	rjmp	.+8      	; 0x6bd2 <vfprintf+0x2cc>
    6bca:	83 2f       	mov	r24, r19
    6bcc:	86 78       	andi	r24, 0x86	; 134
    6bce:	09 f0       	breq	.+2      	; 0x6bd2 <vfprintf+0x2cc>
    6bd0:	b3 94       	inc	r11
    6bd2:	33 fd       	sbrc	r19, 3
    6bd4:	12 c0       	rjmp	.+36     	; 0x6bfa <vfprintf+0x2f4>
    6bd6:	30 ff       	sbrs	r19, 0
    6bd8:	06 c0       	rjmp	.+12     	; 0x6be6 <vfprintf+0x2e0>
    6bda:	5a 2c       	mov	r5, r10
    6bdc:	b3 14       	cp	r11, r3
    6bde:	18 f4       	brcc	.+6      	; 0x6be6 <vfprintf+0x2e0>
    6be0:	53 0c       	add	r5, r3
    6be2:	5b 18       	sub	r5, r11
    6be4:	b3 2c       	mov	r11, r3
    6be6:	b3 14       	cp	r11, r3
    6be8:	60 f4       	brcc	.+24     	; 0x6c02 <vfprintf+0x2fc>
    6bea:	b7 01       	movw	r22, r14
    6bec:	80 e2       	ldi	r24, 0x20	; 32
    6bee:	90 e0       	ldi	r25, 0x00	; 0
    6bf0:	3c 87       	std	Y+12, r19	; 0x0c
    6bf2:	62 d0       	rcall	.+196    	; 0x6cb8 <fputc>
    6bf4:	b3 94       	inc	r11
    6bf6:	3c 85       	ldd	r19, Y+12	; 0x0c
    6bf8:	f6 cf       	rjmp	.-20     	; 0x6be6 <vfprintf+0x2e0>
    6bfa:	b3 14       	cp	r11, r3
    6bfc:	10 f4       	brcc	.+4      	; 0x6c02 <vfprintf+0x2fc>
    6bfe:	3b 18       	sub	r3, r11
    6c00:	01 c0       	rjmp	.+2      	; 0x6c04 <vfprintf+0x2fe>
    6c02:	31 2c       	mov	r3, r1
    6c04:	34 ff       	sbrs	r19, 4
    6c06:	11 c0       	rjmp	.+34     	; 0x6c2a <vfprintf+0x324>
    6c08:	b7 01       	movw	r22, r14
    6c0a:	80 e3       	ldi	r24, 0x30	; 48
    6c0c:	90 e0       	ldi	r25, 0x00	; 0
    6c0e:	3c 87       	std	Y+12, r19	; 0x0c
    6c10:	53 d0       	rcall	.+166    	; 0x6cb8 <fputc>
    6c12:	3c 85       	ldd	r19, Y+12	; 0x0c
    6c14:	32 ff       	sbrs	r19, 2
    6c16:	16 c0       	rjmp	.+44     	; 0x6c44 <vfprintf+0x33e>
    6c18:	31 fd       	sbrc	r19, 1
    6c1a:	03 c0       	rjmp	.+6      	; 0x6c22 <vfprintf+0x31c>
    6c1c:	88 e7       	ldi	r24, 0x78	; 120
    6c1e:	90 e0       	ldi	r25, 0x00	; 0
    6c20:	02 c0       	rjmp	.+4      	; 0x6c26 <vfprintf+0x320>
    6c22:	88 e5       	ldi	r24, 0x58	; 88
    6c24:	90 e0       	ldi	r25, 0x00	; 0
    6c26:	b7 01       	movw	r22, r14
    6c28:	0c c0       	rjmp	.+24     	; 0x6c42 <vfprintf+0x33c>
    6c2a:	83 2f       	mov	r24, r19
    6c2c:	86 78       	andi	r24, 0x86	; 134
    6c2e:	51 f0       	breq	.+20     	; 0x6c44 <vfprintf+0x33e>
    6c30:	31 ff       	sbrs	r19, 1
    6c32:	02 c0       	rjmp	.+4      	; 0x6c38 <vfprintf+0x332>
    6c34:	8b e2       	ldi	r24, 0x2B	; 43
    6c36:	01 c0       	rjmp	.+2      	; 0x6c3a <vfprintf+0x334>
    6c38:	80 e2       	ldi	r24, 0x20	; 32
    6c3a:	37 fd       	sbrc	r19, 7
    6c3c:	8d e2       	ldi	r24, 0x2D	; 45
    6c3e:	b7 01       	movw	r22, r14
    6c40:	90 e0       	ldi	r25, 0x00	; 0
    6c42:	3a d0       	rcall	.+116    	; 0x6cb8 <fputc>
    6c44:	a5 14       	cp	r10, r5
    6c46:	30 f4       	brcc	.+12     	; 0x6c54 <vfprintf+0x34e>
    6c48:	b7 01       	movw	r22, r14
    6c4a:	80 e3       	ldi	r24, 0x30	; 48
    6c4c:	90 e0       	ldi	r25, 0x00	; 0
    6c4e:	34 d0       	rcall	.+104    	; 0x6cb8 <fputc>
    6c50:	5a 94       	dec	r5
    6c52:	f8 cf       	rjmp	.-16     	; 0x6c44 <vfprintf+0x33e>
    6c54:	aa 94       	dec	r10
    6c56:	f4 01       	movw	r30, r8
    6c58:	ea 0d       	add	r30, r10
    6c5a:	f1 1d       	adc	r31, r1
    6c5c:	80 81       	ld	r24, Z
    6c5e:	b7 01       	movw	r22, r14
    6c60:	90 e0       	ldi	r25, 0x00	; 0
    6c62:	2a d0       	rcall	.+84     	; 0x6cb8 <fputc>
    6c64:	a1 10       	cpse	r10, r1
    6c66:	f6 cf       	rjmp	.-20     	; 0x6c54 <vfprintf+0x34e>
    6c68:	33 20       	and	r3, r3
    6c6a:	09 f4       	brne	.+2      	; 0x6c6e <vfprintf+0x368>
    6c6c:	5d ce       	rjmp	.-838    	; 0x6928 <vfprintf+0x22>
    6c6e:	b7 01       	movw	r22, r14
    6c70:	80 e2       	ldi	r24, 0x20	; 32
    6c72:	90 e0       	ldi	r25, 0x00	; 0
    6c74:	21 d0       	rcall	.+66     	; 0x6cb8 <fputc>
    6c76:	3a 94       	dec	r3
    6c78:	f7 cf       	rjmp	.-18     	; 0x6c68 <vfprintf+0x362>
    6c7a:	f7 01       	movw	r30, r14
    6c7c:	86 81       	ldd	r24, Z+6	; 0x06
    6c7e:	97 81       	ldd	r25, Z+7	; 0x07
    6c80:	02 c0       	rjmp	.+4      	; 0x6c86 <vfprintf+0x380>
    6c82:	8f ef       	ldi	r24, 0xFF	; 255
    6c84:	9f ef       	ldi	r25, 0xFF	; 255
    6c86:	2c 96       	adiw	r28, 0x0c	; 12
    6c88:	e2 e1       	ldi	r30, 0x12	; 18
    6c8a:	11 c1       	rjmp	.+546    	; 0x6eae <__epilogue_restores__>

00006c8c <strnlen_P>:
    6c8c:	fc 01       	movw	r30, r24
    6c8e:	05 90       	lpm	r0, Z+
    6c90:	61 50       	subi	r22, 0x01	; 1
    6c92:	70 40       	sbci	r23, 0x00	; 0
    6c94:	01 10       	cpse	r0, r1
    6c96:	d8 f7       	brcc	.-10     	; 0x6c8e <strnlen_P+0x2>
    6c98:	80 95       	com	r24
    6c9a:	90 95       	com	r25
    6c9c:	8e 0f       	add	r24, r30
    6c9e:	9f 1f       	adc	r25, r31
    6ca0:	08 95       	ret

00006ca2 <strnlen>:
    6ca2:	fc 01       	movw	r30, r24
    6ca4:	61 50       	subi	r22, 0x01	; 1
    6ca6:	70 40       	sbci	r23, 0x00	; 0
    6ca8:	01 90       	ld	r0, Z+
    6caa:	01 10       	cpse	r0, r1
    6cac:	d8 f7       	brcc	.-10     	; 0x6ca4 <strnlen+0x2>
    6cae:	80 95       	com	r24
    6cb0:	90 95       	com	r25
    6cb2:	8e 0f       	add	r24, r30
    6cb4:	9f 1f       	adc	r25, r31
    6cb6:	08 95       	ret

00006cb8 <fputc>:
    6cb8:	0f 93       	push	r16
    6cba:	1f 93       	push	r17
    6cbc:	cf 93       	push	r28
    6cbe:	df 93       	push	r29
    6cc0:	fb 01       	movw	r30, r22
    6cc2:	23 81       	ldd	r18, Z+3	; 0x03
    6cc4:	21 fd       	sbrc	r18, 1
    6cc6:	03 c0       	rjmp	.+6      	; 0x6cce <fputc+0x16>
    6cc8:	8f ef       	ldi	r24, 0xFF	; 255
    6cca:	9f ef       	ldi	r25, 0xFF	; 255
    6ccc:	28 c0       	rjmp	.+80     	; 0x6d1e <fputc+0x66>
    6cce:	22 ff       	sbrs	r18, 2
    6cd0:	16 c0       	rjmp	.+44     	; 0x6cfe <fputc+0x46>
    6cd2:	46 81       	ldd	r20, Z+6	; 0x06
    6cd4:	57 81       	ldd	r21, Z+7	; 0x07
    6cd6:	24 81       	ldd	r18, Z+4	; 0x04
    6cd8:	35 81       	ldd	r19, Z+5	; 0x05
    6cda:	42 17       	cp	r20, r18
    6cdc:	53 07       	cpc	r21, r19
    6cde:	44 f4       	brge	.+16     	; 0x6cf0 <fputc+0x38>
    6ce0:	a0 81       	ld	r26, Z
    6ce2:	b1 81       	ldd	r27, Z+1	; 0x01
    6ce4:	9d 01       	movw	r18, r26
    6ce6:	2f 5f       	subi	r18, 0xFF	; 255
    6ce8:	3f 4f       	sbci	r19, 0xFF	; 255
    6cea:	31 83       	std	Z+1, r19	; 0x01
    6cec:	20 83       	st	Z, r18
    6cee:	8c 93       	st	X, r24
    6cf0:	26 81       	ldd	r18, Z+6	; 0x06
    6cf2:	37 81       	ldd	r19, Z+7	; 0x07
    6cf4:	2f 5f       	subi	r18, 0xFF	; 255
    6cf6:	3f 4f       	sbci	r19, 0xFF	; 255
    6cf8:	37 83       	std	Z+7, r19	; 0x07
    6cfa:	26 83       	std	Z+6, r18	; 0x06
    6cfc:	10 c0       	rjmp	.+32     	; 0x6d1e <fputc+0x66>
    6cfe:	eb 01       	movw	r28, r22
    6d00:	09 2f       	mov	r16, r25
    6d02:	18 2f       	mov	r17, r24
    6d04:	00 84       	ldd	r0, Z+8	; 0x08
    6d06:	f1 85       	ldd	r31, Z+9	; 0x09
    6d08:	e0 2d       	mov	r30, r0
    6d0a:	09 95       	icall
    6d0c:	89 2b       	or	r24, r25
    6d0e:	e1 f6       	brne	.-72     	; 0x6cc8 <fputc+0x10>
    6d10:	8e 81       	ldd	r24, Y+6	; 0x06
    6d12:	9f 81       	ldd	r25, Y+7	; 0x07
    6d14:	01 96       	adiw	r24, 0x01	; 1
    6d16:	9f 83       	std	Y+7, r25	; 0x07
    6d18:	8e 83       	std	Y+6, r24	; 0x06
    6d1a:	81 2f       	mov	r24, r17
    6d1c:	90 2f       	mov	r25, r16
    6d1e:	df 91       	pop	r29
    6d20:	cf 91       	pop	r28
    6d22:	1f 91       	pop	r17
    6d24:	0f 91       	pop	r16
    6d26:	08 95       	ret

00006d28 <__ultoa_invert>:
    6d28:	fa 01       	movw	r30, r20
    6d2a:	aa 27       	eor	r26, r26
    6d2c:	28 30       	cpi	r18, 0x08	; 8
    6d2e:	51 f1       	breq	.+84     	; 0x6d84 <__ultoa_invert+0x5c>
    6d30:	20 31       	cpi	r18, 0x10	; 16
    6d32:	81 f1       	breq	.+96     	; 0x6d94 <__ultoa_invert+0x6c>
    6d34:	e8 94       	clt
    6d36:	6f 93       	push	r22
    6d38:	6e 7f       	andi	r22, 0xFE	; 254
    6d3a:	6e 5f       	subi	r22, 0xFE	; 254
    6d3c:	7f 4f       	sbci	r23, 0xFF	; 255
    6d3e:	8f 4f       	sbci	r24, 0xFF	; 255
    6d40:	9f 4f       	sbci	r25, 0xFF	; 255
    6d42:	af 4f       	sbci	r26, 0xFF	; 255
    6d44:	b1 e0       	ldi	r27, 0x01	; 1
    6d46:	3e d0       	rcall	.+124    	; 0x6dc4 <__ultoa_invert+0x9c>
    6d48:	b4 e0       	ldi	r27, 0x04	; 4
    6d4a:	3c d0       	rcall	.+120    	; 0x6dc4 <__ultoa_invert+0x9c>
    6d4c:	67 0f       	add	r22, r23
    6d4e:	78 1f       	adc	r23, r24
    6d50:	89 1f       	adc	r24, r25
    6d52:	9a 1f       	adc	r25, r26
    6d54:	a1 1d       	adc	r26, r1
    6d56:	68 0f       	add	r22, r24
    6d58:	79 1f       	adc	r23, r25
    6d5a:	8a 1f       	adc	r24, r26
    6d5c:	91 1d       	adc	r25, r1
    6d5e:	a1 1d       	adc	r26, r1
    6d60:	6a 0f       	add	r22, r26
    6d62:	71 1d       	adc	r23, r1
    6d64:	81 1d       	adc	r24, r1
    6d66:	91 1d       	adc	r25, r1
    6d68:	a1 1d       	adc	r26, r1
    6d6a:	20 d0       	rcall	.+64     	; 0x6dac <__ultoa_invert+0x84>
    6d6c:	09 f4       	brne	.+2      	; 0x6d70 <__ultoa_invert+0x48>
    6d6e:	68 94       	set
    6d70:	3f 91       	pop	r19
    6d72:	2a e0       	ldi	r18, 0x0A	; 10
    6d74:	26 9f       	mul	r18, r22
    6d76:	11 24       	eor	r1, r1
    6d78:	30 19       	sub	r19, r0
    6d7a:	30 5d       	subi	r19, 0xD0	; 208
    6d7c:	31 93       	st	Z+, r19
    6d7e:	de f6       	brtc	.-74     	; 0x6d36 <__ultoa_invert+0xe>
    6d80:	cf 01       	movw	r24, r30
    6d82:	08 95       	ret
    6d84:	46 2f       	mov	r20, r22
    6d86:	47 70       	andi	r20, 0x07	; 7
    6d88:	40 5d       	subi	r20, 0xD0	; 208
    6d8a:	41 93       	st	Z+, r20
    6d8c:	b3 e0       	ldi	r27, 0x03	; 3
    6d8e:	0f d0       	rcall	.+30     	; 0x6dae <__ultoa_invert+0x86>
    6d90:	c9 f7       	brne	.-14     	; 0x6d84 <__ultoa_invert+0x5c>
    6d92:	f6 cf       	rjmp	.-20     	; 0x6d80 <__ultoa_invert+0x58>
    6d94:	46 2f       	mov	r20, r22
    6d96:	4f 70       	andi	r20, 0x0F	; 15
    6d98:	40 5d       	subi	r20, 0xD0	; 208
    6d9a:	4a 33       	cpi	r20, 0x3A	; 58
    6d9c:	18 f0       	brcs	.+6      	; 0x6da4 <__ultoa_invert+0x7c>
    6d9e:	49 5d       	subi	r20, 0xD9	; 217
    6da0:	31 fd       	sbrc	r19, 1
    6da2:	40 52       	subi	r20, 0x20	; 32
    6da4:	41 93       	st	Z+, r20
    6da6:	02 d0       	rcall	.+4      	; 0x6dac <__ultoa_invert+0x84>
    6da8:	a9 f7       	brne	.-22     	; 0x6d94 <__ultoa_invert+0x6c>
    6daa:	ea cf       	rjmp	.-44     	; 0x6d80 <__ultoa_invert+0x58>
    6dac:	b4 e0       	ldi	r27, 0x04	; 4
    6dae:	a6 95       	lsr	r26
    6db0:	97 95       	ror	r25
    6db2:	87 95       	ror	r24
    6db4:	77 95       	ror	r23
    6db6:	67 95       	ror	r22
    6db8:	ba 95       	dec	r27
    6dba:	c9 f7       	brne	.-14     	; 0x6dae <__ultoa_invert+0x86>
    6dbc:	00 97       	sbiw	r24, 0x00	; 0
    6dbe:	61 05       	cpc	r22, r1
    6dc0:	71 05       	cpc	r23, r1
    6dc2:	08 95       	ret
    6dc4:	9b 01       	movw	r18, r22
    6dc6:	ac 01       	movw	r20, r24
    6dc8:	0a 2e       	mov	r0, r26
    6dca:	06 94       	lsr	r0
    6dcc:	57 95       	ror	r21
    6dce:	47 95       	ror	r20
    6dd0:	37 95       	ror	r19
    6dd2:	27 95       	ror	r18
    6dd4:	ba 95       	dec	r27
    6dd6:	c9 f7       	brne	.-14     	; 0x6dca <__ultoa_invert+0xa2>
    6dd8:	62 0f       	add	r22, r18
    6dda:	73 1f       	adc	r23, r19
    6ddc:	84 1f       	adc	r24, r20
    6dde:	95 1f       	adc	r25, r21
    6de0:	a0 1d       	adc	r26, r0
    6de2:	08 95       	ret

00006de4 <eeprom_read_block>:
    6de4:	dc 01       	movw	r26, r24
    6de6:	cb 01       	movw	r24, r22

00006de8 <eeprom_read_blraw>:
    6de8:	fc 01       	movw	r30, r24
    6dea:	f9 99       	sbic	0x1f, 1	; 31
    6dec:	fe cf       	rjmp	.-4      	; 0x6dea <eeprom_read_blraw+0x2>
    6dee:	06 c0       	rjmp	.+12     	; 0x6dfc <eeprom_read_blraw+0x14>
    6df0:	f2 bd       	out	0x22, r31	; 34
    6df2:	e1 bd       	out	0x21, r30	; 33
    6df4:	f8 9a       	sbi	0x1f, 0	; 31
    6df6:	31 96       	adiw	r30, 0x01	; 1
    6df8:	00 b4       	in	r0, 0x20	; 32
    6dfa:	0d 92       	st	X+, r0
    6dfc:	41 50       	subi	r20, 0x01	; 1
    6dfe:	50 40       	sbci	r21, 0x00	; 0
    6e00:	b8 f7       	brcc	.-18     	; 0x6df0 <eeprom_read_blraw+0x8>
    6e02:	08 95       	ret

00006e04 <eeprom_read_byte>:
    6e04:	f9 99       	sbic	0x1f, 1	; 31
    6e06:	fe cf       	rjmp	.-4      	; 0x6e04 <eeprom_read_byte>
    6e08:	92 bd       	out	0x22, r25	; 34
    6e0a:	81 bd       	out	0x21, r24	; 33
    6e0c:	f8 9a       	sbi	0x1f, 0	; 31
    6e0e:	99 27       	eor	r25, r25
    6e10:	80 b5       	in	r24, 0x20	; 32
    6e12:	08 95       	ret

00006e14 <eeprom_read_word>:
    6e14:	a8 e1       	ldi	r26, 0x18	; 24
    6e16:	b0 e0       	ldi	r27, 0x00	; 0
    6e18:	42 e0       	ldi	r20, 0x02	; 2
    6e1a:	50 e0       	ldi	r21, 0x00	; 0
    6e1c:	e5 cf       	rjmp	.-54     	; 0x6de8 <eeprom_read_blraw>

00006e1e <eeprom_update_byte>:
    6e1e:	26 2f       	mov	r18, r22

00006e20 <eeprom_update_r18>:
    6e20:	f9 99       	sbic	0x1f, 1	; 31
    6e22:	fe cf       	rjmp	.-4      	; 0x6e20 <eeprom_update_r18>
    6e24:	92 bd       	out	0x22, r25	; 34
    6e26:	81 bd       	out	0x21, r24	; 33
    6e28:	f8 9a       	sbi	0x1f, 0	; 31
    6e2a:	01 97       	sbiw	r24, 0x01	; 1
    6e2c:	00 b4       	in	r0, 0x20	; 32
    6e2e:	02 16       	cp	r0, r18
    6e30:	39 f0       	breq	.+14     	; 0x6e40 <eeprom_update_r18+0x20>
    6e32:	1f ba       	out	0x1f, r1	; 31
    6e34:	20 bd       	out	0x20, r18	; 32
    6e36:	0f b6       	in	r0, 0x3f	; 63
    6e38:	f8 94       	cli
    6e3a:	fa 9a       	sbi	0x1f, 2	; 31
    6e3c:	f9 9a       	sbi	0x1f, 1	; 31
    6e3e:	0f be       	out	0x3f, r0	; 63
    6e40:	08 95       	ret

00006e42 <eeprom_write_block>:
    6e42:	dc 01       	movw	r26, r24
    6e44:	cb 01       	movw	r24, r22
    6e46:	02 c0       	rjmp	.+4      	; 0x6e4c <eeprom_write_block+0xa>
    6e48:	2d 91       	ld	r18, X+
    6e4a:	05 d0       	rcall	.+10     	; 0x6e56 <eeprom_write_r18>
    6e4c:	41 50       	subi	r20, 0x01	; 1
    6e4e:	50 40       	sbci	r21, 0x00	; 0
    6e50:	d8 f7       	brcc	.-10     	; 0x6e48 <eeprom_write_block+0x6>
    6e52:	08 95       	ret

00006e54 <eeprom_write_byte>:
    6e54:	26 2f       	mov	r18, r22

00006e56 <eeprom_write_r18>:
    6e56:	f9 99       	sbic	0x1f, 1	; 31
    6e58:	fe cf       	rjmp	.-4      	; 0x6e56 <eeprom_write_r18>
    6e5a:	1f ba       	out	0x1f, r1	; 31
    6e5c:	92 bd       	out	0x22, r25	; 34
    6e5e:	81 bd       	out	0x21, r24	; 33
    6e60:	20 bd       	out	0x20, r18	; 32
    6e62:	0f b6       	in	r0, 0x3f	; 63
    6e64:	f8 94       	cli
    6e66:	fa 9a       	sbi	0x1f, 2	; 31
    6e68:	f9 9a       	sbi	0x1f, 1	; 31
    6e6a:	0f be       	out	0x3f, r0	; 63
    6e6c:	01 96       	adiw	r24, 0x01	; 1
    6e6e:	08 95       	ret

00006e70 <eeprom_write_word>:
    6e70:	f1 df       	rcall	.-30     	; 0x6e54 <eeprom_write_byte>
    6e72:	27 2f       	mov	r18, r23
    6e74:	f0 cf       	rjmp	.-32     	; 0x6e56 <eeprom_write_r18>

00006e76 <__prologue_saves__>:
    6e76:	2f 92       	push	r2
    6e78:	3f 92       	push	r3
    6e7a:	4f 92       	push	r4
    6e7c:	5f 92       	push	r5
    6e7e:	6f 92       	push	r6
    6e80:	7f 92       	push	r7
    6e82:	8f 92       	push	r8
    6e84:	9f 92       	push	r9
    6e86:	af 92       	push	r10
    6e88:	bf 92       	push	r11
    6e8a:	cf 92       	push	r12
    6e8c:	df 92       	push	r13
    6e8e:	ef 92       	push	r14
    6e90:	ff 92       	push	r15
    6e92:	0f 93       	push	r16
    6e94:	1f 93       	push	r17
    6e96:	cf 93       	push	r28
    6e98:	df 93       	push	r29
    6e9a:	cd b7       	in	r28, 0x3d	; 61
    6e9c:	de b7       	in	r29, 0x3e	; 62
    6e9e:	ca 1b       	sub	r28, r26
    6ea0:	db 0b       	sbc	r29, r27
    6ea2:	0f b6       	in	r0, 0x3f	; 63
    6ea4:	f8 94       	cli
    6ea6:	de bf       	out	0x3e, r29	; 62
    6ea8:	0f be       	out	0x3f, r0	; 63
    6eaa:	cd bf       	out	0x3d, r28	; 61
    6eac:	09 94       	ijmp

00006eae <__epilogue_restores__>:
    6eae:	2a 88       	ldd	r2, Y+18	; 0x12
    6eb0:	39 88       	ldd	r3, Y+17	; 0x11
    6eb2:	48 88       	ldd	r4, Y+16	; 0x10
    6eb4:	5f 84       	ldd	r5, Y+15	; 0x0f
    6eb6:	6e 84       	ldd	r6, Y+14	; 0x0e
    6eb8:	7d 84       	ldd	r7, Y+13	; 0x0d
    6eba:	8c 84       	ldd	r8, Y+12	; 0x0c
    6ebc:	9b 84       	ldd	r9, Y+11	; 0x0b
    6ebe:	aa 84       	ldd	r10, Y+10	; 0x0a
    6ec0:	b9 84       	ldd	r11, Y+9	; 0x09
    6ec2:	c8 84       	ldd	r12, Y+8	; 0x08
    6ec4:	df 80       	ldd	r13, Y+7	; 0x07
    6ec6:	ee 80       	ldd	r14, Y+6	; 0x06
    6ec8:	fd 80       	ldd	r15, Y+5	; 0x05
    6eca:	0c 81       	ldd	r16, Y+4	; 0x04
    6ecc:	1b 81       	ldd	r17, Y+3	; 0x03
    6ece:	aa 81       	ldd	r26, Y+2	; 0x02
    6ed0:	b9 81       	ldd	r27, Y+1	; 0x01
    6ed2:	ce 0f       	add	r28, r30
    6ed4:	d1 1d       	adc	r29, r1
    6ed6:	0f b6       	in	r0, 0x3f	; 63
    6ed8:	f8 94       	cli
    6eda:	de bf       	out	0x3e, r29	; 62
    6edc:	0f be       	out	0x3f, r0	; 63
    6ede:	cd bf       	out	0x3d, r28	; 61
    6ee0:	ed 01       	movw	r28, r26
    6ee2:	08 95       	ret

00006ee4 <_exit>:
    6ee4:	f8 94       	cli

00006ee6 <__stop_program>:
    6ee6:	ff cf       	rjmp	.-2      	; 0x6ee6 <__stop_program>
